 tbb

 Timestamp is 5f1fe80f (Tue Jul 28 11:55:43 2020)

 Preferred load address is 0000000180000000

 Start         Length     Name                   Class
 0001:00000000 00000040H .text$di                CODE
 0001:00000040 0003ce40H .text$mn                CODE
 0001:0003ce80 00000040H .text$mn$00             CODE
 0001:0003cec0 00001a80H .text$x                 CODE
 0001:0003e940 0000000cH .text$yd                CODE
 0002:00000000 00000320H .idata$5                DATA
 0002:00000320 00000028H .00cfg                  DATA
 0002:00000348 00000008H .CRT$XCA                DATA
 0002:00000350 00000010H .CRT$XCU                DATA
 0002:00000360 00000008H .CRT$XCZ                DATA
 0002:00000368 00000008H .CRT$XIA                DATA
 0002:00000370 00000028H .CRT$XIC                DATA
 0002:00000398 00000008H .CRT$XIZ                DATA
 0002:000003a0 00000008H .CRT$XLA                DATA
 0002:000003a8 00000008H .CRT$XLZ                DATA
 0002:000003b0 00000008H .CRT$XPA                DATA
 0002:000003b8 00000010H .CRT$XPX                DATA
 0002:000003c8 00000008H .CRT$XPXA               DATA
 0002:000003d0 00000008H .CRT$XPZ                DATA
 0002:000003d8 00000008H .CRT$XTA                DATA
 0002:000003e0 00000010H .CRT$XTZ                DATA
 0002:000003e8 00000000H .gfids$y                DATA
 0002:000003f0 0000d970H .rdata                  DATA
 0002:0000dd60 00000030H .rdata$T                DATA
 0002:0000dd90 000023acH .rdata$r                DATA
 0002:0001013c 000003d4H .rdata$zzzdbg           DATA
 0002:00010510 00000008H .rtc$IAA                DATA
 0002:00010518 00000008H .rtc$IZZ                DATA
 0002:00010520 00000008H .rtc$TAA                DATA
 0002:00010528 00000008H .rtc$TZZ                DATA
 0002:00010530 00000004H .tls                    DATA
 0002:00010534 00000004H .tls$                   DATA
 0002:00010538 00000008H .tls$ZZZ                DATA
 0002:00010540 000044a8H .xdata                  DATA
 0002:000149e8 00000718H .xdata$x                DATA
 0002:00015100 00004264H .edata                  DATA
 0002:00019364 00000014H .idata$2                DATA
 0002:00019378 00000018H .idata$3                DATA
 0002:00019390 00000320H .idata$4                DATA
 0002:000196b0 0000076cH .idata$6                DATA
 0003:00000000 00003120H .data                   DATA
 0003:00003120 00000e70H .data$r                 DATA
 0003:00003f90 00002d04H .bss                    DATA
 0004:00000000 000042ccH .pdata                  DATA
 0005:00000000 00000094H _RDATA                  DATA
 0006:00000000 000000a0H .rsrc$01                DATA
 0006:000000a0 00000560H .rsrc$02                DATA

  Address         Publics by Value              Rva+Base               Lib:Object

 0000:00000000       __guard_longjmp_count      0000000000000000     <absolute>
 0000:00000000       __arm64x_redirection_metadata 0000000000000000     <absolute>
 0000:00000000       __guard_iat_table          0000000000000000     <absolute>
 0000:00000000       __volatile_metadata        0000000000000000     <absolute>
 0000:00000000       __arm64x_native_entrypoint 0000000000000000     <absolute>
 0000:00000000       __guard_fids_count         0000000000000000     <absolute>
 0000:00000000       __hybrid_code_map_count    0000000000000000     <absolute>
 0000:00000000       __x64_code_ranges_to_entry_points 0000000000000000     <absolute>
 0000:00000000       __guard_longjmp_table      0000000000000000     <absolute>
 0000:00000000       __guard_eh_cont_table      0000000000000000     <absolute>
 0000:00000000       __guard_eh_cont_count      0000000000000000     <absolute>
 0000:00000000       __enclave_config           0000000000000000     <absolute>
 0000:00000000       __AbsoluteZero             0000000000000000     <absolute>
 0000:00000000       __guard_fids_table         0000000000000000     <absolute>
 0000:00000000       __hybrid_code_map          0000000000000000     <absolute>
 0000:00000000       __hybrid_auxiliary_iat     0000000000000000     <absolute>
 0000:00000000       __guard_iat_count          0000000000000000     <absolute>
 0000:00000000       __dynamic_value_reloc_table 0000000000000000     <absolute>
 0000:00000100       __guard_flags              0000000000000100     <absolute>
 0000:00000000       __ImageBase                0000000180000000     <linker-defined>
 0001:00000040       ?internal_grow_predicate@hash_map_segment_base@internal@tbb@@QEBA_NXZ 0000000180001040 f   concurrent_hash_map.obj
 0001:00000070       ?on_scheduler_entry@task_scheduler_observer_v3@internal@tbb@@UEAAX_N@Z 0000000180001070 f i arena.obj
 0001:00000070       ?note_affinity@task@tbb@@UEAAXG@Z 0000000180001070 f i task.obj
 0001:00000070       ?independent_thread_number_changed@private_server@rml@internal@tbb@@UEAAXH@Z 0000000180001070 f i private_server.obj
 0001:00000070       ?register_master@private_server@rml@internal@tbb@@UEAAXAEAPEAX@Z 0000000180001070 f i private_server.obj
 0001:00000070       ?on_scheduler_exit@task_scheduler_observer_v3@internal@tbb@@UEAAX_N@Z 0000000180001070 f i arena.obj
 0001:00000070       ?internal_destroy@reader_writer_lock@interface5@tbb@@AEAAXXZ 0000000180001070 f i reader_writer_lock.obj
 0001:00000070       ?finalize@filter@tbb@@UEAAXPEAX@Z 0000000180001070 f i pipeline.obj
 0001:00000070       ?unregister_master@private_server@rml@internal@tbb@@UEAAXPEAX@Z 0000000180001070 f i private_server.obj
 0001:00000070       ?inject_token@pipeline@tbb@@AEAAXAEAVtask@2@@Z 0000000180001070 f i pipeline.obj
 0001:00000070       _guard_check_icall_nop     0000000180001070 f i LIBCMT:guard_support.obj
 0001:00000070       ?__empty_global_delete@@YAXPEAX_K@Z 0000000180001070 f i concurrent_hash_map.obj
 0001:00000070       ?__global_delete@@YAXPEAX_K@Z 0000000180001070 f i * CIL library *:* CIL module *
 0001:00000070       ?apply_active@stack_size_control@internal@tbb@@EEBAXXZ 0000000180001070 f i tbb_main.obj
 0001:00000070       ?destroy_condvar_noop@internal@tbb@@YAXPEAU_RTL_CONDITION_VARIABLE@@@Z 0000000180001070 f i condition_variable.obj
 0001:00000080       ??1scoped_lock@spin_mutex@tbb@@QEAA@XZ 0000000180001080 f i concurrent_queue.obj
 0001:00000090       ??1binary_semaphore@internal@tbb@@QEAA@XZ 0000000180001090 f i concurrent_queue.obj
 0001:000000a0       ??1thread_context@concurrent_monitor@internal@tbb@@QEAA@XZ 00000001800010a0 f i concurrent_queue.obj
 0001:000000e0       ?commit_wait@concurrent_monitor@internal@tbb@@QEAA_NAEAVthread_context@123@@Z 00000001800010e0 f i concurrent_queue.obj
 0001:000001f0       ?abort_all@concurrent_monitor@internal@tbb@@QEAAXXZ 00000001800011f0 f i concurrent_queue.obj
 0001:00000320       ??1micro_queue_pop_finalizer@internal@tbb@@QEAA@XZ 0000000180001320 f i concurrent_queue.obj
 0001:000003f0       ?choose@concurrent_queue_rep@internal@tbb@@QEAAAEAUmicro_queue@23@_K@Z 00000001800013f0 f i concurrent_queue.obj
 0001:00000410       ?push@micro_queue@internal@tbb@@QEAAXPEBX_KAEAVconcurrent_queue_base_v3@23@W4copy_specifics@423@@Z 0000000180001410 f   concurrent_queue.obj
 0001:000005d0       ?abort_push@micro_queue@internal@tbb@@QEAAX_KAEAVconcurrent_queue_base_v3@23@@Z 00000001800015d0 f   concurrent_queue.obj
 0001:000005f0       ?pop@micro_queue@internal@tbb@@QEAA_NPEAX_KAEAVconcurrent_queue_base_v3@23@@Z 00000001800015f0 f   concurrent_queue.obj
 0001:000007e0       ?assign@micro_queue@internal@tbb@@QEAAAEAU123@AEBU123@AEAVconcurrent_queue_base_v3@23@W4copy_specifics@423@@Z 00000001800017e0 f   concurrent_queue.obj
 0001:00000a40       ?make_invalid@micro_queue@internal@tbb@@QEAAX_K@Z 0000000180001a40 f   concurrent_queue.obj
 0001:00000b00       ??0concurrent_queue_base_v3@internal@tbb@@IEAA@_K@Z 0000000180001b00 f   concurrent_queue.obj
 0001:00000c30       ??_Gconcurrent_queue_base_v3@internal@tbb@@MEAAPEAXI@Z 0000000180001c30 f i concurrent_queue.obj
 0001:00000c30       ??_Econcurrent_queue_base_v3@internal@tbb@@MEAAPEAXI@Z 0000000180001c30 f i * CIL library *:* CIL module *
 0001:00000c80       ??1concurrent_queue_base_v3@internal@tbb@@MEAA@XZ 0000000180001c80 f   concurrent_queue.obj
 0001:00000ca0       ?internal_push@concurrent_queue_base_v3@internal@tbb@@IEAAXPEBX@Z 0000000180001ca0 f   concurrent_queue.obj
 0001:00000cb0       ?internal_push_move@concurrent_queue_base_v8@internal@tbb@@IEAAXPEBX@Z 0000000180001cb0 f   concurrent_queue.obj
 0001:00000cc0       ?internal_insert_item@concurrent_queue_base_v3@internal@tbb@@IEAAXPEBXW4copy_specifics@123@@Z 0000000180001cc0 f   concurrent_queue.obj
 0001:00001010       ?internal_pop@concurrent_queue_base_v3@internal@tbb@@IEAAXPEAX@Z 0000000180002010 f   concurrent_queue.obj
 0001:000013b0       ?internal_abort@concurrent_queue_base_v3@internal@tbb@@IEAAXXZ 00000001800023b0 f   concurrent_queue.obj
 0001:000013f0       ?internal_pop_if_present@concurrent_queue_base_v3@internal@tbb@@IEAA_NPEAX@Z 00000001800023f0 f   concurrent_queue.obj
 0001:000014a0       ?internal_push_if_not_full@concurrent_queue_base_v3@internal@tbb@@IEAA_NPEBX@Z 00000001800024a0 f   concurrent_queue.obj
 0001:000014b0       ?internal_push_move_if_not_full@concurrent_queue_base_v8@internal@tbb@@IEAA_NPEBX@Z 00000001800024b0 f   concurrent_queue.obj
 0001:000014c0       ?internal_insert_if_not_full@concurrent_queue_base_v3@internal@tbb@@IEAA_NPEBXW4copy_specifics@123@@Z 00000001800024c0 f   concurrent_queue.obj
 0001:00001570       ?internal_size@concurrent_queue_base_v3@internal@tbb@@IEBA_JXZ 0000000180002570 f   concurrent_queue.obj
 0001:000015a0       ?internal_empty@concurrent_queue_base_v3@internal@tbb@@IEBA_NXZ 00000001800025a0 f   concurrent_queue.obj
 0001:000015e0       ?internal_set_capacity@concurrent_queue_base_v3@internal@tbb@@IEAAX_J_K@Z 00000001800025e0 f   concurrent_queue.obj
 0001:000015e0       ?internal_set_capacity@concurrent_queue_base@internal@tbb@@IEAAX_J_K@Z 00000001800025e0 f   concurrent_queue_v2.obj
 0001:00001600       ?internal_finish_clear@concurrent_queue_base_v3@internal@tbb@@IEAAXXZ 0000000180002600 f   concurrent_queue.obj
 0001:00001670       ?internal_throw_exception@concurrent_queue_base_v3@internal@tbb@@IEBAXXZ 0000000180002670 f   concurrent_queue.obj
 0001:00001680       ?internal_assign@concurrent_queue_base_v3@internal@tbb@@IEAAXAEBV123@W4copy_specifics@123@@Z 0000000180002680 f   concurrent_queue.obj
 0001:00001750       ?assign@concurrent_queue_base_v3@internal@tbb@@IEAAXAEBV123@@Z 0000000180002750 f   concurrent_queue.obj
 0001:00001760       ?move_content@concurrent_queue_base_v8@internal@tbb@@IEAAXAEAV123@@Z 0000000180002760 f   concurrent_queue.obj
 0001:00001770       ?initialize@concurrent_queue_iterator_base_v3@internal@tbb@@AEAAXAEBVconcurrent_queue_base_v3@23@_K@Z 0000000180002770 f   concurrent_queue.obj
 0001:00001870       ??0concurrent_queue_iterator_base_v3@internal@tbb@@IEAA@AEBVconcurrent_queue_base_v3@12@@Z 0000000180002870 f   concurrent_queue.obj
 0001:00001890       ??0concurrent_queue_iterator_base_v3@internal@tbb@@IEAA@AEBVconcurrent_queue_base_v3@12@_K@Z 0000000180002890 f   concurrent_queue.obj
 0001:000018b0       ?assign@concurrent_queue_iterator_base_v3@internal@tbb@@IEAAXAEBV123@@Z 00000001800028b0 f   concurrent_queue.obj
 0001:00001980       ?advance@concurrent_queue_iterator_base_v3@internal@tbb@@IEAAXXZ 0000000180002980 f   concurrent_queue.obj
 0001:00001a30       ??1concurrent_queue_iterator_base_v3@internal@tbb@@IEAA@XZ 0000000180002a30 f   concurrent_queue.obj
 0001:00001a50       ??F?$atomic_impl_with_arithmetic@_K_KD@internal@tbb@@QEAA_KH@Z 0000000180002a50 f i concurrent_queue.obj
 0001:00001a60       ??E?$atomic_impl_with_arithmetic@_K_KD@internal@tbb@@QEAA_KXZ 0000000180002a60 f i concurrent_queue.obj
 0001:00001a70       ??Y?$atomic_impl_with_arithmetic@_K_KD@internal@tbb@@QEAA_K_K@Z 0000000180002a70 f i concurrent_queue.obj
 0001:00001a80       ??$notify@Upredicate_leq@internal@tbb@@@concurrent_monitor@internal@tbb@@QEAAXAEBUpredicate_leq@12@@Z 0000000180002a80 f i concurrent_queue.obj
 0001:00001bd0       ?segment_base@concurrent_vector_base_v3@internal@tbb@@KA_K_K@Z 0000000180002bd0 f i concurrent_vector.obj
 0001:00001be0       ?acquire_segment@helper@concurrent_vector_base_v3@internal@tbb@@SAAEAVsegment_t@234@AEAV234@_K1_N@Z 0000000180002be0 f i concurrent_vector.obj
 0001:00001c90       ??0helper@concurrent_vector_base_v3@internal@tbb@@QEAA@PEAVsegment_t@123@_K1111@Z 0000000180002c90 f i concurrent_vector.obj
 0001:00001cd0       ??1helper@concurrent_vector_base_v3@internal@tbb@@QEAA@XZ 0000000180002cd0 f i concurrent_vector.obj
 0001:00001cf0       ??0destroy_body@helper@concurrent_vector_base_v3@internal@tbb@@QEAA@P6AXPEAX_K@Z@Z 0000000180002cf0 f i concurrent_vector.obj
 0001:00001d00       ?extend_segment_table@helper@concurrent_vector_base_v3@internal@tbb@@SAXAEAV234@_K@Z 0000000180002d00 f   concurrent_vector.obj
 0001:00001ea0       ?enable_segment@helper@concurrent_vector_base_v3@internal@tbb@@SA_KAEAV234@_K1_N@Z 0000000180002ea0 f   concurrent_vector.obj
 0001:000020b0       ?cleanup@helper@concurrent_vector_base_v3@internal@tbb@@QEAAXXZ 00000001800030b0 f   concurrent_vector.obj
 0001:000023d0       ??1concurrent_vector_base_v3@internal@tbb@@IEAA@XZ 00000001800033d0 f   concurrent_vector.obj
 0001:00002400       ?internal_capacity@concurrent_vector_base_v3@internal@tbb@@IEBA_KXZ 0000000180003400 f   concurrent_vector.obj
 0001:00002440       ?internal_throw_exception@concurrent_vector_base_v3@internal@tbb@@IEBAX_K@Z 0000000180003440 f   concurrent_vector.obj
 0001:00002490       ?internal_reserve@concurrent_vector_base_v3@internal@tbb@@IEAAX_K00@Z 0000000180003490 f   concurrent_vector.obj
 0001:00002590       ?internal_copy@concurrent_vector_base_v3@internal@tbb@@IEAAXAEBV123@_KP6AXPEAXPEBX1@Z@Z 0000000180003590 f   concurrent_vector.obj
 0001:000026c0       ?internal_assign@concurrent_vector_base_v3@internal@tbb@@IEAAXAEBV123@_KP6AXPEAX1@ZP6AX2PEBX1@Z5@Z 00000001800036c0 f   concurrent_vector.obj
 0001:000028e0       ?internal_push_back@concurrent_vector_base_v3@internal@tbb@@IEAAPEAX_KAEA_K@Z 00000001800038e0 f   concurrent_vector.obj
 0001:00002990       ?internal_grow_to_at_least@concurrent_vector_base_v3@internal@tbb@@IEAAX_K0P6AXPEAXPEBX0@Z2@Z 0000000180003990 f   concurrent_vector.obj
 0001:000029a0       ?internal_grow_to_at_least_with_result@concurrent_vector_base_v3@internal@tbb@@IEAA_K_K0P6AXPEAXPEBX0@Z2@Z 00000001800039a0 f   concurrent_vector.obj
 0001:00002b20       ?internal_grow_by@concurrent_vector_base_v3@internal@tbb@@IEAA_K_K0P6AXPEAXPEBX0@Z2@Z 0000000180003b20 f   concurrent_vector.obj
 0001:00002b60       ?internal_grow@concurrent_vector_base_v3@internal@tbb@@IEAAX_K00P6AXPEAXPEBX0@Z2@Z 0000000180003b60 f   concurrent_vector.obj
 0001:00002db0       ?internal_resize@concurrent_vector_base_v3@internal@tbb@@IEAAX_K00PEBXP6AXPEAX0@ZP6AX210@Z@Z 0000000180003db0 f   concurrent_vector.obj
 0001:00003050       ?internal_clear@concurrent_vector_base_v3@internal@tbb@@IEAA_KP6AXPEAX_K@Z@Z 0000000180004050 f   concurrent_vector.obj
 0001:00003100       ?internal_compact@concurrent_vector_base_v3@internal@tbb@@IEAAPEAX_KPEAXP6AX10@ZP6AX1PEBX0@Z@Z 0000000180004100 f   concurrent_vector.obj
 0001:00003490       ?internal_swap@concurrent_vector_base_v3@internal@tbb@@IEAAXAEAV123@@Z 0000000180004490 f   concurrent_vector.obj
 0001:00003590       ??$apply@Udestroy_body@helper@concurrent_vector_base_v3@internal@tbb@@@helper@concurrent_vector_base_v3@internal@tbb@@QEAA_KAEBUdestroy_body@0123@@Z 0000000180004590 f i concurrent_vector.obj
 0001:00003800       ?init_dynamic_link_data@internal@tbb@@YAXXZ 0000000180004800 f   dynamic_link.obj
 0001:000038b0       ?dynamic_link@internal@tbb@@YA_NPEBDQEBUdynamic_link_descriptor@12@_KPEAPEAUHINSTANCE__@@H@Z 00000001800048b0 f   dynamic_link.obj
 0001:00008a80       __itt_fini_ittlib          0000000180009a80 f   itt_notify.obj
 0001:00008bb0       __itt_init_ittlib          0000000180009bb0 f   itt_notify.obj
 0001:00008f60       ?initialize_handler_pointers@internal@tbb@@YAXXZ 0000000180009f60 f   cache_aligned_allocator.obj
 0001:00009150       ?initialize_cache_aligned_allocator@internal@tbb@@YAXXZ 000000018000a150 f   cache_aligned_allocator.obj
 0001:00009290       ?NFS_GetLineSize@internal@tbb@@YA_KXZ 000000018000a290 f   cache_aligned_allocator.obj
 0001:000092a0       ?NFS_Allocate@internal@tbb@@YAPEAX_K0PEAX@Z 000000018000a2a0 f   cache_aligned_allocator.obj
 0001:00009300       ?NFS_Free@internal@tbb@@YAXPEAX@Z 000000018000a300 f   cache_aligned_allocator.obj
 0001:00009360       ?allocate_closure_v3@internal@tbb@@YAPEAX_K@Z 000000018000a360 f   tbb_thread.obj
 0001:00009360       ?allocate_via_handler_v3@internal@tbb@@YAPEAX_K@Z 000000018000a360 f   cache_aligned_allocator.obj
 0001:00009390       ?deallocate_via_handler_v3@internal@tbb@@YAXPEAX@Z 000000018000a390 f   cache_aligned_allocator.obj
 0001:00009390       ?free_closure_v3@internal@tbb@@YAXPEAX@Z 000000018000a390 f   tbb_thread.obj
 0001:000093a0       ?is_malloc_used_v3@internal@tbb@@YA_NXZ 000000018000a3a0 f   cache_aligned_allocator.obj
 0001:000093e0       ??0task_group_context@tbb@@QEAA@W4kind_type@01@_K@Z 000000018000a3e0 f i pipeline.obj
 0001:00009560       ??_Etask@tbb@@UEAAPEAXI@Z  000000018000a560 f i * CIL library *:* CIL module *
 0001:00009560       ??_Gempty_task@tbb@@UEAAPEAXI@Z 000000018000a560 f i arena.obj
 0001:00009560       ??_Eempty_task@tbb@@UEAAPEAXI@Z 000000018000a560 f i * CIL library *:* CIL module *
 0001:00009560       ??_Gtask@tbb@@UEAAPEAXI@Z  000000018000a560 f i pipeline.obj
 0001:00009590       ??2@YAPEAX_KAEBVallocate_root_with_context_proxy@internal@tbb@@@Z 000000018000a590 f i pipeline.obj
 0001:00009690       ??_Efilter@tbb@@UEAAPEAXI@Z 000000018000a690 f i * CIL library *:* CIL module *
 0001:00009690       ??_Gfilter@tbb@@UEAAPEAXI@Z 000000018000a690 f i pipeline.obj
 0001:000097b0       ??0input_buffer@internal@tbb@@QEAA@_N0@Z 000000018000a7b0 f i pipeline.obj
 0001:00009830       ?put_token@input_buffer@internal@tbb@@QEAA_NAEAUtask_info@23@_N@Z 000000018000a830 f i pipeline.obj
 0001:00009990       ?return_item@input_buffer@internal@tbb@@QEAA_NAEAUtask_info@23@_N@Z 000000018000a990 f i pipeline.obj
 0001:00009a60       ?grow@input_buffer@internal@tbb@@AEAAXK@Z 000000018000aa60 f   pipeline.obj
 0001:00009b70       ??_Estage_task@internal@tbb@@UEAAPEAXI@Z 000000018000ab70 f i * CIL library *:* CIL module *
 0001:00009b70       ??_Gstage_task@internal@tbb@@UEAAPEAXI@Z 000000018000ab70 f i pipeline.obj
 0001:00009be0       ?execute@stage_task@internal@tbb@@UEAAPEAVtask@3@XZ 000000018000abe0 f   pipeline.obj
 0001:0000a040       ?execute@pipeline_root_task@internal@tbb@@EEAAPEAVtask@3@XZ 000000018000b040 f i pipeline.obj
 0001:0000a390       ??_Epipeline_root_task@internal@tbb@@UEAAPEAXI@Z 000000018000b390 f i * CIL library *:* CIL module *
 0001:0000a390       ??_Gpipeline_root_task@internal@tbb@@UEAAPEAXI@Z 000000018000b390 f i pipeline.obj
 0001:0000a3c0       ??1pipeline_cleaner@internal@tbb@@QEAA@XZ 000000018000b3c0 f i pipeline.obj
 0001:0000a490       ??0pipeline@tbb@@QEAA@XZ   000000018000b490 f   pipeline.obj
 0001:0000a4c0       ??_Gpipeline@tbb@@UEAAPEAXI@Z 000000018000b4c0 f i pipeline.obj
 0001:0000a4c0       ??_Epipeline@tbb@@UEAAPEAXI@Z 000000018000b4c0 f i * CIL library *:* CIL module *
 0001:0000a5c0       ??1pipeline@tbb@@UEAA@XZ   000000018000b5c0 f   pipeline.obj
 0001:0000a6b0       ?clear@pipeline@tbb@@QEAAXXZ 000000018000b6b0 f   pipeline.obj
 0001:0000a7a0       ?add_filter@pipeline@tbb@@QEAAXAEAVfilter@2@@Z 000000018000b7a0 f   pipeline.obj
 0001:0000aa60       ?run@pipeline@tbb@@QEAAX_KAEAVtask_group_context@2@@Z 000000018000ba60 f   pipeline.obj
 0001:0000ac10       ?run@pipeline@tbb@@QEAAX_K@Z 000000018000bc10 f   pipeline.obj
 0001:0000aca0       ??1filter@tbb@@UEAA@XZ     000000018000bca0 f   pipeline.obj
 0001:0000ada0       ?set_end_of_input@filter@tbb@@IEAAXXZ 000000018000bda0 f   pipeline.obj
 0001:0000add0       ?process_item@thread_bound_filter@tbb@@QEAA?AW4result_type@12@XZ 000000018000bdd0 f   pipeline.obj
 0001:0000ade0       ?try_process_item@thread_bound_filter@tbb@@QEAA?AW4result_type@12@XZ 000000018000bde0 f   pipeline.obj
 0001:0000adf0       ?internal_process_item@thread_bound_filter@tbb@@AEAA?AW4result_type@12@_N@Z 000000018000bdf0 f   pipeline.obj
 0001:0000b0b0       ??$note_done@Vstage_task@internal@tbb@@@input_buffer@internal@tbb@@QEAAXKAEAVstage_task@12@@Z 000000018000c0b0 f i pipeline.obj
 0001:0000b240       ?acquire@scoped_lock@queuing_mutex@tbb@@QEAAXAEAV23@@Z 000000018000c240 f   queuing_mutex.obj
 0001:0000b2e0       ?try_acquire@scoped_lock@queuing_mutex@tbb@@QEAA_NAEAV23@@Z 000000018000c2e0 f   queuing_mutex.obj
 0001:0000b320       ?release@scoped_lock@queuing_mutex@tbb@@QEAAXXZ 000000018000c320 f   queuing_mutex.obj
 0001:0000b3c0       ?internal_construct@queuing_mutex@tbb@@QEAAXXZ 000000018000c3c0 f   queuing_mutex.obj
 0001:0000b3f0       ?acquire@scoped_lock@queuing_rw_mutex@tbb@@QEAAXAEAV23@_N@Z 000000018000c3f0 f   queuing_rw_mutex.obj
 0001:0000b5c0       ?try_acquire@scoped_lock@queuing_rw_mutex@tbb@@QEAA_NAEAV23@_N@Z 000000018000c5c0 f   queuing_rw_mutex.obj
 0001:0000b620       ?release@scoped_lock@queuing_rw_mutex@tbb@@QEAAXXZ 000000018000c620 f   queuing_rw_mutex.obj
 0001:0000b980       ?downgrade_to_reader@scoped_lock@queuing_rw_mutex@tbb@@QEAA_NXZ 000000018000c980 f   queuing_rw_mutex.obj
 0001:0000ba50       ?upgrade_to_writer@scoped_lock@queuing_rw_mutex@tbb@@QEAA_NXZ 000000018000ca50 f   queuing_rw_mutex.obj
 0001:0000be00       ?internal_construct@queuing_rw_mutex@tbb@@QEAAXXZ 000000018000ce00 f   queuing_rw_mutex.obj
 0001:0000be30       ??1scoped_lock_read@reader_writer_lock@interface5@tbb@@QEAA@XZ 000000018000ce30 f i reader_writer_lock.obj
 0001:0000be90       ?fetch_and_or@interface5@tbb@@YA_KAEAU?$atomic@_K@2@_K@Z 000000018000ce90 f i reader_writer_lock.obj
 0001:0000bf10       ?internal_construct@reader_writer_lock@interface5@tbb@@AEAAXXZ 000000018000cf10 f   reader_writer_lock.obj
 0001:0000bf30       ?lock@reader_writer_lock@interface5@tbb@@QEAAXXZ 000000018000cf30 f   reader_writer_lock.obj
 0001:0000bfb0       ?try_lock@reader_writer_lock@interface5@tbb@@QEAA_NXZ 000000018000cfb0 f   reader_writer_lock.obj
 0001:0000c020       ?start_write@reader_writer_lock@interface5@tbb@@AEAA_NPEAVscoped_lock@123@@Z 000000018000d020 f   reader_writer_lock.obj
 0001:0000c1b0       ?set_next_writer@reader_writer_lock@interface5@tbb@@AEAAXPEAVscoped_lock@123@@Z 000000018000d1b0 f   reader_writer_lock.obj
 0001:0000c2a0       ?lock_read@reader_writer_lock@interface5@tbb@@QEAAXXZ 000000018000d2a0 f   reader_writer_lock.obj
 0001:0000c320       ?try_lock_read@reader_writer_lock@interface5@tbb@@QEAA_NXZ 000000018000d320 f   reader_writer_lock.obj
 0001:0000c380       ?start_read@reader_writer_lock@interface5@tbb@@AEAAXPEAVscoped_lock_read@123@@Z 000000018000d380 f   reader_writer_lock.obj
 0001:0000c470       ?unlock@reader_writer_lock@interface5@tbb@@QEAAXXZ 000000018000d470 f   reader_writer_lock.obj
 0001:0000c4f0       ?end_write@reader_writer_lock@interface5@tbb@@AEAAXPEAVscoped_lock@123@@Z 000000018000d4f0 f   reader_writer_lock.obj
 0001:0000c640       ?internal_construct@scoped_lock@reader_writer_lock@interface5@tbb@@AEAAXAEAV234@@Z 000000018000d640 f   reader_writer_lock.obj
 0001:0000c6a0       ?internal_construct@scoped_lock_read@reader_writer_lock@interface5@tbb@@AEAAXAEAV234@@Z 000000018000d6a0 f   reader_writer_lock.obj
 0001:0000c700       ?internal_destroy@scoped_lock@reader_writer_lock@interface5@tbb@@AEAAXXZ 000000018000d700 f   reader_writer_lock.obj
 0001:0000c740       ?internal_destroy@scoped_lock_read@reader_writer_lock@interface5@tbb@@AEAAXXZ 000000018000d740 f   reader_writer_lock.obj
 0001:0000c7a0       ?internal_acquire_writer@spin_rw_mutex@tbb@@CA_NPEAV12@@Z 000000018000d7a0 f   spin_rw_mutex_v2.obj
 0001:0000c7a0       ?internal_acquire_writer@spin_rw_mutex_v3@tbb@@AEAA_NXZ 000000018000d7a0 f   spin_rw_mutex.obj
 0001:0000c860       ?internal_release_writer@spin_rw_mutex_v3@tbb@@AEAAXXZ 000000018000d860 f   spin_rw_mutex.obj
 0001:0000c890       ?internal_acquire_reader@spin_rw_mutex_v3@tbb@@AEAAXXZ 000000018000d890 f   spin_rw_mutex.obj
 0001:0000c910       ?internal_upgrade@spin_rw_mutex_v3@tbb@@AEAA_NXZ 000000018000d910 f   spin_rw_mutex.obj
 0001:0000ca30       ?internal_downgrade@spin_rw_mutex_v3@tbb@@AEAAXXZ 000000018000da30 f   spin_rw_mutex.obj
 0001:0000ca60       ?internal_release_reader@spin_rw_mutex_v3@tbb@@AEAAXXZ 000000018000da60 f   spin_rw_mutex.obj
 0001:0000ca60       ?internal_release_reader@spin_rw_mutex@tbb@@CAXPEAV12@@Z 000000018000da60 f   spin_rw_mutex_v2.obj
 0001:0000ca90       ?internal_try_acquire_writer@spin_rw_mutex_v3@tbb@@AEAA_NXZ 000000018000da90 f   spin_rw_mutex.obj
 0001:0000ca90       ?internal_try_acquire_writer@spin_rw_mutex@tbb@@CA_NPEAV12@@Z 000000018000da90 f   spin_rw_mutex_v2.obj
 0001:0000cb00       ?internal_try_acquire_reader@spin_rw_mutex_v3@tbb@@AEAA_NXZ 000000018000db00 f   spin_rw_mutex.obj
 0001:0000cb40       ?internal_construct@spin_rw_mutex_v3@tbb@@AEAAXXZ 000000018000db40 f   spin_rw_mutex.obj
 0001:0000cb70       ?acquire@scoped_lock@spin_rw_mutex_v3@tbb@@QEAAXAEAV23@_N@Z 000000018000db70 f i x86_rtm_rw_mutex.obj
 0001:0000cc20       ?internal_release@x86_rtm_rw_mutex@internal@interface8@tbb@@AEAAXAEAVscoped_lock@1234@@Z 000000018000dc20 f   x86_rtm_rw_mutex.obj
 0001:0000cc80       ?internal_acquire_writer@x86_rtm_rw_mutex@internal@interface8@tbb@@AEAAXAEAVscoped_lock@1234@_N@Z 000000018000dc80 f   x86_rtm_rw_mutex.obj
 0001:0000cd60       ?internal_acquire_reader@x86_rtm_rw_mutex@internal@interface8@tbb@@AEAAXAEAVscoped_lock@1234@_N@Z 000000018000dd60 f   x86_rtm_rw_mutex.obj
 0001:0000ce90       ?internal_upgrade@x86_rtm_rw_mutex@internal@interface8@tbb@@AEAA_NAEAVscoped_lock@1234@@Z 000000018000de90 f   x86_rtm_rw_mutex.obj
 0001:0000d0d0       ?internal_downgrade@x86_rtm_rw_mutex@internal@interface8@tbb@@AEAA_NAEAVscoped_lock@1234@@Z 000000018000e0d0 f   x86_rtm_rw_mutex.obj
 0001:0000d110       ?internal_try_acquire_writer@x86_rtm_rw_mutex@internal@interface8@tbb@@AEAA_NAEAVscoped_lock@1234@@Z 000000018000e110 f   x86_rtm_rw_mutex.obj
 0001:0000d200       ?internal_construct@x86_rtm_rw_mutex@internal@interface8@tbb@@AEAAXXZ 000000018000e200 f   x86_rtm_rw_mutex.obj
 0001:0000d230       ?internal_acquire@scoped_lock@spin_mutex@tbb@@AEAAXAEAV23@@Z 000000018000e230 f   spin_mutex.obj
 0001:0000d2d0       ?internal_release@scoped_lock@spin_mutex@tbb@@AEAAXXZ 000000018000e2d0 f   spin_mutex.obj
 0001:0000d300       ?internal_try_acquire@scoped_lock@spin_mutex@tbb@@AEAA_NAEAV23@@Z 000000018000e300 f   spin_mutex.obj
 0001:0000d340       ?internal_construct@spin_mutex@tbb@@QEAAXXZ 000000018000e340 f   spin_mutex.obj
 0001:0000d370       ?internal_construct@critical_section_v4@internal@tbb@@QEAAXXZ 000000018000e370 f   critical_section.obj
 0001:0000d3a0       ?internal_acquire@scoped_lock@mutex@tbb@@AEAAXAEAV23@@Z 000000018000e3a0 f   mutex.obj
 0001:0000d400       ?internal_release@scoped_lock@mutex@tbb@@AEAAXXZ 000000018000e400 f   mutex.obj
 0001:0000d440       ?internal_try_acquire@scoped_lock@mutex@tbb@@AEAA_NAEAV23@@Z 000000018000e440 f   mutex.obj
 0001:0000d490       ?internal_construct@mutex@tbb@@AEAAXXZ 000000018000e490 f   mutex.obj
 0001:0000d4e0       ?internal_destroy@recursive_mutex@tbb@@AEAAXXZ 000000018000e4e0 f   recursive_mutex.obj
 0001:0000d4e0       ?internal_destroy@mutex@tbb@@AEAAXXZ 000000018000e4e0 f   mutex.obj
 0001:0000d520       ?internal_acquire@scoped_lock@recursive_mutex@tbb@@AEAAXAEAV23@@Z 000000018000e520 f   recursive_mutex.obj
 0001:0000d560       ?internal_release@scoped_lock@recursive_mutex@tbb@@AEAAXXZ 000000018000e560 f   recursive_mutex.obj
 0001:0000d590       ?internal_try_acquire@scoped_lock@recursive_mutex@tbb@@AEAA_NAEAV23@@Z 000000018000e590 f   recursive_mutex.obj
 0001:0000d5d0       ?internal_construct@recursive_mutex@tbb@@AEAAXXZ 000000018000e5d0 f   recursive_mutex.obj
 0001:0000d620       ?init_condvar_using_event@internal@tbb@@YAXPEAUcondition_variable_using_event@1interface5@2@@Z 000000018000e620 f   condition_variable.obj
 0001:0000d660       ?sleep_condition_variable_cs_using_event@internal@tbb@@YAHPEAUcondition_variable_using_event@1interface5@2@PEAU_RTL_CRITICAL_SECTION@@K@Z 000000018000e660 f   condition_variable.obj
 0001:0000d770       ?wake_condition_variable_using_event@internal@tbb@@YAXPEAUcondition_variable_using_event@1interface5@2@@Z 000000018000e770 f   condition_variable.obj
 0001:0000d7c0       ?wake_all_condition_variable_using_event@internal@tbb@@YAXPEAUcondition_variable_using_event@1interface5@2@@Z 000000018000e7c0 f   condition_variable.obj
 0001:0000d810       ?destroy_condvar_using_event@internal@tbb@@YAXPEAUcondition_variable_using_event@1interface5@2@@Z 000000018000e810 f   condition_variable.obj
 0001:0000d8b0       ?init_condvar_module@internal@tbb@@YAXXZ 000000018000e8b0 f   condition_variable.obj
 0001:0000da60       ?internal_initialize_condition_variable@internal@interface5@tbb@@YAXAEATcondvar_impl_t@123@@Z 000000018000ea60 f   condition_variable.obj
 0001:0000db00       ?internal_destroy_condition_variable@internal@interface5@tbb@@YAXAEATcondvar_impl_t@123@@Z 000000018000eb00 f   condition_variable.obj
 0001:0000db10       ?internal_condition_variable_notify_one@internal@interface5@tbb@@YAXAEATcondvar_impl_t@123@@Z 000000018000eb10 f   condition_variable.obj
 0001:0000db20       ?internal_condition_variable_notify_all@internal@interface5@tbb@@YAXAEATcondvar_impl_t@123@@Z 000000018000eb20 f   condition_variable.obj
 0001:0000db30       ?internal_condition_variable_wait@internal@interface5@tbb@@YA_NAEATcondvar_impl_t@123@PEAVmutex@3@PEBVinterval_t@tick_count@3@@Z 000000018000eb30 f   condition_variable.obj
 0001:0000dbc0       ?default_num_threads@governor@internal@tbb@@SAIXZ 000000018000ebc0 f i tbb_thread.obj
 0001:0000dc90       ?join@tbb_thread_v3@internal@tbb@@QEAAXXZ 000000018000ec90 f   tbb_thread.obj
 0001:0000dd30       ?detach@tbb_thread_v3@internal@tbb@@QEAAXXZ 000000018000ed30 f   tbb_thread.obj
 0001:0000dd80       ?internal_start@tbb_thread_v3@internal@tbb@@AEAAXP6AIPEAX@Z0@Z 000000018000ed80 f   tbb_thread.obj
 0001:0000de00       ?hardware_concurrency@tbb_thread_v3@internal@tbb@@SAIXZ 000000018000ee00 f   tbb_thread.obj
 0001:0000de10       ?thread_get_id_v3@internal@tbb@@YA?AVid@tbb_thread_v3@12@XZ 000000018000ee10 f   tbb_thread.obj
 0001:0000de30       ?move_v3@internal@tbb@@YAXAEAVtbb_thread_v3@12@0@Z 000000018000ee30 f   tbb_thread.obj
 0001:0000de90       ?yield@private_server@rml@internal@tbb@@UEAAXXZ 000000018000ee90 f   private_server.obj
 0001:0000de90       ?thread_yield_v3@internal@tbb@@YAXXZ 000000018000ee90 f   tbb_thread.obj
 0001:0000dea0       ?thread_sleep_v3@internal@tbb@@YAXAEBVinterval_t@tick_count@2@@Z 000000018000eea0 f   tbb_thread.obj
 0001:0000dfd0       ?init@thread_context@concurrent_monitor@internal@tbb@@AEAAXXZ 000000018000efd0 f   concurrent_monitor.obj
 0001:0000e000       ?prepare_wait@concurrent_monitor@internal@tbb@@QEAAXAEAVthread_context@123@_K@Z 000000018000f000 f   concurrent_monitor.obj
 0001:0000e0e0       __local_stdio_printf_options 000000018000f0e0 f i private_server.obj
 0001:0000e0f0       fprintf                    000000018000f0f0 f i private_server.obj
 0001:0000e140       ?launch@thread_monitor@internal@rml@@SAPEAXP6AIPEAX@Z0_KPEB_K@Z 000000018000f140 f i private_server.obj
 0001:0000e2f0       ?execute@empty_task@tbb@@EEAAPEAVtask@2@XZ 000000018000f2f0 f i arena.obj
 0001:0000e2f0       ?version@market@internal@tbb@@EEBAIXZ 000000018000f2f0 f i market.obj
 0001:0000e2f0       ?_Get_deleter@_Ref_count_base@std@@UEBAPEAXAEBVtype_info@@@Z 000000018000f2f0 f i libcpmt:excptptr.obj
 0001:0000e2f0       ?version@private_server@rml@internal@tbb@@UEBAIXZ 000000018000f2f0 f i private_server.obj
 0001:0000e300       ?request_close_connection@private_server@rml@internal@tbb@@UEAAX_N@Z 000000018000f300 f i private_server.obj
 0001:0000e460       ?default_concurrency@private_server@rml@internal@tbb@@UEBAIXZ 000000018000f460 f i private_server.obj
 0001:0000e470       ?thread_routine@private_worker@rml@internal@tbb@@CAIPEAX@Z 000000018000f470 f   private_server.obj
 0001:0000e4e0       ?run@private_worker@rml@internal@tbb@@AEAAXXZ 000000018000f4e0 f   private_server.obj
 0001:0000e6a0       ??0private_server@rml@internal@tbb@@QEAA@AEAVtbb_client@123@@Z 000000018000f6a0 f   private_server.obj
 0001:0000e810       ??_Eprivate_server@rml@internal@tbb@@EEAAPEAXI@Z 000000018000f810 f i * CIL library *:* CIL module *
 0001:0000e810       ??_Gprivate_server@rml@internal@tbb@@EEAAPEAXI@Z 000000018000f810 f i private_server.obj
 0001:0000e890       ?wake_some@private_server@rml@internal@tbb@@AEAAXH@Z 000000018000f890 f   private_server.obj
 0001:0000ea40       ?adjust_job_count_estimate@private_server@rml@internal@tbb@@UEAAXH@Z 000000018000fa40 f   private_server.obj
 0001:0000ea60       ??0exception@std@@QEAA@AEBV01@@Z 000000018000fa60 f i tbb_misc.obj
 0001:0000eaa0       ??1bad_cast@std@@UEAA@XZ   000000018000faa0 f i libvcruntime:rtti.obj
 0001:0000eaa0       ??1user_abort@tbb@@UEAA@XZ 000000018000faa0 f i tbb_misc.obj
 0001:0000eaa0       ??1range_error@std@@UEAA@XZ 000000018000faa0 f i tbb_misc.obj
 0001:0000eaa0       ??1bad_alloc@std@@UEAA@XZ  000000018000faa0 f i tbb_misc.obj
 0001:0000eaa0       ??1bad_typeid@std@@UEAA@XZ 000000018000faa0 f i libvcruntime:rtti.obj
 0001:0000eaa0       ??1improper_lock@tbb@@UEAA@XZ 000000018000faa0 f i tbb_misc.obj
 0001:0000eaa0       ??1missing_wait@tbb@@UEAA@XZ 000000018000faa0 f i tbb_misc.obj
 0001:0000eaa0       ??1exception@std@@UEAA@XZ  000000018000faa0 f i tbb_misc.obj
 0001:0000eaa0       ??1bad_array_new_length@std@@UEAA@XZ 000000018000faa0 f i libcpmt:xonce.obj
 0001:0000eaa0       ??1out_of_range@std@@UEAA@XZ 000000018000faa0 f i tbb_misc.obj
 0001:0000eaa0       ??1__non_rtti_object@std@@UEAA@XZ 000000018000faa0 f i libvcruntime:rtti.obj
 0001:0000eaa0       ??1invalid_argument@std@@UEAA@XZ 000000018000faa0 f i tbb_misc.obj
 0001:0000eaa0       ??1runtime_error@std@@UEAA@XZ 000000018000faa0 f i tbb_misc.obj
 0001:0000eaa0       ??1length_error@std@@UEAA@XZ 000000018000faa0 f i tbb_misc.obj
 0001:0000eaa0       ??1invalid_multiple_scheduling@tbb@@UEAA@XZ 000000018000faa0 f i tbb_misc.obj
 0001:0000eaa0       ??1bad_last_alloc@tbb@@UEAA@XZ 000000018000faa0 f i tbb_misc.obj
 0001:0000eac0       ?what@exception@std@@UEBAPEBDXZ 000000018000fac0 f i tbb_misc.obj
 0001:0000eae0       ??_Erange_error@std@@UEAAPEAXI@Z 000000018000fae0 f i * CIL library *:* CIL module *
 0001:0000eae0       ??_Gbad_last_alloc@tbb@@UEAAPEAXI@Z 000000018000fae0 f i tbb_misc.obj
 0001:0000eae0       ??_Gbad_cast@std@@UEAAPEAXI@Z 000000018000fae0 f i libvcruntime:rtti.obj
 0001:0000eae0       ??_Gbad_alloc@std@@UEAAPEAXI@Z 000000018000fae0 f i tbb_misc.obj
 0001:0000eae0       ??_Euser_abort@tbb@@UEAAPEAXI@Z 000000018000fae0 f i * CIL library *:* CIL module *
 0001:0000eae0       ??_Ebad_alloc@std@@UEAAPEAXI@Z 000000018000fae0 f i * CIL library *:* CIL module *
 0001:0000eae0       ??_Ebad_typeid@std@@UEAAPEAXI@Z 000000018000fae0 f i libvcruntime:rtti.obj
 0001:0000eae0       ??_Eout_of_range@std@@UEAAPEAXI@Z 000000018000fae0 f i * CIL library *:* CIL module *
 0001:0000eae0       ??_Gbad_array_new_length@std@@UEAAPEAXI@Z 000000018000fae0 f i libcpmt:xonce.obj
 0001:0000eae0       ??_Gimproper_lock@tbb@@UEAAPEAXI@Z 000000018000fae0 f i tbb_misc.obj
 0001:0000eae0       ??_E__non_rtti_object@std@@UEAAPEAXI@Z 000000018000fae0 f i libvcruntime:rtti.obj
 0001:0000eae0       ??_Einvalid_argument@std@@UEAAPEAXI@Z 000000018000fae0 f i * CIL library *:* CIL module *
 0001:0000eae0       ??_Ebad_array_new_length@std@@UEAAPEAXI@Z 000000018000fae0 f i libcpmt:xonce.obj
 0001:0000eae0       ??_Glength_error@std@@UEAAPEAXI@Z 000000018000fae0 f i tbb_misc.obj
 0001:0000eae0       ??_Gmissing_wait@tbb@@UEAAPEAXI@Z 000000018000fae0 f i tbb_misc.obj
 0001:0000eae0       ??_Gout_of_range@std@@UEAAPEAXI@Z 000000018000fae0 f i tbb_misc.obj
 0001:0000eae0       ??_Ginvalid_argument@std@@UEAAPEAXI@Z 000000018000fae0 f i tbb_misc.obj
 0001:0000eae0       ??_Gbad_typeid@std@@UEAAPEAXI@Z 000000018000fae0 f i libvcruntime:rtti.obj
 0001:0000eae0       ??_G__non_rtti_object@std@@UEAAPEAXI@Z 000000018000fae0 f i libvcruntime:rtti.obj
 0001:0000eae0       ??_Glogic_error@std@@UEAAPEAXI@Z 000000018000fae0 f i tbb_misc.obj
 0001:0000eae0       ??_Einvalid_multiple_scheduling@tbb@@UEAAPEAXI@Z 000000018000fae0 f i * CIL library *:* CIL module *
 0001:0000eae0       ??_Gruntime_error@std@@UEAAPEAXI@Z 000000018000fae0 f i tbb_misc.obj
 0001:0000eae0       ??_Eexception@std@@UEAAPEAXI@Z 000000018000fae0 f i * CIL library *:* CIL module *
 0001:0000eae0       ??_Grange_error@std@@UEAAPEAXI@Z 000000018000fae0 f i tbb_misc.obj
 0001:0000eae0       ??_Gexception@std@@UEAAPEAXI@Z 000000018000fae0 f i tbb_misc.obj
 0001:0000eae0       ??_Ginvalid_multiple_scheduling@tbb@@UEAAPEAXI@Z 000000018000fae0 f i tbb_misc.obj
 0001:0000eae0       ??_Eruntime_error@std@@UEAAPEAXI@Z 000000018000fae0 f i * CIL library *:* CIL module *
 0001:0000eae0       ??_Guser_abort@tbb@@UEAAPEAXI@Z 000000018000fae0 f i tbb_misc.obj
 0001:0000eae0       ??_Ebad_cast@std@@UEAAPEAXI@Z 000000018000fae0 f i libvcruntime:rtti.obj
 0001:0000eae0       ??_Elogic_error@std@@UEAAPEAXI@Z 000000018000fae0 f i * CIL library *:* CIL module *
 0001:0000eae0       ??_Ebad_last_alloc@tbb@@UEAAPEAXI@Z 000000018000fae0 f i * CIL library *:* CIL module *
 0001:0000eae0       ??_Elength_error@std@@UEAAPEAXI@Z 000000018000fae0 f i * CIL library *:* CIL module *
 0001:0000eae0       ??_Emissing_wait@tbb@@UEAAPEAXI@Z 000000018000fae0 f i * CIL library *:* CIL module *
 0001:0000eae0       ??_Eimproper_lock@tbb@@UEAAPEAXI@Z 000000018000fae0 f i * CIL library *:* CIL module *
 0001:0000eb30       ??0bad_alloc@std@@QEAA@XZ  000000018000fb30 f i tbb_misc.obj
 0001:0000eb60       ??0bad_alloc@std@@QEAA@AEBV01@@Z 000000018000fb60 f i tbb_misc.obj
 0001:0000eba0       _snprintf                  000000018000fba0 f i tbb_misc.obj
 0001:0000ec00       ?set_assertion_handler@tbb@@YAP6AXPEBDH00@ZP6AX0H00@Z@Z 000000018000fc00 f   tbb_misc.obj
 0001:0000ec10       ?assertion_failure@tbb@@YAXPEBDH00@Z 000000018000fc10 f   tbb_misc.obj
 0001:0000ecc0       ?runtime_warning@internal@tbb@@YAXPEBDZZ 000000018000fcc0 f   tbb_misc.obj
 0001:0000ed80       ??0invalid_argument@std@@QEAA@PEBD@Z 000000018000fd80 f i tbb_misc.obj
 0001:0000edd0       ??0length_error@std@@QEAA@PEBD@Z 000000018000fdd0 f i tbb_misc.obj
 0001:0000ee20       ??0out_of_range@std@@QEAA@PEBD@Z 000000018000fe20 f i tbb_misc.obj
 0001:0000ee70       ??0runtime_error@std@@QEAA@PEBD@Z 000000018000fe70 f i tbb_misc.obj
 0001:0000eec0       ??0range_error@std@@QEAA@PEBD@Z 000000018000fec0 f i tbb_misc.obj
 0001:0000ef10       ??0range_error@std@@QEAA@AEBV01@@Z 000000018000ff10 f i tbb_misc.obj
 0001:0000ef50       ??0runtime_error@std@@QEAA@AEBV01@@Z 000000018000ff50 f i tbb_misc.obj
 0001:0000ef90       ?what@bad_last_alloc@tbb@@UEBAPEBDXZ 000000018000ff90 f   tbb_misc.obj
 0001:0000efa0       ?what@improper_lock@tbb@@UEBAPEBDXZ 000000018000ffa0 f   tbb_misc.obj
 0001:0000efb0       ?what@user_abort@tbb@@UEBAPEBDXZ 000000018000ffb0 f   tbb_misc.obj
 0001:0000efc0       ?what@invalid_multiple_scheduling@tbb@@UEBAPEBDXZ 000000018000ffc0 f   tbb_misc.obj
 0001:0000efd0       ?what@missing_wait@tbb@@UEBAPEBDXZ 000000018000ffd0 f   tbb_misc.obj
 0001:0000efe0       ?handle_perror@internal@tbb@@YAXHPEBD@Z 000000018000ffe0 f   tbb_misc.obj
 0001:0000f050       ?handle_win_error@internal@tbb@@YAXH@Z 0000000180010050 f   tbb_misc.obj
 0001:0000f0c0       ?throw_bad_last_alloc_exception_v4@internal@tbb@@YAXXZ 00000001800100c0 f   tbb_misc.obj
 0001:0000f0f0       ?throw_exception_v4@internal@tbb@@YAXW4exception_id@12@@Z 00000001800100f0 f   tbb_misc.obj
 0001:0000f420       ??0bad_last_alloc@tbb@@QEAA@XZ 0000000180010420 f i tbb_misc.obj
 0001:0000f450       ??0missing_wait@tbb@@QEAA@XZ 0000000180010450 f i tbb_misc.obj
 0001:0000f470       ??0invalid_multiple_scheduling@tbb@@QEAA@XZ 0000000180010470 f i tbb_misc.obj
 0001:0000f490       ??0improper_lock@tbb@@QEAA@XZ 0000000180010490 f i tbb_misc.obj
 0001:0000f4b0       ??0user_abort@tbb@@QEAA@XZ 00000001800104b0 f i tbb_misc.obj
 0001:0000f4d0       ??0bad_last_alloc@tbb@@QEAA@AEBV01@@Z 00000001800104d0 f i tbb_misc.obj
 0001:0000f510       ??0invalid_argument@std@@QEAA@AEBV01@@Z 0000000180010510 f i tbb_misc.obj
 0001:0000f550       ??0logic_error@std@@QEAA@AEBV01@@Z 0000000180010550 f i tbb_misc.obj
 0001:0000f590       ??0out_of_range@std@@QEAA@AEBV01@@Z 0000000180010590 f i tbb_misc.obj
 0001:0000f5d0       ??0missing_wait@tbb@@QEAA@AEBV01@@Z 00000001800105d0 f i tbb_misc.obj
 0001:0000f610       ??0invalid_multiple_scheduling@tbb@@QEAA@AEBV01@@Z 0000000180010610 f i tbb_misc.obj
 0001:0000f650       ??0improper_lock@tbb@@QEAA@AEBV01@@Z 0000000180010650 f i tbb_misc.obj
 0001:0000f690       ??0length_error@std@@QEAA@AEBV01@@Z 0000000180010690 f i tbb_misc.obj
 0001:0000f6d0       ??0user_abort@tbb@@QEAA@AEBV01@@Z 00000001800106d0 f i tbb_misc.obj
 0001:0000f710       ?PrintExtraVersionInfo@internal@tbb@@YAXPEBD0ZZ 0000000180010710 f   tbb_misc.obj
 0001:0000f7e0       ?PrintRMLVersionInfo@internal@tbb@@YAXPEAXPEBD@Z 00000001800107e0 f   tbb_misc.obj
 0001:0000f7f0       TBB_runtime_interface_version 00000001800107f0 f   tbb_misc.obj
 0001:0000fb50       ?allocate@allocate_root_proxy@internal@tbb@@SAAEAVtask@3@_K@Z 0000000180010b50 f   task.obj
 0001:0000fbd0       ?free@allocate_root_proxy@internal@tbb@@SAXAEAVtask@3@@Z 0000000180010bd0 f   task.obj
 0001:0000fc40       ?allocate@allocate_root_with_context_proxy@internal@tbb@@QEBAAEAVtask@3@_K@Z 0000000180010c40 f   task.obj
 0001:0000fd40       ?free@allocate_child_proxy@internal@tbb@@QEBAXAEAVtask@3@@Z 0000000180010d40 f   task.obj
 0001:0000fd40       ?free@allocate_root_with_context_proxy@internal@tbb@@QEBAXAEAVtask@3@@Z 0000000180010d40 f   task.obj
 0001:0000fdb0       ?allocate@allocate_continuation_proxy@internal@tbb@@QEBAAEAVtask@3@_K@Z 0000000180010db0 f   task.obj
 0001:0000fe10       ?free@allocate_continuation_proxy@internal@tbb@@QEBAXAEAVtask@3@@Z 0000000180010e10 f   task.obj
 0001:0000fe90       ?allocate@allocate_child_proxy@internal@tbb@@QEBAAEAVtask@3@_K@Z 0000000180010e90 f   task.obj
 0001:0000fef0       ?allocate@allocate_additional_child_of_proxy@internal@tbb@@QEBAAEAVtask@3@_K@Z 0000000180010ef0 f   task.obj
 0001:0000ff60       ?free@allocate_additional_child_of_proxy@internal@tbb@@QEBAXAEAVtask@3@@Z 0000000180010f60 f   task.obj
 0001:00010020       ?get_initial_auto_partitioner_divisor@internal@tbb@@YA_KXZ 0000000180011020 f   task.obj
 0001:00010070       ?resize@affinity_partitioner_base_v3@internal@tbb@@AEAAXI@Z 0000000180011070 f   task.obj
 0001:00010180       ?internal_set_ref_count@task@tbb@@AEAAXH@Z 0000000180011180 f   task.obj
 0001:000101c0       ?internal_decrement_ref_count@task@tbb@@AEAA_JXZ 00000001800111c0 f   task.obj
 0001:00010220       ?self@task@tbb@@SAAEAV12@XZ 0000000180011220 f   task.obj
 0001:00010260       ?is_owned_by_current_thread@task@tbb@@QEBA_NXZ 0000000180011260 f   task.obj
 0001:00010260       __acrt_uninitialize_command_line 0000000180011260 f   libucrt:argv_data.obj
 0001:00010270       ?destroy@task_base@internal@interface5@tbb@@SAXAEAVtask@4@@Z 0000000180011270 f   task.obj
 0001:000103e0       ?spawn_and_wait_for_all@task@tbb@@QEAAXAEAVtask_list@2@@Z 00000001800113e0 f   task.obj
 0001:00010480       ?change_group@task@tbb@@QEAAXAEAVtask_group_context@2@@Z 0000000180011480 f   task.obj
 0001:00010550       ??1exception_ptr@std@@QEAA@XZ 0000000180011550 f i task_group_context.obj
 0001:00010560       ??0exception_ptr@std@@QEAA@AEBV01@@Z 0000000180011560 f i task_group_context.obj
 0001:00010580       ??0captured_exception@tbb@@QEAA@AEBV01@@Z 0000000180011580 f i task_group_context.obj
 0001:000105f0       ?throw_self@captured_exception@tbb@@UEAAXXZ 00000001800115f0 f i task_group_context.obj
 0001:00010620       ??_Gcaptured_exception@tbb@@UEAAPEAXI@Z 0000000180011620 f i task_group_context.obj
 0001:00010620       ??_Ecaptured_exception@tbb@@UEAAPEAXI@Z 0000000180011620 f i * CIL library *:* CIL module *
 0001:000106b0       ??0tbb_exception@tbb@@QEAA@AEBV01@@Z 00000001800116b0 f i task_group_context.obj
 0001:000106f0       ??_Gtbb_exception@tbb@@UEAAPEAXI@Z 00000001800116f0 f i task_group_context.obj
 0001:000106f0       ??_Etbb_exception@tbb@@UEAAPEAXI@Z 00000001800116f0 f i * CIL library *:* CIL module *
 0001:00010760       ?lock@spin_mutex@tbb@@QEAAXXZ 0000000180011760 f i task_group_context.obj
 0001:000107c0       ?duplicate_string@tbb@@YAPEADPEBD@Z 00000001800117c0 f i task_group_context.obj
 0001:00010830       ??1captured_exception@tbb@@UEAA@XZ 0000000180011830 f   task_group_context.obj
 0001:00010880       ?set@captured_exception@tbb@@QEAAXPEBD0@Z 0000000180011880 f   task_group_context.obj
 0001:000108c0       ?clear@captured_exception@tbb@@QEAAXXZ 00000001800118c0 f   task_group_context.obj
 0001:00010900       ?move@captured_exception@tbb@@UEAAPEAV12@XZ 0000000180011900 f   task_group_context.obj
 0001:00010980       ?destroy@captured_exception@tbb@@UEAAXXZ 0000000180011980 f   task_group_context.obj
 0001:000109e0       ?name@captured_exception@tbb@@UEBAPEBDXZ 00000001800119e0 f   task_group_context.obj
 0001:000109f0       ?what@captured_exception@tbb@@UEBAPEBDXZ 00000001800119f0 f   task_group_context.obj
 0001:00010a00       ?allocate@tbb_exception_ptr@internal@tbb@@SAPEAV123@AEAVcaptured_exception@3@@Z 0000000180011a00 f   task_group_context.obj
 0001:00010b30       ??1task_group_context@tbb@@QEAA@XZ 0000000180011b30 f   task_group_context.obj
 0001:00010e20       ?init@task_group_context@tbb@@IEAAXXZ 0000000180011e20 f   task_group_context.obj
 0001:00010fd0       ?register_with@task_group_context@tbb@@QEAAXPEAVgeneric_scheduler@internal@2@@Z 0000000180011fd0 f   task_group_context.obj
 0001:00011100       ?bind_to@task_group_context@tbb@@QEAAXPEAVgeneric_scheduler@internal@2@@Z 0000000180012100 f   task_group_context.obj
 0001:00011260       ?cancel_group_execution@task_group_context@tbb@@QEAA_NXZ 0000000180012260 f   task_group_context.obj
 0001:000113b0       ?is_group_execution_cancelled@task_group_context@tbb@@QEBA_NXZ 00000001800123b0 f   task_group_context.obj
 0001:000113c0       ?reset@task_group_context@tbb@@QEAAXXZ 00000001800123c0 f   task_group_context.obj
 0001:00011420       ?capture_fp_settings@task_group_context@tbb@@QEAAXXZ 0000000180012420 f   task_group_context.obj
 0001:00011460       ?register_pending_exception@task_group_context@tbb@@QEAAXXZ 0000000180012460 f   task_group_context.obj
 0001:00011490       ?set_priority@task_group_context@tbb@@QEAAXW4priority_t@2@@Z 0000000180012490 f   task_group_context.obj
 0001:00011630       ?priority@task_group_context@tbb@@QEBA?AW4priority_t@2@XZ 0000000180012630 f   task_group_context.obj
 0001:00011650       ??$propagate_task_group_state@_K@generic_scheduler@internal@tbb@@QEAAXPEQtask_group_context@2@_KAEAV32@_K@Z 0000000180012650 f i task_group_context.obj
 0001:00011750       ??$propagate_task_group_state@_J@generic_scheduler@internal@tbb@@QEAAXPEQtask_group_context@2@_JAEAV32@_J@Z 0000000180012750 f i task_group_context.obj
 0001:00011860       ?initialize_cilk_interop@internal@tbb@@YA_NXZ 0000000180012860 f   governor.obj
 0001:00011890       ?sign_on@governor@internal@tbb@@SAXPEAVgeneric_scheduler@23@@Z 0000000180012890 f   governor.obj
 0001:00011910       ?one_time_init@governor@internal@tbb@@SAXXZ 0000000180012910 f   governor.obj
 0001:000119d0       ?init_scheduler@governor@internal@tbb@@SAPEAVgeneric_scheduler@23@H_K_N@Z 00000001800129d0 f   governor.obj
 0001:00011b10       ?auto_terminate@governor@internal@tbb@@CAXPEAX@Z 0000000180012b10 f   governor.obj
 0001:00011ba0       ?stack_op_handler@governor@internal@tbb@@SAHW4__cilk_tbb_stack_op@@PEAX@Z 0000000180012ba0 f   governor.obj
 0001:00011c30       ?initialization_impl@numa_topology@internal@tbb@@YAXXZ 0000000180012c30 f   governor.obj
 0001:00011ea0       ?initialize@numa_topology@internal@tbb@@YAXXZ 0000000180012ea0 f   governor.obj
 0001:00011f50       ?nodes_count@numa_topology@internal@tbb@@YAIXZ 0000000180012f50 f   governor.obj
 0001:00011f70       ?fill@numa_topology@internal@tbb@@YAXPEAH@Z 0000000180012f70 f   governor.obj
 0001:00011fc0       ?default_concurrency@numa_topology@internal@tbb@@YAHH@Z 0000000180012fc0 f   governor.obj
 0001:00011ff0       ?initialize@task_scheduler_init@tbb@@QEAAXH@Z 0000000180012ff0 f   governor.obj
 0001:00012000       ?initialize@task_scheduler_init@tbb@@QEAAXH_K@Z 0000000180013000 f   governor.obj
 0001:000122d0       ?internal_terminate@task_scheduler_init@tbb@@AEAA_N_N@Z 00000001800132d0 f   governor.obj
 0001:00012410       ?terminate@task_scheduler_init@tbb@@QEAAXXZ 0000000180013410 f   governor.obj
 0001:00012420       ?internal_blocking_terminate@task_scheduler_init@tbb@@AEAA_N_N@Z 0000000180013420 f   governor.obj
 0001:00012460       ?default_num_threads@task_scheduler_init@tbb@@SAHXZ 0000000180013460 f   governor.obj
 0001:00012470       ??1scoped_lock@spin_rw_mutex_v3@tbb@@QEAA@XZ 0000000180013470 f i market.obj
 0001:000124a0       ?raw_length@pairNode@@UEBAHXZ 00000001800134a0 f i libvcruntime:undname.obj
 0001:000124a0       ?max_job_count@market@internal@tbb@@EEBAIXZ 00000001800134a0 f i market.obj
 0001:000124b0       ?min_stack_size@market@internal@tbb@@EEBA_KXZ 00000001800134b0 f i market.obj
 0001:000124c0       ?policy@market@internal@tbb@@EEBA?AW4policy_type@client@rml@@XZ 00000001800134c0 f i market.obj
 0001:000124c0       ?length@charNode@@UEBAHXZ  00000001800134c0 f i libvcruntime:undname.obj
 0001:000124c0       ?raw_length@charNode@@UEBAHXZ 00000001800134c0 f i libvcruntime:undname.obj
 0001:000124c0       _get_startup_argv_mode     00000001800134c0 f i LIBCMT:argv_mode.obj
 0001:000124d0       ?global_market@market@internal@tbb@@CAAEAV123@_NI_K@Z 00000001800134d0 f   market.obj
 0001:00012870       ?release@market@internal@tbb@@QEAA_N_N0@Z 0000000180013870 f   market.obj
 0001:000129f0       ?set_active_num_workers@market@internal@tbb@@SAXI@Z 00000001800139f0 f   market.obj
 0001:00012c70       ?create_arena@market@internal@tbb@@SAPEAVarena@23@HH_K@Z 0000000180013c70 f   market.obj
 0001:00012dd0       ?try_destroy_arena@market@internal@tbb@@QEAAXPEAVarena@23@_K@Z 0000000180013dd0 f   market.obj
 0001:00012f30       ?arena_in_need@market@internal@tbb@@AEAAPEAVarena@23@PEAV423@@Z 0000000180013f30 f   market.obj
 0001:00013090       ?update_allotment@market@internal@tbb@@AEAAX_J@Z 0000000180014090 f   market.obj
 0001:000131e0       ?enable_mandatory_concurrency@market@internal@tbb@@QEAAXPEAVarena@23@@Z 00000001800141e0 f   market.obj
 0001:000132e0       ?mandatory_concurrency_disable@market@internal@tbb@@QEAAXPEAVarena@23@@Z 00000001800142e0 f   market.obj
 0001:00013400       ?adjust_demand@market@internal@tbb@@QEAAXAEAVarena@23@H@Z 0000000180014400 f   market.obj
 0001:000136c0       ?process@market@internal@tbb@@EEAAXAEAVjob@rml@@@Z 00000001800146c0 f   market.obj
 0001:00013750       ?cleanup@market@internal@tbb@@EEAAXAEAVjob@rml@@@Z 0000000180014750 f   market.obj
 0001:00013850       ?acknowledge_close_connection@market@internal@tbb@@EEAAXXZ 0000000180014850 f   market.obj
 0001:00013870       ?create_one_job@market@internal@tbb@@EEAAPEAVjob@rml@@XZ 0000000180014870 f   market.obj
 0001:00013920       ?update_arena_top_priority@market@internal@tbb@@AEAAXAEAVarena@23@_J@Z 0000000180014920 f   market.obj
 0001:00013a30       ?update_arena_priority@market@internal@tbb@@QEAA_NAEAVarena@23@_J@Z 0000000180014a30 f   market.obj
 0001:00013c10       ?rethrow_exception@std@@YAXVexception_ptr@1@@Z 0000000180014c10 f i arena.obj
 0001:00013c20       ?throw_self@tbb_exception_ptr@internal@tbb@@QEAAXXZ 0000000180014c20 f i arena.obj
 0001:00013c40       ??_Etask_scheduler_observer_v3@internal@tbb@@UEAAPEAXI@Z 0000000180014c40 f i * CIL library *:* CIL module *
 0001:00013c40       ??_Gtask_scheduler_observer_v3@internal@tbb@@UEAAPEAXI@Z 0000000180014c40 f i arena.obj
 0001:00013c90       ??1task_scheduler_observer@interface6@tbb@@UEAA@XZ 0000000180014c90 f i arena.obj
 0001:00013ce0       ??_Etask_scheduler_observer@interface6@tbb@@UEAAPEAXI@Z 0000000180014ce0 f i * CIL library *:* CIL module *
 0001:00013ce0       ??_Gtask_scheduler_observer@interface6@tbb@@UEAAPEAXI@Z 0000000180014ce0 f i arena.obj
 0001:00013d50       ?notify_entry_observers@observer_list@internal@tbb@@QEAAXAEAPEAVobserver_proxy@23@_N@Z 0000000180014d50 f i arena.obj
 0001:00013ee0       ?notify_exit_observers@observer_list@internal@tbb@@QEAAXAEAPEAVobserver_proxy@23@_N@Z 0000000180014ee0 f i arena.obj
 0001:00014060       ?notify_one@concurrent_monitor@internal@tbb@@QEAAXXZ 0000000180015060 f i arena.obj
 0001:00014130       ?on_scheduler_entry@numa_binding_observer@internal@tbb@@UEAAX_N@Z 0000000180015130 f i arena.obj
 0001:00014180       ?on_scheduler_exit@numa_binding_observer@internal@tbb@@UEAAX_N@Z 0000000180015180 f i arena.obj
 0001:000141c0       ??_Enuma_binding_observer@internal@tbb@@UEAAPEAXI@Z 00000001800151c0 f i * CIL library *:* CIL module *
 0001:000141c0       ??_Gnuma_binding_observer@internal@tbb@@UEAAPEAXI@Z 00000001800151c0 f i arena.obj
 0001:00014240       ?occupy_free_slot_in_range@arena@internal@tbb@@QEAA_KAEAVgeneric_scheduler@23@_K1@Z 0000000180015240 f   arena.obj
 0001:00014330       ?process@arena@internal@tbb@@QEAAXAEAVgeneric_scheduler@23@@Z 0000000180015330 f   arena.obj
 0001:00014550       ??0arena@internal@tbb@@QEAA@AEAVmarket@12@II@Z 0000000180015550 f   arena.obj
 0001:000147a0       ??1?$padded@Uarena_base@internal@tbb@@$0IA@@internal@tbb@@QEAA@XZ 00000001800157a0 f i arena.obj
 0001:000147d0       ?free_arena@arena@internal@tbb@@QEAAXXZ 00000001800157d0 f   arena.obj
 0001:00014a30       ?is_out_of_work@arena@internal@tbb@@QEAA_NXZ 0000000180015a30 f   arena.obj
 0001:00014ee0       ?enqueue_task@arena@internal@tbb@@QEAAXAEAVtask@3@_JAEAVFastRandom@23@@Z 0000000180015ee0 f   arena.obj
 0001:00014fd0       ??0nested_arena_context@internal@tbb@@QEAA@PEAVgeneric_scheduler@12@PEAVarena@12@_K_N3@Z 0000000180015fd0 f i arena.obj
 0001:00015220       ??1nested_arena_context@internal@tbb@@QEAA@XZ 0000000180016220 f i arena.obj
 0001:000153b0       ??0auto_empty_task@internal@tbb@@QEAA@PEAVgeneric_scheduler@12@PEAVtask_group_context@2@@Z 00000001800163b0 f i arena.obj
 0001:000154b0       ??1auto_empty_task@internal@tbb@@QEAA@XZ 00000001800164b0 f i arena.obj
 0001:000154d0       ?internal_initialize@task_arena_base@internal@interface7@tbb@@IEAAXXZ 00000001800164d0 f   arena.obj
 0001:00015770       ?internal_terminate@task_arena_base@internal@interface7@tbb@@IEAAXXZ 0000000180016770 f   arena.obj
 0001:00015890       ?internal_attach@task_arena_base@internal@interface7@tbb@@IEAAXXZ 0000000180016890 f   arena.obj
 0001:00015910       ?internal_enqueue@task_arena_base@internal@interface7@tbb@@IEBAXAEAVtask@4@_J@Z 0000000180016910 f   arena.obj
 0001:00015980       ?execute@delegated_task@internal@interface7@tbb@@EEAAPEAVtask@4@XZ 0000000180016980 f i arena.obj
 0001:00015a20       ??1outermost_context@?1??execute@delegated_task@internal@interface7@tbb@@EEAAPEAVtask@5@XZ@QEAA@XZ 0000000180016a20 f i arena.obj
 0001:00015a50       ??_Edelegated_task@internal@interface7@tbb@@EEAAPEAXI@Z 0000000180016a50 f i * CIL library *:* CIL module *
 0001:00015a50       ??_Gdelegated_task@internal@interface7@tbb@@EEAAPEAXI@Z 0000000180016a50 f i arena.obj
 0001:00015be0       ?internal_execute@task_arena_base@internal@interface7@tbb@@IEBAXAEAVdelegate_base@234@@Z 0000000180016be0 f   arena.obj
 0001:000162a0       ?execute@wait_task@internal@interface7@tbb@@EEAAPEAVtask@4@XZ 00000001800172a0 f i arena.obj
 0001:00016310       ??_G?$function_task@Vspawn_functor@graph@interface10@flow@tbb@@@internal@tbb@@UEAAPEAXI@Z 0000000180017310 f i arena.obj
 0001:00016310       ??_E?$function_task@Vspawn_functor@graph@interface10@flow@tbb@@@internal@tbb@@UEAAPEAXI@Z 0000000180017310 f i * CIL library *:* CIL module *
 0001:00016310       ??_Ewait_task@internal@interface7@tbb@@UEAAPEAXI@Z 0000000180017310 f i * CIL library *:* CIL module *
 0001:00016310       ??_Gwait_task@internal@interface7@tbb@@UEAAPEAXI@Z 0000000180017310 f i arena.obj
 0001:00016340       ?internal_wait@task_arena_base@internal@interface7@tbb@@IEBAXXZ 0000000180017340 f   arena.obj
 0001:000165f0       ?internal_current_slot@task_arena_base@internal@interface7@tbb@@KAHXZ 00000001800175f0 f   arena.obj
 0001:00016620       ??1isolation_guard@internal@interface7@tbb@@QEAA@XZ 0000000180017620 f i arena.obj
 0001:00016630       ?isolate_within_arena@internal@interface7@tbb@@YAXAEAVdelegate_base@123@_J@Z 0000000180017630 f   arena.obj
 0001:000166c0       ?internal_max_concurrency@task_arena_base@internal@interface7@tbb@@KAHPEBVtask_arena@34@@Z 00000001800176c0 f   arena.obj
 0001:00016710       ?restore_default@?$context_guard_helper@$0A@@internal@tbb@@QEAAXXZ 0000000180017710 f i arena.obj
 0001:00016710       ?restore_default@?$context_guard_helper@$00@internal@tbb@@QEAAXXZ 0000000180017710 f i scheduler.obj
 0001:00016750       ??1?$context_guard_helper@$0A@@internal@tbb@@QEAA@XZ 0000000180017750 f i arena.obj
 0001:00016770       ?execute@?$function_task@Vspawn_functor@graph@interface10@flow@tbb@@@internal@tbb@@EEAAPEAVtask@3@XZ 0000000180017770 f i arena.obj
 0001:00016790       ?push@?$task_stream@$02@internal@tbb@@QEAAXPEAVtask@3@HAEAVFastRandom@23@@Z 0000000180017790 f i arena.obj
 0001:000168f0       ??1?$task_stream@$02@internal@tbb@@QEAA@XZ 00000001800178f0 f i arena.obj
 0001:00016960       ??0?$padded@U?$queue_and_mutex@PEAVtask@tbb@@Vspin_mutex@2@@internal@tbb@@$0IA@@internal@tbb@@QEAA@XZ 0000000180017960 f i arena.obj
 0001:000169d0       ??1?$padded@U?$queue_and_mutex@PEAVtask@tbb@@Vspin_mutex@2@@internal@tbb@@$0IA@@internal@tbb@@QEAA@XZ 00000001800179d0 f i arena.obj
 0001:000169e0       ??1?$deque@PEAVtask@tbb@@V?$tbb_allocator@PEAVtask@tbb@@@2@@std@@QEAA@XZ 00000001800179e0 f i arena.obj
 0001:00016a80       ??$advertise_new_work@$01@arena@internal@tbb@@QEAAXXZ 0000000180017a80 f i arena.obj
 0001:00016b50       ??$on_thread_leaving@$00@arena@internal@tbb@@QEAAXXZ 0000000180017b50 f i arena.obj
 0001:00016be0       ??$occupy_free_slot@$0A@@arena@internal@tbb@@QEAA_KAEAVgeneric_scheduler@12@@Z 0000000180017be0 f i arena.obj
 0001:00016ca0       ?_Growmap@?$deque@PEAVtask@tbb@@V?$tbb_allocator@PEAVtask@tbb@@@2@@std@@AEAAX_K@Z 0000000180017ca0 f i arena.obj
 0001:00016e00       ?_Xlen@?$deque@PEAVtask@tbb@@V?$tbb_allocator@PEAVtask@tbb@@@2@@std@@AEBAXXZ 0000000180017e00 f i arena.obj
 0001:00016e20       ??1scheduler@internal@tbb@@UEAA@XZ 0000000180017e20 f   scheduler.obj
 0001:00016e30       ??0generic_scheduler@internal@tbb@@IEAA@AEAVmarket@12@_N@Z 0000000180017e30 f   scheduler.obj
 0001:00017020       ??_G?$custom_scheduler@UDefaultSchedulerTraits@internal@tbb@@@internal@tbb@@UEAAPEAXI@Z 0000000180018020 f i scheduler.obj
 0001:00017020       ??_Ggeneric_scheduler@internal@tbb@@UEAAPEAXI@Z 0000000180018020 f i scheduler.obj
 0001:00017020       ??_Egeneric_scheduler@internal@tbb@@UEAAPEAXI@Z 0000000180018020 f i * CIL library *:* CIL module *
 0001:00017020       ??_E?$custom_scheduler@UIntelSchedulerTraits@internal@tbb@@@internal@tbb@@UEAAPEAXI@Z 0000000180018020 f i * CIL library *:* CIL module *
 0001:00017020       ??_E?$custom_scheduler@UDefaultSchedulerTraits@internal@tbb@@@internal@tbb@@UEAAPEAXI@Z 0000000180018020 f i * CIL library *:* CIL module *
 0001:00017020       ??_G?$custom_scheduler@UIntelSchedulerTraits@internal@tbb@@@internal@tbb@@UEAAPEAXI@Z 0000000180018020 f i scheduler.obj
 0001:00017050       ?cleanup_scheduler@generic_scheduler@internal@tbb@@QEAAXXZ 0000000180018050 f   scheduler.obj
 0001:00017250       ?allocate_task@generic_scheduler@internal@tbb@@QEAAAEAVtask@3@_KPEAV43@PEAVtask_group_context@3@@Z 0000000180018250 f   scheduler.obj
 0001:00017390       ?prepare_task_pool@generic_scheduler@internal@tbb@@QEAA_K_K@Z 0000000180018390 f i scheduler.obj
 0001:000176a0       ?acquire_task_pool@generic_scheduler@internal@tbb@@QEBAXXZ 00000001800186a0 f i scheduler.obj
 0001:00017760       ?prepare_for_spawning@generic_scheduler@internal@tbb@@QEAAPEAVtask@3@PEAV43@@Z 0000000180018760 f i scheduler.obj
 0001:000178e0       ?local_spawn@generic_scheduler@internal@tbb@@QEAAXPEAVtask@3@AEAPEAV43@@Z 00000001800188e0 f   scheduler.obj
 0001:00017c00       ?spawn@generic_scheduler@internal@tbb@@UEAAXAEAVtask@3@AEAPEAV43@@Z 0000000180018c00 f   scheduler.obj
 0001:00017c50       ?spawn_root_and_wait@generic_scheduler@internal@tbb@@UEAAXAEAVtask@3@AEAPEAV43@@Z 0000000180018c50 f   scheduler.obj
 0001:00017d30       ?enqueue@generic_scheduler@internal@tbb@@UEAAXAEAVtask@3@PEAX@Z 0000000180018d30 f   scheduler.obj
 0001:00017d90       ??1auto_indicator@internal@tbb@@QEAA@XZ 0000000180018d90 f i scheduler.obj
 0001:00017da0       ?get_task_and_activate_task_pool@generic_scheduler@internal@tbb@@QEAAPEAVtask@3@_K0_J@Z 0000000180018da0 f   scheduler.obj
 0001:00017f90       ?winnow_task_pool@generic_scheduler@internal@tbb@@QEAAPEAVtask@3@_J@Z 0000000180018f90 f   scheduler.obj
 0001:00018060       ?reload_tasks@generic_scheduler@internal@tbb@@QEAAPEAVtask@3@AEAPEAV43@AEAPEAPEAV43@_J2@Z 0000000180019060 f   scheduler.obj
 0001:00018370       ?reload_tasks@generic_scheduler@internal@tbb@@QEAAPEAVtask@3@_J@Z 0000000180019370 f   scheduler.obj
 0001:000184b0       ?get_task@generic_scheduler@internal@tbb@@QEAAPEAVtask@3@_J@Z 00000001800194b0 f i scheduler.obj
 0001:000187b0       ?steal_task@generic_scheduler@internal@tbb@@QEAAPEAVtask@3@_J@Z 00000001800197b0 f   scheduler.obj
 0001:000188a0       ?steal_task_from@generic_scheduler@internal@tbb@@QEAAPEAVtask@3@AEAUarena_slot@23@_J@Z 00000001800198a0 f   scheduler.obj
 0001:00018a90       ?get_mailbox_task@generic_scheduler@internal@tbb@@QEAAPEAVtask@3@_J@Z 0000000180019a90 f   scheduler.obj
 0001:00018bc0       ?create_master@generic_scheduler@internal@tbb@@SAPEAV123@PEAVarena@23@@Z 0000000180019bc0 f   scheduler.obj
 0001:00018e00       ?cleanup_master@generic_scheduler@internal@tbb@@QEAA_N_N@Z 0000000180019e00 f   scheduler.obj
 0001:00019090       ??1?$fast_reverse_vector@PEAVtask@tbb@@$0BA@@internal@tbb@@QEAA@XZ 000000018001a090 f i scheduler.obj
 0001:000190e0       ?allocate_scheduler@?$custom_scheduler@UIntelSchedulerTraits@internal@tbb@@@internal@tbb@@SAPEAVgeneric_scheduler@23@AEAVmarket@23@_N@Z 000000018001a0e0 f i scheduler.obj
 0001:00019170       ?wait_for_all@?$custom_scheduler@UIntelSchedulerTraits@internal@tbb@@@internal@tbb@@EEAAXAEAVtask@3@PEAV43@@Z 000000018001a170 f i scheduler.obj
 0001:000191c0       ?allocate_scheduler@?$custom_scheduler@UDefaultSchedulerTraits@internal@tbb@@@internal@tbb@@SAPEAVgeneric_scheduler@23@AEAVmarket@23@_N@Z 000000018001a1c0 f i scheduler.obj
 0001:00019250       ?wait_for_all@?$custom_scheduler@UDefaultSchedulerTraits@internal@tbb@@@internal@tbb@@EEAAXAEAVtask@3@PEAV43@@Z 000000018001a250 f i scheduler.obj
 0001:000192a0       ?local_wait_for_all@?$custom_scheduler@UDefaultSchedulerTraits@internal@tbb@@@internal@tbb@@EEAAXAEAVtask@3@PEAV43@@Z 000000018001a2a0 f i scheduler.obj
 0001:00019710       ?receive_or_steal_task@?$custom_scheduler@UDefaultSchedulerTraits@internal@tbb@@@internal@tbb@@UEAAPEAVtask@3@AEA_J_J@Z 000000018001a710 f i scheduler.obj
 0001:00019c10       ?local_wait_for_all@?$custom_scheduler@UIntelSchedulerTraits@internal@tbb@@@internal@tbb@@EEAAXAEAVtask@3@PEAV43@@Z 000000018001ac10 f i scheduler.obj
 0001:00019f50       ?receive_or_steal_task@?$custom_scheduler@UIntelSchedulerTraits@internal@tbb@@@internal@tbb@@UEAAPEAVtask@3@AEA_J_J@Z 000000018001af50 f i scheduler.obj
 0001:0001a3b0       ??$free_task@$05@generic_scheduler@internal@tbb@@QEAAXAEAVtask@2@@Z 000000018001b3b0 f i scheduler.obj
 0001:0001a3b0       ??$free_task@$01@generic_scheduler@internal@tbb@@QEAAXAEAVtask@2@@Z 000000018001b3b0 f i scheduler.obj
 0001:0001a3b0       ??$free_task@$0A@@generic_scheduler@internal@tbb@@QEAAXAEAVtask@2@@Z 000000018001b3b0 f i scheduler.obj
 0001:0001a4b0       ??$advertise_new_work@$0A@@arena@internal@tbb@@QEAAXXZ 000000018001b4b0 f i scheduler.obj
 0001:0001a550       ??1?$context_guard_helper@$00@internal@tbb@@QEAA@XZ 000000018001b550 f i scheduler.obj
 0001:0001a5c0       ?pop@?$task_stream@$02@internal@tbb@@QEAAPEAVtask@3@HAEAI@Z 000000018001b5c0 f i scheduler.obj
 0001:0001a6e0       ?process_bypass_loop@?$custom_scheduler@UDefaultSchedulerTraits@internal@tbb@@@internal@tbb@@AEAA_NAEAV?$context_guard_helper@$00@23@PEAVtask@3@_J@Z 000000018001b6e0 f i scheduler.obj
 0001:0001aa20       ?process_bypass_loop@?$custom_scheduler@UIntelSchedulerTraits@internal@tbb@@@internal@tbb@@AEAA_NAEAV?$context_guard_helper@$0A@@23@PEAVtask@3@_J@Z 000000018001ba20 f i scheduler.obj
 0001:0001acd0       ?tally_completion_of_predecessor@?$custom_scheduler@UIntelSchedulerTraits@internal@tbb@@@internal@tbb@@AEAAXAEAVtask@3@AEAPEAV43@_J@Z 000000018001bcd0 f i scheduler.obj
 0001:0001adf0       ?tally_completion_of_predecessor@?$custom_scheduler@UDefaultSchedulerTraits@internal@tbb@@@internal@tbb@@AEAAXAEAVtask@3@AEAPEAV43@_J@Z 000000018001bdf0 f i scheduler.obj
 0001:0001af30       ?insert@observer_list@internal@tbb@@QEAAXPEAVobserver_proxy@23@@Z 000000018001bf30 f   observer_proxy.obj
 0001:0001afc0       ?remove_ref@observer_list@internal@tbb@@QEAAXPEAVobserver_proxy@23@@Z 000000018001bfc0 f   observer_proxy.obj
 0001:0001b090       ?observe@task_scheduler_observer_v3@internal@tbb@@QEAAX_N@Z 000000018001c090 f   observer_proxy.obj
 0001:0001b350       ?terminate_auto_initialized_scheduler@governor@internal@tbb@@SAXXZ 000000018001c350 f i tbb_main.obj
 0001:0001b3f0       ?add_ref@__TBB_InitOnce@internal@tbb@@SAXXZ 000000018001c3f0 f   tbb_main.obj
 0001:0001b460       ?remove_ref@__TBB_InitOnce@internal@tbb@@SAXXZ 000000018001c460 f   tbb_main.obj
 0001:0001b520       ?ITT_DoUnsafeOneTimeInitialization@internal@tbb@@YAXXZ 000000018001c520 f   tbb_main.obj
 0001:0001b640       ITT_DoOneTimeInitialization 000000018001c640 f   tbb_main.obj
 0001:0001b6c0       ?DoOneTimeInitializations@internal@tbb@@YAXXZ 000000018001c6c0 f   tbb_main.obj
 0001:0001b980       DllMain                    000000018001c980 f   tbb_main.obj
 0001:0001b9d0       ?itt_store_pointer_with_release_v3@internal@tbb@@YAXPEAX0@Z 000000018001c9d0 f   tbb_main.obj
 0001:0001ba10       ?itt_load_pointer_with_acquire_v3@internal@tbb@@YAPEAXPEBX@Z 000000018001ca10 f   tbb_main.obj
 0001:0001ba30       ?call_itt_notify_v5@internal@tbb@@YAXHPEAX@Z 000000018001ca30 f   tbb_main.obj
 0001:0001ba80       ?itt_make_task_group_v7@internal@tbb@@YAXW4itt_domain_enum@12@PEAX_K12W4string_index@12@@Z 000000018001ca80 f   tbb_main.obj
 0001:0001bc00       ?itt_metadata_str_add_v7@internal@tbb@@YAXW4itt_domain_enum@12@PEAX_KW4string_index@12@PEBD@Z 000000018001cc00 f   tbb_main.obj
 0001:0001bce0       ?itt_metadata_ptr_add_v11@internal@tbb@@YAXW4itt_domain_enum@12@PEAX_KW4string_index@12@1@Z 000000018001cce0 f   tbb_main.obj
 0001:0001bdc0       ?itt_relation_add_v7@internal@tbb@@YAXW4itt_domain_enum@12@PEAX_KW4itt_relation@12@12@Z 000000018001cdc0 f   tbb_main.obj
 0001:0001beb0       ?itt_task_begin_v7@internal@tbb@@YAXW4itt_domain_enum@12@PEAX_K12W4string_index@12@@Z 000000018001ceb0 f   tbb_main.obj
 0001:0001bfd0       ?itt_task_end_v7@internal@tbb@@YAXW4itt_domain_enum@12@@Z 000000018001cfd0 f   tbb_main.obj
 0001:0001c020       ?itt_region_begin_v9@internal@tbb@@YAXW4itt_domain_enum@12@PEAX_K12W4string_index@12@@Z 000000018001d020 f   tbb_main.obj
 0001:0001c110       ?itt_region_end_v9@internal@tbb@@YAXW4itt_domain_enum@12@PEAX_K@Z 000000018001d110 f   tbb_main.obj
 0001:0001c1a0       ?itt_load_pointer_v3@internal@tbb@@YAPEAXPEBX@Z 000000018001d1a0 f   tbb_main.obj
 0001:0001c1b0       ?itt_set_sync_name_v3@internal@tbb@@YAXPEAXPEB_W@Z 000000018001d1b0 f   tbb_main.obj
 0001:0001c1c0       ?is_first_arg_preferred@control_storage@internal@tbb@@MEBA_N_K0@Z 000000018001d1c0 f i tbb_main.obj
 0001:0001c1d0       ?active_value@control_storage@internal@tbb@@MEBA_KXZ 000000018001d1d0 f i tbb_main.obj
 0001:0001c1f0       ?default_value@allowed_parallelism_control@internal@tbb@@EEBA_KXZ 000000018001d1f0 f i tbb_main.obj
 0001:0001c210       ?is_first_arg_preferred@allowed_parallelism_control@internal@tbb@@EEBA_N_K0@Z 000000018001d210 f i tbb_main.obj
 0001:0001c220       ?apply_active@allowed_parallelism_control@internal@tbb@@EEBAXXZ 000000018001d220 f i tbb_main.obj
 0001:0001c230       ?active_value@allowed_parallelism_control@internal@tbb@@EEBA_KXZ 000000018001d230 f i tbb_main.obj
 0001:0001c2f0       ?default_value@stack_size_control@internal@tbb@@EEBA_KXZ 000000018001d2f0 f i tbb_main.obj
 0001:0001c300       ?internal_create@global_control@interface9@tbb@@AEAAXXZ 000000018001d300 f   tbb_main.obj
 0001:0001c470       ?internal_destroy@global_control@interface9@tbb@@AEAAXXZ 000000018001d470 f   tbb_main.obj
 0001:0001c640       ?active_value@global_control@interface9@tbb@@CA_KH@Z 000000018001d640 f   tbb_main.obj
 0001:0001c6f0       ?internal_grow_to_at_least@concurrent_vector_base@internal@tbb@@IEAAX_K0P6AXPEAX0@Z@Z 000000018001d6f0 f   concurrent_vector_v2.obj
 0001:0001c730       ?extend_segment_if_necessary@helper@concurrent_vector_base@internal@tbb@@SAXAEAV234@_K@Z 000000018001d730 f i concurrent_vector_v2.obj
 0001:0001c800       ?internal_capacity@concurrent_vector_base@internal@tbb@@IEBA_KXZ 000000018001d800 f   concurrent_vector_v2.obj
 0001:0001c850       ?internal_reserve@concurrent_vector_base@internal@tbb@@IEAAX_K00@Z 000000018001d850 f   concurrent_vector_v2.obj
 0001:0001c9b0       ?internal_copy@concurrent_vector_base@internal@tbb@@IEAAXAEBV123@_KP6AXPEAXPEBX1@Z@Z 000000018001d9b0 f   concurrent_vector_v2.obj
 0001:0001cae0       ?internal_assign@concurrent_vector_base@internal@tbb@@IEAAXAEBV123@_KP6AXPEAX1@ZP6AX2PEBX1@Z5@Z 000000018001dae0 f   concurrent_vector_v2.obj
 0001:0001ccd0       ?internal_push_back@concurrent_vector_base@internal@tbb@@IEAAPEAX_KAEA_K@Z 000000018001dcd0 f   concurrent_vector_v2.obj
 0001:0001ce40       ?internal_grow_by@concurrent_vector_base@internal@tbb@@IEAA_K_K0P6AXPEAX0@Z@Z 000000018001de40 f   concurrent_vector_v2.obj
 0001:0001ce70       ?internal_grow@concurrent_vector_base@internal@tbb@@IEAAX_K00P6AXPEAX0@Z@Z 000000018001de70 f   concurrent_vector_v2.obj
 0001:0001d020       ?internal_clear@concurrent_vector_base@internal@tbb@@IEAAXP6AXPEAX_K@Z_N@Z 000000018001e020 f   concurrent_vector_v2.obj
 0001:0001d130       ??1push_finalizer@micro_queue@internal@tbb@@QEAA@XZ 000000018001e130 f i concurrent_queue_v2.obj
 0001:0001d140       ??1pop_finalizer@micro_queue@internal@tbb@@QEAA@XZ 000000018001e140 f i concurrent_queue_v2.obj
 0001:0001d210       ?push@micro_queue@internal@tbb@@QEAAXPEBX_KAEAVconcurrent_queue_base@23@@Z 000000018001e210 f   concurrent_queue_v2.obj
 0001:0001d360       ?pop@micro_queue@internal@tbb@@QEAA_NPEAX_KAEAVconcurrent_queue_base@23@@Z 000000018001e360 f   concurrent_queue_v2.obj
 0001:0001d4e0       ??0concurrent_queue_base@internal@tbb@@IEAA@_K@Z 000000018001e4e0 f   concurrent_queue_v2.obj
 0001:0001d5b0       ??_Econcurrent_queue_base@internal@tbb@@MEAAPEAXI@Z 000000018001e5b0 f i * CIL library *:* CIL module *
 0001:0001d5b0       ??_Gconcurrent_queue_base@internal@tbb@@MEAAPEAXI@Z 000000018001e5b0 f i concurrent_queue_v2.obj
 0001:0001d630       ??1concurrent_queue_base@internal@tbb@@MEAA@XZ 000000018001e630 f   concurrent_queue_v2.obj
 0001:0001d690       ?internal_push@concurrent_queue_base@internal@tbb@@IEAAXPEBX@Z 000000018001e690 f   concurrent_queue_v2.obj
 0001:0001d760       ?internal_pop@concurrent_queue_base@internal@tbb@@IEAAXPEAX@Z 000000018001e760 f   concurrent_queue_v2.obj
 0001:0001d7c0       ?internal_pop_if_present@concurrent_queue_base@internal@tbb@@IEAA_NPEAX@Z 000000018001e7c0 f   concurrent_queue_v2.obj
 0001:0001d880       ?internal_push_if_not_full@concurrent_queue_base@internal@tbb@@IEAA_NPEBX@Z 000000018001e880 f   concurrent_queue_v2.obj
 0001:0001d950       ?internal_size@concurrent_queue_base@internal@tbb@@IEBA_JXZ 000000018001e950 f   concurrent_queue_v2.obj
 0001:0001d970       ??0concurrent_queue_iterator_base@internal@tbb@@IEAA@AEBVconcurrent_queue_base@12@@Z 000000018001e970 f   concurrent_queue_v2.obj
 0001:0001da50       ?assign@concurrent_queue_iterator_base@internal@tbb@@IEAAXAEBV123@@Z 000000018001ea50 f   concurrent_queue_v2.obj
 0001:0001daf0       ?advance@concurrent_queue_iterator_base@internal@tbb@@IEAAXXZ 000000018001eaf0 f   concurrent_queue_v2.obj
 0001:0001db90       ??1concurrent_queue_iterator_base@internal@tbb@@IEAA@XZ 000000018001eb90 f   concurrent_queue_v2.obj
 0001:0001dbc0       ?internal_itt_releasing@spin_rw_mutex@tbb@@CAXPEAV12@@Z 000000018001ebc0 f   spin_rw_mutex_v2.obj
 0001:0001dbd0       ?internal_release_writer@spin_rw_mutex@tbb@@CAXPEAV12@@Z 000000018001ebd0 f   spin_rw_mutex_v2.obj
 0001:0001dc10       ?internal_acquire_reader@spin_rw_mutex@tbb@@CAXPEAV12@@Z 000000018001ec10 f   spin_rw_mutex_v2.obj
 0001:0001dcc0       ?internal_upgrade@spin_rw_mutex@tbb@@CA_NPEAV12@@Z 000000018001ecc0 f   spin_rw_mutex_v2.obj
 0001:0001de80       ?internal_downgrade@spin_rw_mutex@tbb@@CAXPEAV12@@Z 000000018001ee80 f   spin_rw_mutex_v2.obj
 0001:0001dec0       ?internal_try_acquire_reader@spin_rw_mutex@tbb@@CA_NPEAV12@@Z 000000018001eec0 f   spin_rw_mutex_v2.obj
 0001:0001df40       ?destroy@task@tbb@@QEAAXAEAV12@@Z 000000018001ef40 f   task_v2.obj
 0001:0001e0b0       __TBB_machine_fetchadd1    000000018001f0b0     atomic_support.obj
 0001:0001e0b8       __TBB_machine_fetchstore1  000000018001f0b8     atomic_support.obj
 0001:0001e0c0       __TBB_machine_cmpswp1      000000018001f0c0     atomic_support.obj
 0001:0001e0c8       __TBB_machine_fetchadd2    000000018001f0c8     atomic_support.obj
 0001:0001e0d8       __TBB_machine_fetchstore2  000000018001f0d8     atomic_support.obj
 0001:0001e0e0       __TBB_machine_cmpswp2      000000018001f0e0     atomic_support.obj
 0001:0001e0f0       __TBB_machine_pause        000000018001f0f0     atomic_support.obj
 0001:0001e100       __TBB_get_cpu_ctl_env      000000018001f100     intel64_misc.obj
 0001:0001e108       __TBB_set_cpu_ctl_env      000000018001f108     intel64_misc.obj
 0001:0001e110       __TBB_machine_try_lock_elided 000000018001f110     itsx.obj
 0001:0001e120       __TBB_machine_unlock_elided 000000018001f120     itsx.obj
 0001:0001e128       __TBB_machine_begin_transaction 000000018001f128     itsx.obj
 0001:0001e138       __TBB_machine_end_transaction 000000018001f138     itsx.obj
 0001:0001e140       __TBB_machine_transaction_conflict_abort 000000018001f140     itsx.obj
 0001:0001e148       __TBB_machine_is_in_transaction 000000018001f148     itsx.obj
 0001:0001e154       ??$_Immortalize_impl@V?$_ExceptionPtr_static@Vbad_alloc@std@@@?A0x13fc80ab@@@std@@YAHPEAX0PEAPEAX@Z 000000018001f154 f i libcpmt:excptptr.obj
 0001:0001e1c8       ??$_Immortalize_impl@V?$_ExceptionPtr_static@Vbad_exception@std@@@?A0x13fc80ab@@@std@@YAHPEAX0PEAPEAX@Z 000000018001f1c8 f i libcpmt:excptptr.obj
 0001:0001e23c       ??0bad_exception@std@@QEAA@AEBV01@@Z 000000018001f23c f i libcpmt:excptptr.obj
 0001:0001e280       ??0bad_exception@std@@QEAA@XZ 000000018001f280 f i libcpmt:excptptr.obj
 0001:0001e2b0       ??1?$shared_ptr@$$CBU_EXCEPTION_RECORD@@@std@@QEAA@XZ 000000018001f2b0 f i libcpmt:excptptr.obj
 0001:0001e300       ??1bad_exception@std@@UEAA@XZ 000000018001f300 f i libcpmt:excptptr.obj
 0001:0001e324       ??4?$shared_ptr@$$CBU_EXCEPTION_RECORD@@@std@@QEAAAEAV01@$$QEAV01@@Z 000000018001f324 f i libcpmt:excptptr.obj
 0001:0001e460       ??_G?$shared_ptr@$$CBU_EXCEPTION_RECORD@@@std@@QEAAPEAXI@Z 000000018001f460 f i libcpmt:excptptr.obj
 0001:0001e500       ??_Ebad_exception@std@@UEAAPEAXI@Z 000000018001f500 f i libcpmt:excptptr.obj
 0001:0001e500       ??_Gbad_exception@std@@UEAAPEAXI@Z 000000018001f500 f i libcpmt:excptptr.obj
 0001:0001e8c0       ?_CallMemberFunction0@@YAXQEAX0@Z 000000018001f8c0 f i libcpmt:excptptr.obj
 0001:0001e8c4       ?_CallMemberFunction1@@YAXQEAX00@Z 000000018001f8c4 f i libcpmt:excptptr.obj
 0001:0001e8d0       ?_CallMemberFunction2@@YAXQEAX00H@Z 000000018001f8d0 f i libcpmt:excptptr.obj
 0001:0001eaa0       ?__ExceptionPtrCopy@@YAXPEAXPEBX@Z 000000018001faa0 f   libcpmt:excptptr.obj
 0001:0001eac8       ?__ExceptionPtrCopyException@@YAXPEAXPEBX1@Z 000000018001fac8 f   libcpmt:excptptr.obj
 0001:0001eaf4       ?__ExceptionPtrCreate@@YAXPEAX@Z 000000018001faf4 f   libcpmt:excptptr.obj
 0001:0001eb00       ?__ExceptionPtrCurrentException@@YAXPEAX@Z 000000018001fb00 f   libcpmt:excptptr.obj
 0001:0001eb80       ?__ExceptionPtrDestroy@@YAXPEAX@Z 000000018001fb80 f   libcpmt:excptptr.obj
 0001:0001eb88       ?__ExceptionPtrRethrow@@YAXPEBX@Z 000000018001fb88 f   libcpmt:excptptr.obj
 0001:0001ed0c       ?_Xlength_error@std@@YAXPEBD@Z 000000018001fd0c f   libcpmt:xthrow.obj
 0001:0001ed30       ??0bad_array_new_length@std@@QEAA@AEBV01@@Z 000000018001fd30 f i libcpmt:xonce.obj
 0001:0001ed6c       ??0bad_array_new_length@std@@QEAA@XZ 000000018001fd6c f i libcpmt:xonce.obj
 0001:0001ed8c       ?_Execute_once@std@@YAHAEAUonce_flag@1@P6AHPEAX1PEAPEAX@Z1@Z 000000018001fd8c f   libcpmt:xonce.obj
 0001:0001f14c       __crtInitOnceExecuteOnce   000000018002014c f   libcpmt:winapisupp.obj
 0001:0001f230       __security_check_cookie    0000000180020230 f   LIBCMT:amdsecgs.obj
 0001:0001f254       ??3@YAXPEAX_K@Z            0000000180020254 f   LIBCMT:delete_scalar_size.obj
 0001:0001f254       ??_V@YAXPEAX@Z             0000000180020254 f   LIBCMT:delete_array.obj
 0001:0001f25c       ??_Etype_info@@UEAAPEAXI@Z 000000018002025c f i LIBCMT:std_type_info_static.obj
 0001:0001f25c       ??_Gtype_info@@UEAAPEAXI@Z 000000018002025c f i LIBCMT:std_type_info_static.obj
 0001:0001f288       __raise_securityfailure    0000000180020288 f   LIBCMT:gs_report.obj
 0001:0001f2bc       __report_gsfailure         00000001800202bc f   LIBCMT:gs_report.obj
 0001:0001f390       __report_rangecheckfailure 0000000180020390 f   LIBCMT:gs_report.obj
 0001:0001f3a4       __report_securityfailure   00000001800203a4 f   LIBCMT:gs_report.obj
 0001:0001f524       ??2@YAPEAX_K@Z             0000000180020524 f   LIBCMT:new_scalar.obj
 0001:0001f560       ?__scrt_initialize_type_info@@YAXXZ 0000000180020560 f   LIBCMT:tncleanup.obj
 0001:0001f570       ?__scrt_uninitialize_type_info@@YAXXZ 0000000180020570 f   LIBCMT:tncleanup.obj
 0001:0001f674       _Init_thread_abort         0000000180020674 f   LIBCMT:thread_safe_statics.obj
 0001:0001f6a4       _Init_thread_footer        00000001800206a4 f   LIBCMT:thread_safe_statics.obj
 0001:0001f704       _Init_thread_header        0000000180020704 f   LIBCMT:thread_safe_statics.obj
 0001:0001f76c       _Init_thread_notify        000000018002076c f   LIBCMT:thread_safe_statics.obj
 0001:0001f7b0       _Init_thread_wait          00000001800207b0 f   LIBCMT:thread_safe_statics.obj
 0001:0001f814       ??_V@YAXPEAX_K@Z           0000000180020814 f   LIBCMT:delete_array_size.obj
 0001:0001f81c       ??_M@YAXPEAX_K1P6AX0@Z@Z   000000018002081c f   LIBCMT:ehvecdtr.obj
 0001:0001f888       ?__ArrayUnwind@@YAXPEAX_K1P6AX0@Z@Z 0000000180020888 f   LIBCMT:ehvecdtr.obj
 0001:0001f8ec       ??_U@YAPEAX_K@Z            00000001800208ec f   LIBCMT:new_array.obj
 0001:0001f8f4       ??_L@YAXPEAX_K1P6AX0@Z2@Z  00000001800208f4 f   LIBCMT:ehvecctr.obj
 0001:0001f964       __scrt_acquire_startup_lock 0000000180020964 f   LIBCMT:utility.obj
 0001:0001f9a0       __scrt_dllmain_after_initialize_c 00000001800209a0 f   LIBCMT:utility.obj
 0001:0001f9d4       __scrt_dllmain_before_initialize_c 00000001800209d4 f   LIBCMT:utility.obj
 0001:0001f9ec       __scrt_dllmain_crt_thread_attach 00000001800209ec f   LIBCMT:utility.obj
 0001:0001fa14       __scrt_dllmain_crt_thread_detach 0000000180020a14 f   LIBCMT:utility.obj
 0001:0001fa2c       __scrt_dllmain_exception_filter 0000000180020a2c f   LIBCMT:utility.obj
 0001:0001fa8c       __scrt_dllmain_uninitialize_c 0000000180020a8c f   LIBCMT:utility.obj
 0001:0001fabc       __scrt_dllmain_uninitialize_critical 0000000180020abc f   LIBCMT:utility.obj
 0001:0001fad0       __scrt_initialize_crt      0000000180020ad0 f   LIBCMT:utility.obj
 0001:0001fb1c       __scrt_initialize_onexit_tables 0000000180020b1c f   LIBCMT:utility.obj
 0001:0001fba8       __scrt_is_nonwritable_in_current_image 0000000180020ba8 f   LIBCMT:utility.obj
 0001:0001fc40       __scrt_release_startup_lock 0000000180020c40 f   LIBCMT:utility.obj
 0001:0001fc64       __scrt_uninitialize_crt    0000000180020c64 f   LIBCMT:utility.obj
 0001:0001fc90       _onexit                    0000000180020c90 f   LIBCMT:utility.obj
 0001:0001fccc       atexit                     0000000180020ccc f   LIBCMT:utility.obj
 0001:0001fce4       ??3@YAXPEAX@Z              0000000180020ce4 f   LIBCMT:delete_scalar.obj
 0001:0002000c       _DllMainCRTStartup         000000018002100c f   LIBCMT:dll_dllmain.obj
 0001:0002004c       __GSHandlerCheck           000000018002104c f   LIBCMT:gshandler.obj
 0001:0002006c       __GSHandlerCheckCommon     000000018002106c f   LIBCMT:gshandler.obj
 0001:000200e0       __chkstk                   00000001800210e0 f   LIBCMT:chkstk.obj
 0001:000200e0       _alloca_probe              00000001800210e0 f   LIBCMT:chkstk.obj
 0001:00020134       __GSHandlerCheck_EH4       0000000180021134 f   LIBCMT:gshandlereh4.obj
 0001:000201b4       ?__scrt_throw_std_bad_alloc@@YAXXZ 00000001800211b4 f   LIBCMT:throw_bad_alloc.obj
 0001:000201d4       ?__scrt_throw_std_bad_array_new_length@@YAXXZ 00000001800211d4 f   LIBCMT:throw_bad_alloc.obj
 0001:000201f4       __crt_debugger_hook        00000001800211f4 f   LIBCMT:utility_desktop.obj
 0001:000201fc       __scrt_fastfail            00000001800211fc f   LIBCMT:utility_desktop.obj
 0001:00020348       __isa_available_init       0000000180021348 f   LIBCMT:cpu_disp.obj
 0001:000204ec       __scrt_is_ucrt_dll_in_use  00000001800214ec f   LIBCMT:ucrt_detection.obj
 0001:000204f8       __security_init_cookie     00000001800214f8 f   LIBCMT:gs_support.obj
 0001:000205a4       __local_stdio_scanf_options 00000001800215a4 f i LIBCMT:default_local_stdio_options.obj
 0001:000205ac       __scrt_initialize_default_local_stdio_options 00000001800215ac f   LIBCMT:default_local_stdio_options.obj
 0001:000205c8       __scrt_get_dyn_tls_init_callback 00000001800215c8 f   LIBCMT:dyn_tls_init.obj
 0001:000205d0       _RTC_Initialize            00000001800215d0 f   LIBCMT:initsect.obj
 0001:0002060c       _RTC_Terminate             000000018002160c f   LIBCMT:initsect.obj
 0001:00020650       ??$_CallSETranslator@V__FrameHandler4@@@@YAHPEAUEHExceptionRecord@@PEA_KPEAU_CONTEXT@@PEAU_xDISPATCHER_CONTEXT@@PEAUFuncInfo4@FH4@@K1H@Z 0000000180021650 f i libvcruntime:risctrnsctrl.obj
 0001:000206a4       ?DecompFuncInfo@FH4@@YA_JPEAEAEAUFuncInfo4@1@_KH_N@Z 00000001800216a4 f i libvcruntime:risctrnsctrl.obj
 0001:000207c8       ?ExecutionInCatch@__FrameHandler4@@SA_NPEAU_xDISPATCHER_CONTEXT@@PEAUFuncInfo4@FH4@@@Z 00000001800217c8 f   libvcruntime:risctrnsctrl.obj
 0001:000207d0       ?FrameUnwindToEmptyState@__FrameHandler4@@SAXPEA_KPEAU_xDISPATCHER_CONTEXT@@PEAUFuncInfo4@FH4@@@Z 00000001800217d0 f   libvcruntime:risctrnsctrl.obj
 0001:00020804       ?GetEstablisherFrame@__FrameHandler4@@SAPEA_KPEA_KPEAU_xDISPATCHER_CONTEXT@@PEAUFuncInfo4@FH4@@0@Z 0000000180021804 f   libvcruntime:risctrnsctrl.obj
 0001:00020828       ?GetRangeOfTrysToCheck@__FrameHandler4@@SA?AU?$pair@Viterator@TryBlockMap4@FH4@@V123@@std@@AEAVTryBlockMap4@FH4@@HPEAU_xDISPATCHER_CONTEXT@@PEAUFuncInfo4@5@H@Z 0000000180021828 f   libvcruntime:risctrnsctrl.obj
 0001:00020984       ?UnwindNestedFrames@__FrameHandler4@@SAXPEA_KPEAUEHExceptionRecord@@PEAU_CONTEXT@@0PEAXPEAUFuncInfo4@FH4@@HHPEAUHandlerType4@5@PEAU_xDISPATCHER_CONTEXT@@E@Z 0000000180021984 f   libvcruntime:risctrnsctrl.obj
 0001:00020aa4       ?setBuffer@TryBlockMap4@FH4@@QEAAXViterator@12@@Z 0000000180021aa4 f i libvcruntime:risctrnsctrl.obj
 0001:00020c68       _CreateFrameInfo           0000000180021c68 f   libvcruntime:risctrnsctrl.obj
 0001:00020ca4       _FindAndUnlinkFrame        0000000180021ca4 f   libvcruntime:risctrnsctrl.obj
 0001:00020cf8       _GetImageBase              0000000180021cf8 f   libvcruntime:risctrnsctrl.obj
 0001:00020d0c       _GetThrowImageBase         0000000180021d0c f   libvcruntime:risctrnsctrl.obj
 0001:00020d20       _SetImageBase              0000000180021d20 f   libvcruntime:risctrnsctrl.obj
 0001:00020d38       _SetThrowImageBase         0000000180021d38 f   libvcruntime:risctrnsctrl.obj
 0001:00020d50       __CxxFrameHandler4         0000000180021d50 f   libvcruntime:risctrnsctrl.obj
 0001:00020e10       _get_purecall_handler      0000000180021e10 f   libvcruntime:purevirt.obj
 0001:00020e18       _purecall                  0000000180021e18 f   libvcruntime:purevirt.obj
 0001:00020e34       __DestructExceptionObject  0000000180021e34 f   libvcruntime:ehhelpers.obj
 0001:00020ea4       _IsExceptionObjectToBeDestroyed 0000000180021ea4 f   libvcruntime:ehhelpers.obj
 0001:00020ed4       __AdjustPointer            0000000180021ed4 f   libvcruntime:ehhelpers.obj
 0001:00020ef8       __FrameUnwindFilter        0000000180021ef8 f   libvcruntime:ehhelpers.obj
 0001:00020f60       __current_exception        0000000180021f60 f   libvcruntime:ehhelpers.obj
 0001:00020f74       __current_exception_context 0000000180021f74 f   libvcruntime:ehhelpers.obj
 0001:00020f88       __std_terminate            0000000180021f88 f   libvcruntime:ehhelpers.obj
 0001:00020f94       strrchr                    0000000180021f94 f   libvcruntime:strrchr.obj
 0001:000210c4       __std_exception_copy       00000001800220c4 f   libvcruntime:std_exception.obj
 0001:00021154       __std_exception_destroy    0000000180022154 f   libvcruntime:std_exception.obj
 0001:00021184       __std_type_info_compare    0000000180022184 f   libvcruntime:std_type_info.obj
 0001:000211ac       __std_type_info_destroy_list 00000001800221ac f   libvcruntime:std_type_info.obj
 0001:000211d8       __std_type_info_name       00000001800221d8 f   libvcruntime:std_type_info.obj
 0001:000212f0       ??0__non_rtti_object@std@@QEAA@AEBV01@@Z 00000001800222f0 f i libvcruntime:rtti.obj
 0001:0002132c       ??0bad_cast@std@@QEAA@AEBV01@@Z 000000018002232c f i libvcruntime:rtti.obj
 0001:00021368       ??0bad_typeid@std@@QEAA@AEBV01@@Z 0000000180022368 f i libvcruntime:rtti.obj
 0001:00021880       ?__construct_from_string_literal@__non_rtti_object@std@@SA?AV12@QEBD@Z 0000000180022880 f i libvcruntime:rtti.obj
 0001:00021898       ?__construct_from_string_literal@bad_cast@std@@SA?AV12@QEBD@Z 0000000180022898 f i libvcruntime:rtti.obj
 0001:000218b0       ?__construct_from_string_literal@bad_typeid@std@@SA?AV12@QEBD@Z 00000001800228b0 f i libvcruntime:rtti.obj
 0001:000218c8       __RTDynamicCast            00000001800228c8 f   libvcruntime:rtti.obj
 0001:00021a30       __RTtypeid                 0000000180022a30 f   libvcruntime:rtti.obj
 0001:00021ae0       _CxxThrowException         0000000180022ae0 f   libvcruntime:throw.obj
 0001:00021b90       memcpy_repmovs             0000000180022b90 f   libvcruntime:memcpy.obj
 0001:00021bb0       memmove                    0000000180022bb0 f   libvcruntime:memcpy.obj
 0001:00021bb0       memcpy                     0000000180022bb0 f   libvcruntime:memcpy.obj
 0001:00021fa0       memset_repmovs             0000000180022fa0 f   libvcruntime:memset.obj
 0001:00021fc0       memset                     0000000180022fc0 f   libvcruntime:memset.obj
 0001:00022150       __C_specific_handler       0000000180023150 f   libvcruntime:riscchandler.obj
 0001:0002235c       __vcrt_initialize          000000018002335c f   libvcruntime:initialization.obj
 0001:00022384       __vcrt_thread_attach       0000000180023384 f   libvcruntime:initialization.obj
 0001:00022398       __vcrt_thread_detach       0000000180023398 f   libvcruntime:initialization.obj
 0001:000223ac       __vcrt_uninitialize        00000001800233ac f   libvcruntime:initialization.obj
 0001:000223c8       __vcrt_uninitialize_critical 00000001800233c8 f   libvcruntime:initialization.obj
 0001:000223d8       __vcrt_freefls             00000001800233d8 f   libvcruntime:per_thread_data.obj
 0001:000223f8       __vcrt_freeptd             00000001800233f8 f   libvcruntime:per_thread_data.obj
 0001:00022448       __vcrt_getptd              0000000180023448 f   libvcruntime:per_thread_data.obj
 0001:00022464       __vcrt_getptd_noexit       0000000180023464 f   libvcruntime:per_thread_data.obj
 0001:00022524       __vcrt_initialize_ptd      0000000180023524 f   libvcruntime:per_thread_data.obj
 0001:0002256c       __vcrt_uninitialize_ptd    000000018002356c f   libvcruntime:per_thread_data.obj
 0001:00022590       ?StateFromControlPc@__FrameHandler4@@SAHPEAUFuncInfo4@FH4@@PEAU_xDISPATCHER_CONTEXT@@@Z 0000000180023590 f   libvcruntime:ehstate.obj
 0001:00022598       ?StateFromIp@__FrameHandler4@@SAHPEAUFuncInfo4@FH4@@PEAU_xDISPATCHER_CONTEXT@@_K@Z 0000000180023598 f   libvcruntime:ehstate.obj
 0001:0002321c       ??$TypeMatchHelper@V__FrameHandler3@@@@YAHPEBU_s_HandlerType@@PEBU_s_CatchableType@@PEBU_s_ThrowInfo@@@Z 000000018002421c f i libvcruntime:frame.obj
 0001:0002335c       ??$TypeMatchHelper@V__FrameHandler4@@@@YAHPEAUHandlerType4@FH4@@PEBU_s_CatchableType@@PEBU_s_ThrowInfo@@@Z 000000018002435c f i libvcruntime:frame.obj
 0001:000234a0       ??$__InternalCxxFrameHandler@V__FrameHandler4@@@@YA?AW4_EXCEPTION_DISPOSITION@@PEAUEHExceptionRecord@@PEA_KPEAU_CONTEXT@@PEAU_xDISPATCHER_CONTEXT@@PEAUFuncInfo4@FH4@@H1E@Z 00000001800244a0 f i libvcruntime:frame.obj
 0001:00023734       ??0HandlerMap4@FH4@@QEAA@PEBUTryBlockMapEntry4@1@_KH@Z 0000000180024734 f i libvcruntime:frame.obj
 0001:000237b0       ??0TryBlockMap4@FH4@@QEAA@PEBUFuncInfo4@1@_K@Z 00000001800247b0 f i libvcruntime:frame.obj
 0001:00023888       ?CxxCallCatchBlock@__FrameHandler4@@SAPEAXPEAU_EXCEPTION_RECORD@@@Z 0000000180024888 f   libvcruntime:frame.obj
 0001:00023ad8       ?DecompHandler@HandlerMap4@FH4@@AEAAXXZ 0000000180024ad8 f i libvcruntime:frame.obj
 0001:00023d18       ?FrameUnwindToState@__FrameHandler4@@SAXPEA_KPEAU_xDISPATCHER_CONTEXT@@PEAUFuncInfo4@FH4@@H@Z 0000000180024d18 f   libvcruntime:frame.obj
 0001:00024174       ?ReadEntry@UWMap4@FH4@@AEAAXPEAPEAE@Z 0000000180025174 f i libvcruntime:frame.obj
 0001:00024214       ?getStartStop@UWMap4@FH4@@QEAAXHHAEAViterator@12@0@Z 0000000180025214 f i libvcruntime:frame.obj
 0001:000242e4       ?getStateFromIterators@UWMap4@FH4@@SAHAEBViterator@12@H0H0@Z 00000001800252e4 f i libvcruntime:frame.obj
 0001:000243ac       ??$?0$00@DName@@QEAA@PEBDU?$StringLifeSelector@$00@@@Z 00000001800253ac f i libvcruntime:undname.obj
 0001:000243ec       ??$?0$0A@@DName@@QEAA@PEBDU?$StringLifeSelector@$0A@@@@Z 00000001800253ec f i libvcruntime:undname.obj
 0001:000243ec       ??$?0$01@DName@@QEAA@PEBDU?$StringLifeSelector@$01@@@Z 00000001800253ec f i libvcruntime:undname.obj
 0001:0002442c       ??$?0$0A@@pcharNode@@QEAA@PEBDHU?$StringLifeSelector@$0A@@@@Z 000000018002542c f i libvcruntime:undname.obj
 0001:0002442c       ??$?0$01@pcharNode@@QEAA@PEBDHU?$StringLifeSelector@$01@@@Z 000000018002542c f i libvcruntime:undname.obj
 0001:000244a0       ??$append@VDNameNode@@@DName@@AEAAXPEBVDNameNode@@@Z 00000001800254a0 f i libvcruntime:undname.obj
 0001:000244a0       ??$append@VDNameStatusNode@@@DName@@AEAAXPEBVDNameStatusNode@@@Z 00000001800254a0 f i libvcruntime:undname.obj
 0001:000244a0       ??$append@VpcharNode@@@DName@@AEAAXPEBVpcharNode@@@Z 00000001800254a0 f i libvcruntime:undname.obj
 0001:000244a0       ??$append@VcharNode@@@DName@@AEAAXPEBVcharNode@@@Z 00000001800254a0 f i libvcruntime:undname.obj
 0001:00024504       ??$doPchar@$00@DName@@AEAAXPEBDH@Z 0000000180025504 f i libvcruntime:undname.obj
 0001:000245a8       ??$doPchar@$01@DName@@AEAAXPEBDH@Z 00000001800255a8 f i libvcruntime:undname.obj
 0001:000245a8       ??$doPchar@$0A@@DName@@AEAAXPEBDH@Z 00000001800255a8 f i libvcruntime:undname.obj
 0001:00024640       ??$forward@_K@std@@YA$$QEA_KAEA_K@Z 0000000180025640 f i libvcruntime:undname.obj
 0001:00024644       ??0DName@@QEAA@AEAPEBDD@Z  0000000180025644 f   libvcruntime:undname.obj
 0001:000246f4       ??0DName@@QEAA@AEBUStringLiteral@@@Z 00000001800256f4 f   libvcruntime:undname.obj
 0001:00024720       ??0DName@@QEAA@PEAV0@@Z    0000000180025720 f   libvcruntime:undname.obj
 0001:000247a4       ??0DName@@QEAA@_J@Z        00000001800257a4 f   libvcruntime:undname.obj
 0001:0002484c       ??0DName@@QEAA@_K@Z        000000018002584c f   libvcruntime:undname.obj
 0001:000248dc       ??2@YAPEAX_KAEAV_HeapManager@@H@Z 00000001800258dc f   libvcruntime:undname.obj
 0001:00024908       ??AReplicator@@QEBA?AVDName@@H@Z 0000000180025908 f   libvcruntime:undname.obj
 0001:00024948       ??HDName@@QEBA?AV0@AEBUStringLiteral@@@Z 0000000180025948 f   libvcruntime:undname.obj
 0001:00024974       ??HDName@@QEBA?AV0@AEBV0@@Z 0000000180025974 f   libvcruntime:undname.obj
 0001:000249a0       ??HDName@@QEBA?AV0@D@Z     00000001800259a0 f   libvcruntime:undname.obj
 0001:000249cc       ??HDName@@QEBA?AV0@W4DNameStatus@@@Z 00000001800259cc f   libvcruntime:undname.obj
 0001:000249f8       ??YDName@@QEAAAEAV0@AEBUStringLiteral@@@Z 00000001800259f8 f   libvcruntime:undname.obj
 0001:00024a78       ??YDName@@QEAAAEAV0@AEBV0@@Z 0000000180025a78 f   libvcruntime:undname.obj
 0001:00024b2c       ??YDName@@QEAAAEAV0@D@Z    0000000180025b2c f   libvcruntime:undname.obj
 0001:00024b98       ??YDName@@QEAAAEAV0@W4DNameStatus@@@Z 0000000180025b98 f   libvcruntime:undname.obj
 0001:00024c04       ??YReplicator@@QEAAAEAV0@AEBVDName@@@Z 0000000180025c04 f   libvcruntime:undname.obj
 0001:00024c5c       ?UScore@UnDecorator@@SA?AUStringLiteral@@W4Tokens@@@Z 0000000180025c5c f   libvcruntime:undname.obj
 0001:00024ca8       ?composeDeclaration@UnDecorator@@CA?AVDName@@AEBV2@@Z 0000000180025ca8 f i libvcruntime:undname.obj
 0001:00025b50       ?doPchar@DName@@AEAAXD@Z   0000000180026b50 f   libvcruntime:undname.obj
 0001:00025ba0       ?getArgumentList@UnDecorator@@CA?AVDName@@XZ 0000000180026ba0 f   libvcruntime:undname.obj
 0001:00025d34       ?getArgumentTypes@UnDecorator@@CA?AVDName@@XZ 0000000180026d34 f   libvcruntime:undname.obj
 0001:00025e90       ?getArrayObject@UnDecorator@@CA?AVDName@@XZ 0000000180026e90 f   libvcruntime:undname.obj
 0001:00025f58       ?getArrayType@UnDecorator@@CA?AVDName@@AEBV2@@Z 0000000180026f58 f i libvcruntime:undname.obj
 0001:000261a0       ?getBasedType@UnDecorator@@CA?AVDName@@XZ 00000001800271a0 f   libvcruntime:undname.obj
 0001:00026298       ?getBasicDataType@UnDecorator@@CA?AVDName@@AEBV2@@Z 0000000180027298 f   libvcruntime:undname.obj
 0001:000267dc       ?getCallingConvention@UnDecorator@@CA?AVDName@@XZ 00000001800277dc f   libvcruntime:undname.obj
 0001:0002691c       ?getDataIndirectType@UnDecorator@@CA?AVDName@@AEBV2@W4IndirectionKind@@0H@Z 000000018002791c f   libvcruntime:undname.obj
 0001:000271b4       ?getDataType@UnDecorator@@CA?AVDName@@PEAV2@@Z 00000001800281b4 f   libvcruntime:undname.obj
 0001:000272c8       ?getDecoratedName@UnDecorator@@CA?AVDName@@XZ 00000001800282c8 f   libvcruntime:undname.obj
 0001:000275ac       ?getDimension@UnDecorator@@CA?AVDName@@_N@Z 00000001800285ac f   libvcruntime:undname.obj
 0001:000276f8       ?getDispatchTarget@UnDecorator@@CA?AVDName@@XZ 00000001800286f8 f   libvcruntime:undname.obj
 0001:00027744       ?getECSUDataType@UnDecorator@@CA?AVDName@@XZ 0000000180028744 f   libvcruntime:undname.obj
 0001:00027924       ?getEnumType@UnDecorator@@CA?AVDName@@XZ 0000000180028924 f i libvcruntime:undname.obj
 0001:00027a4c       ?getExtendedDataIndirectType@UnDecorator@@CA?AVDName@@AEAW4IndirectionKind@@AEA_NH@Z 0000000180028a4c f   libvcruntime:undname.obj
 0001:00027c54       ?getExternalDataType@UnDecorator@@CA?AVDName@@AEBV2@@Z 0000000180028c54 f i libvcruntime:undname.obj
 0001:00027d14       ?getFloatingPoint@UnDecorator@@CA?AVDName@@H@Z 0000000180028d14 f   libvcruntime:undname.obj
 0001:00027e34       ?getFunctionIndirectType@UnDecorator@@CA?AVDName@@AEBV2@@Z 0000000180028e34 f   libvcruntime:undname.obj
 0001:0002836c       ?getLastChar@DNameStatusNode@@UEBADXZ 000000018002936c f i libvcruntime:undname.obj
 0001:00028378       ?getLastChar@charNode@@UEBADXZ 0000000180029378 f i libvcruntime:undname.obj
 0001:0002837c       ?getLastChar@pDNameNode@@UEBADXZ 000000018002937c f i libvcruntime:undname.obj
 0001:000283a8       ?getLastChar@pairNode@@UEBADXZ 00000001800293a8 f i libvcruntime:undname.obj
 0001:000283e0       ?getLastChar@pcharNode@@UEBADXZ 00000001800293e0 f i libvcruntime:undname.obj
 0001:000283f4       ?getLexicalFrame@UnDecorator@@CA?AVDName@@XZ 00000001800293f4 f i libvcruntime:undname.obj
 0001:00028458       ?getMemoryWithBuffer@_HeapManager@@QEAAPEAX_K@Z 0000000180029458 f   libvcruntime:undname.obj
 0001:000284e8       ?getNoexcept@UnDecorator@@CA?AVDName@@XZ 00000001800294e8 f   libvcruntime:undname.obj
 0001:0002854c       ?getNumberOfDimensions@UnDecorator@@CAHXZ 000000018002954c f   libvcruntime:undname.obj
 0001:000285c0       ?getOperatorName@UnDecorator@@CA?AVDName@@_NPEA_N@Z 00000001800295c0 f i libvcruntime:undname.obj
 0001:00028e08       ?getPrimaryDataType@UnDecorator@@CA?AVDName@@AEBV2@@Z 0000000180029e08 f   libvcruntime:undname.obj
 0001:00029098       ?getPtrRefDataType@UnDecorator@@CA?AVDName@@AEBV2@H@Z 000000018002a098 f   libvcruntime:undname.obj
 0001:00029264       ?getPtrRefType@UnDecorator@@CA?AVDName@@AEBV2@0W4IndirectionKind@@@Z 000000018002a264 f   libvcruntime:undname.obj
 0001:0002943c       ?getRestrictionSpec@UnDecorator@@CA?AVDName@@XZ 000000018002a43c f   libvcruntime:undname.obj
 0001:00029608       ?getReturnType@UnDecorator@@CA?AVDName@@PEAV2@@Z 000000018002a608 f   libvcruntime:undname.obj
 0001:0002963c       ?getScope@UnDecorator@@CA?AVDName@@XZ 000000018002a63c f   libvcruntime:undname.obj
 0001:00029af0       ?getScopedName@UnDecorator@@CA?AVDName@@XZ 000000018002aaf0 f   libvcruntime:undname.obj
 0001:00029c2c       ?getSignedDimension@UnDecorator@@CA?AVDName@@XZ 000000018002ac2c f   libvcruntime:undname.obj
 0001:00029cb4       ?getString@DNameStatusNode@@UEBAPEADPEAD0@Z 000000018002acb4 f i libvcruntime:undname.obj
 0001:00029cfc       ?getString@charNode@@UEBAPEADPEAD0@Z 000000018002acfc f i libvcruntime:undname.obj
 0001:00029d10       ?getString@pDNameNode@@UEBAPEADPEAD0@Z 000000018002ad10 f i libvcruntime:undname.obj
 0001:00029d40       ?getString@pairNode@@UEBAPEADPEAD0@Z 000000018002ad40 f i libvcruntime:undname.obj
 0001:00029d8c       ?getString@pcharNode@@UEBAPEADPEAD0@Z 000000018002ad8c f i libvcruntime:undname.obj
 0001:00029dc4       ?getStringEncoding@UnDecorator@@CA?AVDName@@W4PrefixKind@@H@Z 000000018002adc4 f   libvcruntime:undname.obj
 0001:00029ea8       ?getStringObject@UnDecorator@@CA?AVDName@@XZ 000000018002aea8 f   libvcruntime:undname.obj
 0001:00029f10       ?getSymbolName@UnDecorator@@CA?AVDName@@XZ 000000018002af10 f i libvcruntime:undname.obj
 0001:00029f5c       ?getTemplateArgumentList@UnDecorator@@CA?AVDName@@XZ 000000018002af5c f   libvcruntime:undname.obj
 0001:0002a1b0       ?getTemplateName@UnDecorator@@CA?AVDName@@_N@Z 000000018002b1b0 f   libvcruntime:undname.obj
 0001:0002a444       ?getTemplateNonTypeArgument@UnDecorator@@CA?AVDName@@XZ 000000018002b444 f   libvcruntime:undname.obj
 0001:0002a8b4       ?getTemplateTypeArgument@UnDecorator@@CA?AVDName@@XZ 000000018002b8b4 f   libvcruntime:undname.obj
 0001:0002aa1c       ?getThrowTypes@UnDecorator@@CA?AVDName@@XZ 000000018002ba1c f   libvcruntime:undname.obj
 0001:0002aa40       ?getTypeEncoding@UnDecorator@@CAHXZ 000000018002ba40 f i libvcruntime:undname.obj
 0001:0002adb4       ?getUndecoratedName@UnDecorator@@QEAAPEADPEADH@Z 000000018002bdb4 f i libvcruntime:undname.obj
 0001:0002af08       ?getVCallThunkType@UnDecorator@@CA?AVDName@@XZ 000000018002bf08 f i libvcruntime:undname.obj
 0001:0002af80       ?getValue@UnDecorator@@CA?AV?$optional@_K@std@@XZ 000000018002bf80 f   libvcruntime:undname.obj
 0001:0002aff4       ?getValueObject@UnDecorator@@CA?AVDName@@XZ 000000018002bff4 f   libvcruntime:undname.obj
 0001:0002b128       ?getVdispMapType@UnDecorator@@CA?AVDName@@AEBV2@@Z 000000018002c128 f i libvcruntime:undname.obj
 0001:0002b1a4       ?getVfTableType@UnDecorator@@CA?AVDName@@AEBV2@@Z 000000018002c1a4 f i libvcruntime:undname.obj
 0001:0002b3ac       ?getZName@UnDecorator@@CA?AVDName@@_N0@Z 000000018002c3ac f   libvcruntime:undname.obj
 0001:0002b694       ?length@DNameStatusNode@@UEBAHXZ 000000018002c694 f i libvcruntime:undname.obj
 0001:0002b694       ?raw_length@DNameStatusNode@@UEBAHXZ 000000018002c694 f i libvcruntime:undname.obj
 0001:0002b698       ?length@pDNameNode@@UEBAHXZ 000000018002c698 f i libvcruntime:undname.obj
 0001:0002b6c0       ?length@pairNode@@UEBAHXZ  000000018002c6c0 f i libvcruntime:undname.obj
 0001:0002b708       ?raw_length@pcharNode@@UEBAHXZ 000000018002c708 f i libvcruntime:undname.obj
 0001:0002b708       ?length@pcharNode@@UEBAHXZ 000000018002c708 f i libvcruntime:undname.obj
 0001:0002b70c       ?parseDecoratedName@UnDecorator@@CA?AVDName@@XZ 000000018002c70c f   libvcruntime:undname.obj
 0001:0002b820       ?raw_length@pDNameNode@@UEBAHXZ 000000018002c820 f i libvcruntime:undname.obj
 0001:0002b824       __unDName                  000000018002c824 f   libvcruntime:undname.obj
 0001:0002b84c       __unDNameEx                000000018002c84c f   libvcruntime:undname.obj
 0001:0002b980       sprintf_s                  000000018002c980 f i libvcruntime:undname.obj
 0001:0002b9f0       _NLG_Notify                000000018002c9f0 f   libvcruntime:notify.obj
 0001:0002ba10       __NLG_Dispatch2            000000018002ca10 f   libvcruntime:notify.obj
 0001:0002ba20       __NLG_Return2              000000018002ca20 f   libvcruntime:notify.obj
 0001:0002ba24       __except_validate_context_record 000000018002ca24 f   libvcruntime:jbcxrval.obj
 0001:0002ba5c       __vcrt_initialize_locks    000000018002ca5c f   libvcruntime:locks.obj
 0001:0002ba90       __vcrt_lock                000000018002ca90 f   libvcruntime:locks.obj
 0001:0002baac       __vcrt_uninitialize_locks  000000018002caac f   libvcruntime:locks.obj
 0001:0002bae4       __vcrt_unlock              000000018002cae4 f   libvcruntime:locks.obj
 0001:0002bc4c       __vcrt_FlsAlloc            000000018002cc4c f   libvcruntime:winapi_downlevel.obj
 0001:0002bc94       __vcrt_FlsFree             000000018002cc94 f   libvcruntime:winapi_downlevel.obj
 0001:0002bcdc       __vcrt_FlsGetValue         000000018002ccdc f   libvcruntime:winapi_downlevel.obj
 0001:0002bd24       __vcrt_FlsSetValue         000000018002cd24 f   libvcruntime:winapi_downlevel.obj
 0001:0002bd78       __vcrt_InitializeCriticalSectionEx 000000018002cd78 f   libvcruntime:winapi_downlevel.obj
 0001:0002bdf0       _CallSettingFrame          000000018002cdf0 f   libvcruntime:handlers.obj
 0001:0002be40       _CallSettingFrame_LookupContinuationIndex 000000018002ce40 f   libvcruntime:handlers.obj
 0001:0002be70       _CallSettingFrame_NotifyContinuationAddr 000000018002ce70 f   libvcruntime:handlers.obj
 0001:0002bea0       _CallSettingFrameEncoded   000000018002cea0 f   libvcruntime:handlers.obj
 0001:0002bee8       strncpy_s                  000000018002cee8 f   libucrt:strncpy_s.obj
 0001:0002bfbc       _wcsdup                    000000018002cfbc f   libucrt:wcsdup.obj
 0001:0002c040       _strdup                    000000018002d040 f   libucrt:strdup.obj
 0001:0002c0b8       malloc                     000000018002d0b8 f   libucrt:malloc.obj
 0001:0002c0c0       free                       000000018002d0c0 f   libucrt:free.obj
 0001:0002c200       _beginthreadex             000000018002d200 f   libucrt:thread.obj
 0001:0002c2d4       _endthreadex               000000018002d2d4 f   libucrt:thread.obj
 0001:0002c2e0       __acrt_errno_from_os_error 000000018002d2e0 f   libucrt:errno.obj
 0001:0002c328       __acrt_errno_map_os_error  000000018002d328 f   libucrt:errno.obj
 0001:0002c378       __doserrno                 000000018002d378 f   libucrt:errno.obj
 0001:0002c398       _errno                     000000018002d398 f   libucrt:errno.obj
 0001:0002c624       __acrt_initialize_thread_local_exit_callback 000000018002d624 f   libucrt:exit.obj
 0001:0002c62c       _cexit                     000000018002d62c f   libucrt:exit.obj
 0001:0002c63c       _exit                      000000018002d63c f   libucrt:exit.obj
 0001:0002c648       _is_c_termination_complete 000000018002d648 f   libucrt:exit.obj
 0001:0002c650       exit                       000000018002d650 f   libucrt:exit.obj
 0001:0002c65c       __acrt_initialize_stdio    000000018002d65c f   libucrt:_file.obj
 0001:0002c77c       __acrt_iob_func            000000018002d77c f   libucrt:_file.obj
 0001:0002c790       __acrt_uninitialize_stdio  000000018002d790 f   libucrt:_file.obj
 0001:0002c7ec       _lock_file                 000000018002d7ec f   libucrt:_file.obj
 0001:0002c7f8       _unlock_file               000000018002d7f8 f   libucrt:_file.obj
 0001:0002cbdc       ??$ensure_buffer_is_big_enough@D@formatting_buffer@__crt_stdio_output@@QEAA_N_K@Z 000000018002dbdc f i libucrt:output.obj
 0001:0002cc84       ??$type_case_integer_parse_into_buffer@I@?$output_processor@DV?$string_output_adapter@D@__crt_stdio_output@@V?$format_validation_base@DV?$string_output_adapter@D@__crt_stdio_output@@@2@@__crt_stdio_output@@AEAAXII_N@Z 000000018002dc84 f i libucrt:output.obj
 0001:0002cc84       ??$type_case_integer_parse_into_buffer@I@?$output_processor@DV?$stream_output_adapter@D@__crt_stdio_output@@V?$standard_base@DV?$stream_output_adapter@D@__crt_stdio_output@@@2@@__crt_stdio_output@@AEAAXII_N@Z 000000018002dc84 f i libucrt:output.obj
 0001:0002cc84       ??$type_case_integer_parse_into_buffer@I@?$output_processor@DV?$string_output_adapter@D@__crt_stdio_output@@V?$standard_base@DV?$string_output_adapter@D@__crt_stdio_output@@@2@@__crt_stdio_output@@AEAAXII_N@Z 000000018002dc84 f i libucrt:output.obj
 0001:0002cd0c       ??$type_case_integer_parse_into_buffer@_K@?$output_processor@DV?$stream_output_adapter@D@__crt_stdio_output@@V?$standard_base@DV?$stream_output_adapter@D@__crt_stdio_output@@@2@@__crt_stdio_output@@AEAAX_KI_N@Z 000000018002dd0c f i libucrt:output.obj
 0001:0002cd0c       ??$type_case_integer_parse_into_buffer@_K@?$output_processor@DV?$string_output_adapter@D@__crt_stdio_output@@V?$standard_base@DV?$string_output_adapter@D@__crt_stdio_output@@@2@@__crt_stdio_output@@AEAAX_KI_N@Z 000000018002dd0c f i libucrt:output.obj
 0001:0002cd0c       ??$type_case_integer_parse_into_buffer@_K@?$output_processor@DV?$string_output_adapter@D@__crt_stdio_output@@V?$format_validation_base@DV?$string_output_adapter@D@__crt_stdio_output@@@2@@__crt_stdio_output@@AEAAX_KI_N@Z 000000018002dd0c f i libucrt:output.obj
 0001:0002cd9c       ??$write_multiple_characters@V?$stream_output_adapter@D@__crt_stdio_output@@D@__crt_stdio_output@@YAXAEBV?$stream_output_adapter@D@0@DHQEAH@Z 000000018002dd9c f i libucrt:output.obj
 0001:0002ce28       ??$write_multiple_characters@V?$string_output_adapter@D@__crt_stdio_output@@D@__crt_stdio_output@@YAXAEBV?$string_output_adapter@D@0@DHQEAH@Z 000000018002de28 f i libucrt:output.obj
 0001:0002cea0       ??0_LocaleUpdate@@QEAA@QEAU__crt_locale_pointers@@@Z 000000018002dea0 f i libucrt:output.obj
 0001:0002d070       ?crop_zeroes@__crt_stdio_output@@YAXPEADQEAU__crt_locale_pointers@@@Z 000000018002e070 f i libucrt:output.obj
 0001:0002d110       ?force_decimal_point@__crt_stdio_output@@YAXPEADQEAU__crt_locale_pointers@@@Z 000000018002e110 f i libucrt:output.obj
 0001:0002d188       ?parse_int_from_format_string@?$output_processor@DV?$stream_output_adapter@D@__crt_stdio_output@@V?$standard_base@DV?$stream_output_adapter@D@__crt_stdio_output@@@2@@__crt_stdio_output@@AEAA_NQEAH@Z 000000018002e188 f i libucrt:output.obj
 0001:0002d188       ?parse_int_from_format_string@?$output_processor@DV?$string_output_adapter@D@__crt_stdio_output@@V?$format_validation_base@DV?$string_output_adapter@D@__crt_stdio_output@@@2@@__crt_stdio_output@@AEAA_NQEAH@Z 000000018002e188 f i libucrt:output.obj
 0001:0002d188       ?parse_int_from_format_string@?$output_processor@DV?$string_output_adapter@D@__crt_stdio_output@@V?$standard_base@DV?$string_output_adapter@D@__crt_stdio_output@@@2@@__crt_stdio_output@@AEAA_NQEAH@Z 000000018002e188 f i libucrt:output.obj
 0001:0002d22c       ?process@?$output_processor@DV?$stream_output_adapter@D@__crt_stdio_output@@V?$standard_base@DV?$stream_output_adapter@D@__crt_stdio_output@@@2@@__crt_stdio_output@@QEAAHXZ 000000018002e22c f i libucrt:output.obj
 0001:0002d440       ?process@?$output_processor@DV?$string_output_adapter@D@__crt_stdio_output@@V?$format_validation_base@DV?$string_output_adapter@D@__crt_stdio_output@@@2@@__crt_stdio_output@@QEAAHXZ 000000018002e440 f i libucrt:output.obj
 0001:0002d654       ?process@?$output_processor@DV?$string_output_adapter@D@__crt_stdio_output@@V?$standard_base@DV?$string_output_adapter@D@__crt_stdio_output@@@2@@__crt_stdio_output@@QEAAHXZ 000000018002e654 f i libucrt:output.obj
 0001:0002d85c       ?state_case_normal@?$output_processor@DV?$stream_output_adapter@D@__crt_stdio_output@@V?$standard_base@DV?$stream_output_adapter@D@__crt_stdio_output@@@2@@__crt_stdio_output@@AEAA_NXZ 000000018002e85c f i libucrt:output.obj
 0001:0002d8cc       ?state_case_normal@?$output_processor@DV?$string_output_adapter@D@__crt_stdio_output@@V?$standard_base@DV?$string_output_adapter@D@__crt_stdio_output@@@2@@__crt_stdio_output@@AEAA_NXZ 000000018002e8cc f i libucrt:output.obj
 0001:0002d8cc       ?state_case_normal@?$output_processor@DV?$string_output_adapter@D@__crt_stdio_output@@V?$format_validation_base@DV?$string_output_adapter@D@__crt_stdio_output@@@2@@__crt_stdio_output@@AEAA_NXZ 000000018002e8cc f i libucrt:output.obj
 0001:0002d940       ?state_case_normal_tchar@?$output_processor@DV?$stream_output_adapter@D@__crt_stdio_output@@V?$standard_base@DV?$stream_output_adapter@D@__crt_stdio_output@@@2@@__crt_stdio_output@@AEAA_ND@Z 000000018002e940 f i libucrt:output.obj
 0001:0002d9e4       ?state_case_normal_tchar@?$output_processor@DV?$string_output_adapter@D@__crt_stdio_output@@V?$standard_base@DV?$string_output_adapter@D@__crt_stdio_output@@@2@@__crt_stdio_output@@AEAA_ND@Z 000000018002e9e4 f i libucrt:output.obj
 0001:0002d9e4       ?state_case_normal_tchar@?$output_processor@DV?$string_output_adapter@D@__crt_stdio_output@@V?$format_validation_base@DV?$string_output_adapter@D@__crt_stdio_output@@@2@@__crt_stdio_output@@AEAA_ND@Z 000000018002e9e4 f i libucrt:output.obj
 0001:0002da8c       ?state_case_size@?$output_processor@DV?$stream_output_adapter@D@__crt_stdio_output@@V?$standard_base@DV?$stream_output_adapter@D@__crt_stdio_output@@@2@@__crt_stdio_output@@AEAA_NXZ 000000018002ea8c f i libucrt:output.obj
 0001:0002dbfc       ?state_case_size@?$output_processor@DV?$string_output_adapter@D@__crt_stdio_output@@V?$format_validation_base@DV?$string_output_adapter@D@__crt_stdio_output@@@2@@__crt_stdio_output@@AEAA_NXZ 000000018002ebfc f i libucrt:output.obj
 0001:0002dbfc       ?state_case_size@?$output_processor@DV?$string_output_adapter@D@__crt_stdio_output@@V?$standard_base@DV?$string_output_adapter@D@__crt_stdio_output@@@2@@__crt_stdio_output@@AEAA_NXZ 000000018002ebfc f i libucrt:output.obj
 0001:0002dd6c       ?state_case_type@?$output_processor@DV?$stream_output_adapter@D@__crt_stdio_output@@V?$standard_base@DV?$stream_output_adapter@D@__crt_stdio_output@@@2@@__crt_stdio_output@@AEAA_NXZ 000000018002ed6c f i libucrt:output.obj
 0001:0002dff0       ?state_case_type@?$output_processor@DV?$string_output_adapter@D@__crt_stdio_output@@V?$format_validation_base@DV?$string_output_adapter@D@__crt_stdio_output@@@2@@__crt_stdio_output@@AEAA_NXZ 000000018002eff0 f i libucrt:output.obj
 0001:0002dff0       ?state_case_type@?$output_processor@DV?$string_output_adapter@D@__crt_stdio_output@@V?$standard_base@DV?$string_output_adapter@D@__crt_stdio_output@@@2@@__crt_stdio_output@@AEAA_NXZ 000000018002eff0 f i libucrt:output.obj
 0001:0002e260       ?to_integer_size@__crt_stdio_output@@YA_KW4length_modifier@1@@Z 000000018002f260 f i libucrt:output.obj
 0001:0002e2c8       ?type_case_Z@?$output_processor@DV?$stream_output_adapter@D@__crt_stdio_output@@V?$standard_base@DV?$stream_output_adapter@D@__crt_stdio_output@@@2@@__crt_stdio_output@@AEAA_NXZ 000000018002f2c8 f i libucrt:output.obj
 0001:0002e2c8       ?type_case_Z@?$output_processor@DV?$string_output_adapter@D@__crt_stdio_output@@V?$format_validation_base@DV?$string_output_adapter@D@__crt_stdio_output@@@2@@__crt_stdio_output@@AEAA_NXZ 000000018002f2c8 f i libucrt:output.obj
 0001:0002e2c8       ?type_case_Z@?$output_processor@DV?$string_output_adapter@D@__crt_stdio_output@@V?$standard_base@DV?$string_output_adapter@D@__crt_stdio_output@@@2@@__crt_stdio_output@@AEAA_NXZ 000000018002f2c8 f i libucrt:output.obj
 0001:0002e33c       ?type_case_a@?$output_processor@DV?$string_output_adapter@D@__crt_stdio_output@@V?$standard_base@DV?$string_output_adapter@D@__crt_stdio_output@@@2@@__crt_stdio_output@@AEAA_NXZ 000000018002f33c f i libucrt:output.obj
 0001:0002e33c       ?type_case_a@?$output_processor@DV?$string_output_adapter@D@__crt_stdio_output@@V?$format_validation_base@DV?$string_output_adapter@D@__crt_stdio_output@@@2@@__crt_stdio_output@@AEAA_NXZ 000000018002f33c f i libucrt:output.obj
 0001:0002e33c       ?type_case_a@?$output_processor@DV?$stream_output_adapter@D@__crt_stdio_output@@V?$standard_base@DV?$stream_output_adapter@D@__crt_stdio_output@@@2@@__crt_stdio_output@@AEAA_NXZ 000000018002f33c f i libucrt:output.obj
 0001:0002e4f8       ?type_case_c_tchar@?$output_processor@DV?$string_output_adapter@D@__crt_stdio_output@@V?$standard_base@DV?$string_output_adapter@D@__crt_stdio_output@@@2@@__crt_stdio_output@@AEAA_ND@Z 000000018002f4f8 f i libucrt:output.obj
 0001:0002e4f8       ?type_case_c_tchar@?$output_processor@DV?$stream_output_adapter@D@__crt_stdio_output@@V?$standard_base@DV?$stream_output_adapter@D@__crt_stdio_output@@@2@@__crt_stdio_output@@AEAA_ND@Z 000000018002f4f8 f i libucrt:output.obj
 0001:0002e4f8       ?type_case_c_tchar@?$output_processor@DV?$string_output_adapter@D@__crt_stdio_output@@V?$format_validation_base@DV?$string_output_adapter@D@__crt_stdio_output@@@2@@__crt_stdio_output@@AEAA_ND@Z 000000018002f4f8 f i libucrt:output.obj
 0001:0002e5c0       ?type_case_integer@?$output_processor@DV?$stream_output_adapter@D@__crt_stdio_output@@V?$standard_base@DV?$stream_output_adapter@D@__crt_stdio_output@@@2@@__crt_stdio_output@@AEAA_NI_N@Z 000000018002f5c0 f i libucrt:output.obj
 0001:0002e5c0       ?type_case_integer@?$output_processor@DV?$string_output_adapter@D@__crt_stdio_output@@V?$format_validation_base@DV?$string_output_adapter@D@__crt_stdio_output@@@2@@__crt_stdio_output@@AEAA_NI_N@Z 000000018002f5c0 f i libucrt:output.obj
 0001:0002e5c0       ?type_case_integer@?$output_processor@DV?$string_output_adapter@D@__crt_stdio_output@@V?$standard_base@DV?$string_output_adapter@D@__crt_stdio_output@@@2@@__crt_stdio_output@@AEAA_NI_N@Z 000000018002f5c0 f i libucrt:output.obj
 0001:0002e740       ?type_case_n@?$output_processor@DV?$string_output_adapter@D@__crt_stdio_output@@V?$format_validation_base@DV?$string_output_adapter@D@__crt_stdio_output@@@2@@__crt_stdio_output@@AEAA_NXZ 000000018002f740 f i libucrt:output.obj
 0001:0002e740       ?type_case_n@?$output_processor@DV?$string_output_adapter@D@__crt_stdio_output@@V?$standard_base@DV?$string_output_adapter@D@__crt_stdio_output@@@2@@__crt_stdio_output@@AEAA_NXZ 000000018002f740 f i libucrt:output.obj
 0001:0002e740       ?type_case_n@?$output_processor@DV?$stream_output_adapter@D@__crt_stdio_output@@V?$standard_base@DV?$stream_output_adapter@D@__crt_stdio_output@@@2@@__crt_stdio_output@@AEAA_NXZ 000000018002f740 f i libucrt:output.obj
 0001:0002e7c8       ?type_case_s@?$output_processor@DV?$string_output_adapter@D@__crt_stdio_output@@V?$standard_base@DV?$string_output_adapter@D@__crt_stdio_output@@@2@@__crt_stdio_output@@AEAA_NXZ 000000018002f7c8 f i libucrt:output.obj
 0001:0002e7c8       ?type_case_s@?$output_processor@DV?$stream_output_adapter@D@__crt_stdio_output@@V?$standard_base@DV?$stream_output_adapter@D@__crt_stdio_output@@@2@@__crt_stdio_output@@AEAA_NXZ 000000018002f7c8 f i libucrt:output.obj
 0001:0002e7c8       ?type_case_s@?$output_processor@DV?$string_output_adapter@D@__crt_stdio_output@@V?$format_validation_base@DV?$string_output_adapter@D@__crt_stdio_output@@@2@@__crt_stdio_output@@AEAA_NXZ 000000018002f7c8 f i libucrt:output.obj
 0001:0002e860       ?validate_stream_is_ansi_if_required@?$__acrt_stdio_char_traits@D@@SA_NQEAU_iobuf@@@Z 000000018002f860 f i libucrt:output.obj
 0001:0002e8fc       ?write_stored_string_tchar@?$output_processor@DV?$stream_output_adapter@D@__crt_stdio_output@@V?$standard_base@DV?$stream_output_adapter@D@__crt_stdio_output@@@2@@__crt_stdio_output@@AEAA_ND@Z 000000018002f8fc f i libucrt:output.obj
 0001:0002ea20       ?write_stored_string_tchar@?$output_processor@DV?$string_output_adapter@D@__crt_stdio_output@@V?$format_validation_base@DV?$string_output_adapter@D@__crt_stdio_output@@@2@@__crt_stdio_output@@AEAA_ND@Z 000000018002fa20 f i libucrt:output.obj
 0001:0002ea20       ?write_stored_string_tchar@?$output_processor@DV?$string_output_adapter@D@__crt_stdio_output@@V?$standard_base@DV?$string_output_adapter@D@__crt_stdio_output@@@2@@__crt_stdio_output@@AEAA_ND@Z 000000018002fa20 f i libucrt:output.obj
 0001:0002eafc       ?write_string@?$string_output_adapter@D@__crt_stdio_output@@QEBAXQEBDHQEAHAEAV__crt_deferred_errno_cache@@@Z 000000018002fafc f i libucrt:output.obj
 0001:0002eba0       ?write_string_impl@?$output_adapter_common@DV?$stream_output_adapter@D@__crt_stdio_output@@@__crt_stdio_output@@IEBAXQEBDHQEAHAEAV__crt_deferred_errno_cache@@@Z 000000018002fba0 f i libucrt:output.obj
 0001:0002ec98       __stdio_common_vfprintf    000000018002fc98 f   libucrt:output.obj
 0001:0002ed24       __stdio_common_vsprintf    000000018002fd24 f   libucrt:output.obj
 0001:0002ed2c       __stdio_common_vsprintf_s  000000018002fd2c f   libucrt:output.obj
 0001:0002ed90       abort                      000000018002fd90 f   libucrt:abort.obj
 0001:0002f004       __acrt_stdio_flush_nolock  0000000180030004 f   libucrt:fflush.obj
 0001:0002f080       _fflush_nolock             0000000180030080 f   libucrt:fflush.obj
 0001:0002f0cc       _flushall                  00000001800300cc f   libucrt:fflush.obj
 0001:0002f0d4       fflush                     00000001800300d4 f   libucrt:fflush.obj
 0001:0002f1e8       fputs                      00000001800301e8 f   libucrt:fputs.obj
 0001:0002f2f0       strerror                   00000001800302f0 f   libucrt:strerror.obj
 0001:0002f3e0       strncpy                    00000001800303e0 f   libucrt:strncpy.obj
 0001:0002f610       strspn                     0000000180030610 f   libucrt:strspn.obj
 0001:0002facc       getenv                     0000000180030acc f   libucrt:getenv.obj
 0001:0002fad4       terminate                  0000000180030ad4 f   libucrt:terminate.obj
 0001:0002faf4       __acrt_call_reportfault    0000000180030af4 f   libucrt:invalid_parameter.obj
 0001:0002fc50       __acrt_initialize_invalid_parameter_handler 0000000180030c50 f   libucrt:invalid_parameter.obj
 0001:0002fc58       _invalid_parameter         0000000180030c58 f   libucrt:invalid_parameter.obj
 0001:0002fd08       _invalid_parameter_noinfo  0000000180030d08 f   libucrt:invalid_parameter.obj
 0001:0002fd28       _invoke_watson             0000000180030d28 f   libucrt:invalid_parameter.obj
 0001:0002fd70       __acrt_initialize_new_handler 0000000180030d70 f   libucrt:new_handler.obj
 0001:0002fd78       _callnewh                  0000000180030d78 f   libucrt:new_handler.obj
 0001:0002fda8       _query_new_handler         0000000180030da8 f   libucrt:new_handler.obj
 0001:0002fddc       _seh_filter_dll            0000000180030ddc f   libucrt:exception_filter.obj
 0001:0002fdf0       _seh_filter_exe            0000000180030df0 f   libucrt:exception_filter.obj
 0001:00030134       __acrt_allocate_buffer_for_argv 0000000180031134 f   libucrt:argv_parsing.obj
 0001:00030194       _configure_narrow_argv     0000000180031194 f   libucrt:argv_parsing.obj
 0001:000305e0       __dcrt_get_or_create_narrow_environment_nolock 00000001800315e0 f   libucrt:environment_initialization.obj
 0001:0003061c       __dcrt_uninitialize_environments_nolock 000000018003161c f   libucrt:environment_initialization.obj
 0001:00030654       _initialize_narrow_environment 0000000180031654 f   libucrt:environment_initialization.obj
 0001:0003099c       _crt_atexit                000000018003199c f   libucrt:onexit.obj
 0001:000309ac       _execute_onexit_table      00000001800319ac f   libucrt:onexit.obj
 0001:000309e8       _initialize_onexit_table   00000001800319e8 f   libucrt:onexit.obj
 0001:00030a10       _register_onexit_function  0000000180031a10 f   libucrt:onexit.obj
 0001:00030b84       __acrt_initialize          0000000180031b84 f   libucrt:initialization.obj
 0001:00030b98       __acrt_thread_attach       0000000180031b98 f   libucrt:initialization.obj
 0001:00030bac       __acrt_thread_detach       0000000180031bac f   libucrt:initialization.obj
 0001:00030bbc       __acrt_uninitialize        0000000180031bbc f   libucrt:initialization.obj
 0001:00030bf4       __acrt_uninitialize_critical 0000000180031bf4 f   libucrt:initialization.obj
 0001:00030c04       _initterm                  0000000180031c04 f   libucrt:initterm.obj
 0001:00030c68       _initterm_e                0000000180031c68 f   libucrt:initterm.obj
 0001:00030ca8       strcpy_s                   0000000180031ca8 f   libucrt:strcpy_s.obj
 0001:00030d08       calloc                     0000000180031d08 f   libucrt:calloc.obj
 0001:00030d10       ??$parse_integer@KV?$c_string_character_source@D@__crt_strtox@@@__crt_strtox@@YAKQEAU__crt_locale_pointers@@V?$c_string_character_source@D@0@H_N@Z 0000000180031d10 f i libucrt:atox.obj
 0001:00031014       _ischartype_l              0000000180032014 f i libucrt:atox.obj
 0001:0003108c       atol                       000000018003208c f   libucrt:atox.obj
 0001:000310d0       strncmp                    00000001800320d0 f   libucrt:strncmp.obj
 0001:00031150       wcsncmp                    0000000180032150 f   libucrt:wcsncmp.obj
 0001:0003117c       wcscpy_s                   000000018003217c f   libucrt:wcscpy_s.obj
 0001:000311e4       _malloc_base               00000001800321e4 f   libucrt:malloc_base.obj
 0001:00031244       _free_base                 0000000180032244 f   libucrt:free_base.obj
 0001:00031284       _calloc_base               0000000180032284 f   libucrt:calloc_base.obj
 0001:00031674       __acrt_freeptd             0000000180032674 f   libucrt:per_thread_data.obj
 0001:000316b8       __acrt_getptd              00000001800326b8 f   libucrt:per_thread_data.obj
 0001:0003178c       __acrt_getptd_head         000000018003278c f   libucrt:per_thread_data.obj
 0001:00031834       __acrt_getptd_noexit       0000000180032834 f   libucrt:per_thread_data.obj
 0001:00031900       __acrt_initialize_ptd      0000000180032900 f   libucrt:per_thread_data.obj
 0001:0003193c       __acrt_uninitialize_ptd    000000018003293c f   libucrt:per_thread_data.obj
 0001:00031b38       __acrt_AppPolicyGetProcessTerminationMethodInternal 0000000180032b38 f   libucrt:winapi_thunks.obj
 0001:00031b88       __acrt_AppPolicyGetThreadInitializationTypeInternal 0000000180032b88 f   libucrt:winapi_thunks.obj
 0001:00031bd8       __acrt_AreFileApisANSI     0000000180032bd8 f   libucrt:winapi_thunks.obj
 0001:00031c14       __acrt_CompareStringEx     0000000180032c14 f   libucrt:winapi_thunks.obj
 0001:00031cf0       __acrt_FlsAlloc            0000000180032cf0 f   libucrt:winapi_thunks.obj
 0001:00031d38       __acrt_FlsFree             0000000180032d38 f   libucrt:winapi_thunks.obj
 0001:00031d80       __acrt_FlsGetValue         0000000180032d80 f   libucrt:winapi_thunks.obj
 0001:00031dc8       __acrt_FlsSetValue         0000000180032dc8 f   libucrt:winapi_thunks.obj
 0001:00031e1c       __acrt_InitializeCriticalSectionEx 0000000180032e1c f   libucrt:winapi_thunks.obj
 0001:00031e80       __acrt_LCMapStringEx       0000000180032e80 f   libucrt:winapi_thunks.obj
 0001:00031f5c       __acrt_LocaleNameToLCID    0000000180032f5c f   libucrt:winapi_thunks.obj
 0001:00031fac       __acrt_RoInitialize        0000000180032fac f   libucrt:winapi_thunks.obj
 0001:00031fec       __acrt_RoUninitialize      0000000180032fec f   libucrt:winapi_thunks.obj
 0001:00032020       __acrt_initialize_winapi_thunks 0000000180033020 f   libucrt:winapi_thunks.obj
 0001:00032054       __acrt_uninitialize_winapi_thunks 0000000180033054 f   libucrt:winapi_thunks.obj
 0001:00032098       __acrt_get_begin_thread_init_policy 0000000180033098 f   libucrt:win_policies.obj
 0001:000320ec       __acrt_get_process_end_policy 00000001800330ec f   libucrt:win_policies.obj
 0001:00032128       __acrt_initialize_locks    0000000180033128 f   libucrt:locks.obj
 0001:00032170       __acrt_lock                0000000180033170 f   libucrt:locks.obj
 0001:0003218c       __acrt_uninitialize_locks  000000018003318c f   libucrt:locks.obj
 0001:000321c4       __acrt_unlock              00000001800331c4 f   libucrt:locks.obj
 0001:000321e0       _fcloseall                 00000001800331e0 f   libucrt:closeall.obj
 0001:00032294       __acrt_stdio_free_buffer_nolock 0000000180033294 f   libucrt:_freebuf.obj
 0001:000324d0       __acrt_initialize_lowio    00000001800334d0 f   libucrt:ioinit.obj
 0001:0003250c       __acrt_uninitialize_lowio  000000018003350c f   libucrt:ioinit.obj
 0001:0003254c       strtol                     000000018003354c f   libucrt:strtox.obj
 0001:00032578       _mbtowc_l                  0000000180033578 f   libucrt:mbtowc.obj
 0001:000326f8       mbtowc                     00000001800336f8 f   libucrt:mbtowc.obj
 0001:00032700       _wctomb_s_l                0000000180033700 f   libucrt:wctomb.obj
 0001:0003289c       strnlen                    000000018003389c f   libucrt:strnlen.obj
 0001:000329ec       wcsnlen                    00000001800339ec f   libucrt:strnlen.obj
 0001:00032bc4       __acrt_update_locale_info  0000000180033bc4 f   libucrt:locale_update.obj
 0001:00032bf8       __acrt_update_multibyte_info 0000000180033bf8 f   libucrt:locale_update.obj
 0001:00033630       __acrt_fp_format           0000000180034630 f   libucrt:cvt.obj
 0001:00033968       _fileno                    0000000180034968 f   libucrt:fileno.obj
 0001:00033990       _fputc_nolock              0000000180034990 f   libucrt:fputc.obj
 0001:000339a8       _get_printf_count_output   00000001800349a8 f   libucrt:printf_count_output.obj
 0001:000339c0       __acrt_should_use_temporary_buffer 00000001800349c0 f   libucrt:_sftbuf.obj
 0001:00033a08       __acrt_stdio_begin_temporary_buffering_nolock 0000000180034a08 f   libucrt:_sftbuf.obj
 0001:00033ad0       __acrt_stdio_end_temporary_buffering_nolock 0000000180034ad0 f   libucrt:_sftbuf.obj
 0001:00033b7c       __acrt_set_locale_changed  0000000180034b7c f   libucrt:wsetlocale.obj
 0001:00033b88       __acrt_uninitialize_locale 0000000180034b88 f   libucrt:wsetlocale.obj
 0001:00033c00       __acrt_get_sigabrt_handler 0000000180034c00 f   libucrt:signal.obj
 0001:00033c30       __acrt_initialize_signal_handlers 0000000180034c30 f   libucrt:signal.obj
 0001:00033c50       raise                      0000000180034c50 f   libucrt:signal.obj
 0001:00033f48       _commit                    0000000180034f48 f   libucrt:commit.obj
 0001:00034858       _write                     0000000180035858 f   libucrt:write.obj
 0001:00034944       _write_nolock              0000000180035944 f   libucrt:write.obj
 0001:00034c28       _fwrite_nolock             0000000180035c28 f   libucrt:fwrite.obj
 0001:00034dd4       __sys_errlist              0000000180035dd4 f   libucrt:syserr.obj
 0001:00034ddc       __sys_nerr                 0000000180035ddc f   libucrt:syserr.obj
 0001:00034de4       _strnicoll                 0000000180035de4 f   libucrt:strnicol.obj
 0001:00034dfc       _strnicoll_l               0000000180035dfc f   libucrt:strnicol.obj
 0001:00034f10       ??$__acrt_mbs_to_wcs_cp@U__crt_win32_buffer_internal_dynamic_resizing@@@@YAHQEBDAEAV?$__crt_win32_buffer@_WU__crt_win32_buffer_internal_dynamic_resizing@@@@I@Z 0000000180035f10 f i libucrt:argv_wildcards.obj
 0001:00035088       ??$__acrt_wcs_to_mbs_cp@U__crt_win32_buffer_internal_dynamic_resizing@@@@YAHQEB_WAEAV?$__crt_win32_buffer@DU__crt_win32_buffer_internal_dynamic_resizing@@@@I@Z 0000000180036088 f i libucrt:argv_wildcards.obj
 0001:000358b8       __acrt_expand_narrow_argv_wildcards 00000001800368b8 f   libucrt:argv_wildcards.obj
 0001:000358c0       ??$__acrt_wcs_to_mbs_cp@U__crt_win32_buffer_no_resizing@@@@YAHQEB_WAEAV?$__crt_win32_buffer@DU__crt_win32_buffer_no_resizing@@@@I@Z 00000001800368c0 f i libucrt:getmodulefilenamea.obj
 0001:000359d4       __acrt_GetModuleFileNameA  00000001800369d4 f   libucrt:getmodulefilenamea.obj
 0001:0003621c       __acrt_initialize_multibyte 000000018003721c f   libucrt:mbctype.obj
 0001:0003627c       __acrt_update_thread_multibyte_data 000000018003727c f   libucrt:mbctype.obj
 0001:00036298       _setmbcp_nolock            0000000180037298 f   libucrt:mbctype.obj
 0001:000365cc       _ismbblead                 00000001800375cc f   libucrt:ismbbyte.obj
 0001:000365e0       __acrt_initialize_command_line 00000001800375e0 f   libucrt:argv_data.obj
 0001:00036608       __acrt_MultiByteToWideChar 0000000180037608 f   libucrt:multibytetowidechar.obj
 0001:00036664       __acrt_WideCharToMultiByte 0000000180037664 f   libucrt:widechartomultibyte.obj
 0001:00036714       __dcrt_get_narrow_environment_from_os 0000000180037714 f   libucrt:get_environment_from_os.obj
 0001:00036c20       __dcrt_set_variable_in_narrow_environment_nolock 0000000180037c20 f   libucrt:setenv.obj
 0001:00036c28       _recalloc_base             0000000180037c28 f   libucrt:recalloc.obj
 0001:00036cc0       __acrt_initialize_heap     0000000180037cc0 f   libucrt:heap_handle.obj
 0001:00036cdc       __acrt_uninitialize_heap   0000000180037cdc f   libucrt:heap_handle.obj
 0001:00036ce8       __acrt_execute_initializers 0000000180037ce8 f   libucrt:shared_initialization.obj
 0001:00036d68       __acrt_execute_uninitializers 0000000180037d68 f   libucrt:shared_initialization.obj
 0001:00036da4       __acrt_has_user_matherr    0000000180037da4 f   libucrt:matherr.obj
 0001:00036dc4       __acrt_initialize_user_matherr 0000000180037dc4 f   libucrt:matherr.obj
 0001:00036dcc       __acrt_invoke_user_matherr 0000000180037dcc f   libucrt:matherr.obj
 0001:00036dfc       __pctype_func              0000000180037dfc f   libucrt:ctype.obj
 0001:00036e2c       _isctype_l                 0000000180037e2c f   libucrt:isctype.obj
 0001:00036f34       _query_new_mode            0000000180037f34 f   libucrt:new_mode.obj
 0001:00036f3c       __acrt_add_locale_ref      0000000180037f3c f   libucrt:locale_refcounting.obj
 0001:00036fc8       __acrt_free_locale         0000000180037fc8 f   libucrt:locale_refcounting.obj
 0001:00037140       __acrt_locale_add_lc_time_reference 0000000180038140 f   libucrt:locale_refcounting.obj
 0001:00037168       __acrt_locale_free_lc_time_if_unreferenced 0000000180038168 f   libucrt:locale_refcounting.obj
 0001:000371a0       __acrt_locale_release_lc_time_reference 00000001800381a0 f   libucrt:locale_refcounting.obj
 0001:000371c8       __acrt_release_locale_ref  00000001800381c8 f   libucrt:locale_refcounting.obj
 0001:00037270       __acrt_update_thread_locale_data 0000000180038270 f   libucrt:locale_refcounting.obj
 0001:000372e0       _updatetlocinfoEx_nolock   00000001800382e0 f   libucrt:locale_refcounting.obj
 0001:00037348       __acrt_DownlevelLocaleNameToLCID 0000000180038348 f   libucrt:lcidtoname_downlevel.obj
 0001:000373f8       _fclose_nolock             00000001800383f8 f   libucrt:fclose.obj
 0001:0003747c       fclose                     000000018003847c f   libucrt:fclose.obj
 0001:000374e0       __acrt_lowio_create_handle_array 00000001800384e0 f   libucrt:osfinfo.obj
 0001:00037588       __acrt_lowio_destroy_handle_array 0000000180038588 f   libucrt:osfinfo.obj
 0001:000375d8       __acrt_lowio_ensure_fh_exists 00000001800385d8 f   libucrt:osfinfo.obj
 0001:00037680       __acrt_lowio_lock_fh       0000000180038680 f   libucrt:osfinfo.obj
 0001:000376a8       __acrt_lowio_unlock_fh     00000001800386a8 f   libucrt:osfinfo.obj
 0001:000376d0       _free_osfhnd               00000001800386d0 f   libucrt:osfinfo.obj
 0001:0003778c       _get_osfhandle             000000018003878c f   libucrt:osfinfo.obj
 0001:00037804       _isleadbyte_l              0000000180038804 f i libucrt:_wctype.obj
 0001:00037850       ?__mbrtowc_utf8@__crt_mbstring@@YA_KPEA_WPEBD_KPEAU_Mbstatet@@@Z 0000000180038850 f   libucrt:mbrtowc.obj
 0001:0003788c       ?__mbsrtowcs_utf8@__crt_mbstring@@YA_KPEA_WPEAPEBD_KPEAU_Mbstatet@@@Z 000000018003888c f   libucrt:mbrtowc.obj
 0001:00037a04       ?__c32rtomb_utf8@__crt_mbstring@@YA_KPEAD_UPEAU_Mbstatet@@@Z 0000000180038a04 f   libucrt:c32rtomb.obj
 0001:00037ab8       __acrt_fp_strflt_to_string 0000000180038ab8 f   libucrt:_fptostr.obj
 0001:00037c00       ?divide@__crt_strtox@@YA_KAEAUbig_integer@1@AEBU21@@Z 0000000180038c00 f i libucrt:cfout.obj
 0001:0003802c       __acrt_fltout              000000018003902c f   libucrt:cfout.obj
 0001:000392f8       fegetround                 000000018003a2f8 f   libucrt:fegetround.obj
 0001:0003946c       __acrt_stdio_flush_and_write_narrow_nolock 000000018003a46c f   libucrt:_flsbuf.obj
 0001:00039524       _isatty                    000000018003a524 f   libucrt:isatty.obj
 0001:00039584       __acrt_locale_free_monetary 000000018003a584 f   libucrt:initmon.obj
 0001:00039690       __acrt_locale_free_numeric 000000018003a690 f   libucrt:initnum.obj
 0001:00039754       __acrt_locale_free_time    000000018003a754 f   libucrt:inittime.obj
 0001:0003985c       __acrt_GetStringTypeA      000000018003a85c f   libucrt:getstringtypea.obj
 0001:00039b78       _lseeki64                  000000018003ab78 f   libucrt:lseek.obj
 0001:00039b80       _lseeki64_nolock           000000018003ab80 f   libucrt:lseek.obj
 0001:00039b88       _putwch_nolock             000000018003ab88 f   libucrt:putwch.obj
 0001:00039bc4       __ascii_wcsnicmp           000000018003abc4 f   libucrt:wcsnicmp.obj
 0001:00039c10       __ascii_strnicmp           000000018003ac10 f   libucrt:strnicmp.obj
 0001:00039c5c       _strnicmp                  000000018003ac5c f   libucrt:strnicmp.obj
 0001:00039cac       _strnicmp_l                000000018003acac f   libucrt:strnicmp.obj
 0001:0003a0bc       __acrt_CompareStringA      000000018003b0bc f   libucrt:comparestringa.obj
 0001:0003a150       qsort                      000000018003b150 f   libucrt:qsort.obj
 0001:0003a590       strpbrk                    000000018003b590 f   libucrt:strpbrk.obj
 0001:0003a958       _mbsdec                    000000018003b958 f   libucrt:mbsdec.obj
 0001:0003a960       _mbsdec_l                  000000018003b960 f   libucrt:mbsdec.obj
 0001:0003ad0c       __acrt_LCMapStringA        000000018003bd0c f   libucrt:lcmapstringa.obj
 0001:0003adbc       __acrt_SetEnvironmentVariableA 000000018003bdbc f   libucrt:setenvironmentvariablea.obj
 0001:0003af54       _msize_base                000000018003bf54 f   libucrt:msize.obj
 0001:0003af90       _realloc_base              000000018003bf90 f   libucrt:realloc_base.obj
 0001:0003b080       _close                     000000018003c080 f   libucrt:close.obj
 0001:0003b124       _close_nolock              000000018003c124 f   libucrt:close.obj
 0001:0003b1e4       ?__acrt_stdio_free_stream@@YAXV__crt_stdio_stream@@@Z 000000018003c1e4 f   libucrt:stream.obj
 0001:0003b200       _query_app_type            000000018003c200 f   libucrt:report_runtime_error.obj
 0001:0003b208       ?__mbrtoc32_utf8@__crt_mbstring@@YA_KPEA_UPEBD_KPEAU_Mbstatet@@@Z 000000018003c208 f   libucrt:mbrtoc32.obj
 0001:0003b3e0       _controlfp_s               000000018003c3e0 f   libucrt:contrlfp.obj
 0001:0003b444       fegetenv                   000000018003c444 f   libucrt:fegetenv.obj
 0001:0003b464       fesetenv                   000000018003c464 f   libucrt:fesetenv.obj
 0001:0003b4b0       feholdexcept               000000018003c4b0 f   libucrt:feholdexcept.obj
 0001:0003b500       ceil                       000000018003c500 f   libucrt:ceil.obj
 0001:0003b5d0       log10                      000000018003c5d0 f   libucrt:log10.obj
 0001:0003bb7c       __acrt_fenv_get_common_round_control 000000018003cb7c f   libucrt:_fenvutils.obj
 0001:0003bb88       __acrt_fenv_get_control    000000018003cb88 f   libucrt:_fenvutils.obj
 0001:0003bc7c       __acrt_fenv_get_status     000000018003cc7c f   libucrt:_fenvutils.obj
 0001:0003bcd0       __acrt_fenv_set_control    000000018003ccd0 f   libucrt:_fenvutils.obj
 0001:0003be18       __acrt_fenv_set_status     000000018003ce18 f   libucrt:_fenvutils.obj
 0001:0003be9c       __acrt_stdio_allocate_buffer_nolock 000000018003ce9c f   libucrt:_getbuf.obj
 0001:0003bf08       __dcrt_lowio_ensure_console_output_initialized 000000018003cf08 f   libucrt:initcon.obj
 0001:0003bf5c       __dcrt_terminate_console_output 000000018003cf5c f   libucrt:initcon.obj
 0001:0003bf78       __dcrt_write_console       000000018003cf78 f   libucrt:initcon.obj
 0001:0003c038       __strncnt                  000000018003d038 f   libucrt:strncnt.obj
 0001:0003c050       _clearfp                   000000018003d050 f   libucrt:ieee.obj
 0001:0003c0c0       _control87                 000000018003d0c0 f   libucrt:ieee.obj
 0001:0003c4ac       _handle_error              000000018003d4ac f   libucrt:libm_error.obj
 0001:0003c5d4       _handle_nan                000000018003d5d4 f   libucrt:libm_error.obj
 0001:0003c5f0       __acrt_initialize_fma3     000000018003d5f0 f   libucrt:fma3_available.obj
 0001:0003c660       _log10_special             000000018003d660 f   libucrt:log_special.obj
 0001:0003c730       _get_fpsr                  000000018003d730 f   libucrt:fpsr.obj
 0001:0003c740       _set_fpsr                  000000018003d740 f   libucrt:fpsr.obj
 0001:0003c74a       _fclrf                     000000018003d74a f   libucrt:fpsr.obj
 0001:0003c75e       _frnd                      000000018003d75e f   libucrt:fpsr.obj
 0001:0003c780       _raise_exc                 000000018003d780 f   libucrt:fpexcept.obj
 0001:0003c7a8       _raise_exc_ex              000000018003d7a8 f   libucrt:fpexcept.obj
 0001:0003cab8       _set_errno_from_matherr    000000018003dab8 f   libucrt:fpexcept.obj
 0001:0003cae8       _clrfp                     000000018003dae8 f   libucrt:fpctrl.obj
 0001:0003cb08       _ctrlfp                    000000018003db08 f   libucrt:fpctrl.obj
 0001:0003cb84       _set_statfp                000000018003db84 f   libucrt:fpctrl.obj
 0001:0003cba4       _statfp                    000000018003dba4 f   libucrt:fpctrl.obj
 0001:0003cbb5       IsProcessorFeaturePresent  000000018003dbb5 f   kernel32:KERNEL32.dll
 0001:0003cbc0       _FindPESection             000000018003dbc0 f   LIBCMT:pesect.obj
 0001:0003cc10       _IsNonwritableInCurrentImage 000000018003dc10 f   LIBCMT:pesect.obj
 0001:0003cc60       _ValidateImageBase         000000018003dc60 f   LIBCMT:pesect.obj
 0001:0003cc90       __GSHandlerCheck_SEH       000000018003dc90 f   LIBCMT:gshandlerseh.obj
 0001:0003cd30       memcmp                     000000018003dd30 f   libvcruntime:memcmp.obj
 0001:0003cdf8       strchr                     000000018003ddf8 f   libvcruntime:strchr.obj
 0001:0003ce90       _guard_dispatch_icall_nop  000000018003de90 f   LIBCMT:guard_dispatch.obj
 0001:0003ceb0       _guard_xfg_dispatch_icall_nop 000000018003deb0 f   LIBCMT:guard_xfg_dispatch.obj
 0002:00000000       __imp_SetEvent             0000000180040000     kernel32:KERNEL32.dll
 0002:00000008       __imp_WaitForSingleObjectEx 0000000180040008     kernel32:KERNEL32.dll
 0002:00000010       __imp_CloseHandle          0000000180040010     kernel32:KERNEL32.dll
 0002:00000018       __imp_SwitchToThread       0000000180040018     kernel32:KERNEL32.dll
 0002:00000020       __imp_GetModuleFileNameA   0000000180040020     kernel32:KERNEL32.dll
 0002:00000028       __imp_SetErrorMode         0000000180040028     kernel32:KERNEL32.dll
 0002:00000030       __imp_GetModuleHandleExA   0000000180040030     kernel32:KERNEL32.dll
 0002:00000038       __imp_GetLastError         0000000180040038     kernel32:KERNEL32.dll
 0002:00000040       __imp_LoadLibraryA         0000000180040040     kernel32:KERNEL32.dll
 0002:00000048       __imp_GetProcAddress       0000000180040048     kernel32:KERNEL32.dll
 0002:00000050       __imp_FreeLibrary          0000000180040050     kernel32:KERNEL32.dll
 0002:00000058       __imp_EnterCriticalSection 0000000180040058     kernel32:KERNEL32.dll
 0002:00000060       __imp_LeaveCriticalSection 0000000180040060     kernel32:KERNEL32.dll
 0002:00000068       __imp_InitializeCriticalSection 0000000180040068     kernel32:KERNEL32.dll
 0002:00000070       __imp_GetEnvironmentVariableA 0000000180040070     kernel32:KERNEL32.dll
 0002:00000078       __imp_GetCurrentThreadId   0000000180040078     kernel32:KERNEL32.dll
 0002:00000080       __imp_lstrcmpA             0000000180040080     kernel32:KERNEL32.dll
 0002:00000088       __imp_TlsSetValue          0000000180040088     kernel32:KERNEL32.dll
 0002:00000090       __imp_ReleaseSemaphore     0000000180040090     kernel32:KERNEL32.dll
 0002:00000098       __imp_TlsAlloc             0000000180040098     kernel32:KERNEL32.dll
 0002:000000a0       __imp_CreateSemaphoreW     00000001800400a0     kernel32:KERNEL32.dll
 0002:000000a8       __imp_TlsGetValue          00000001800400a8     kernel32:KERNEL32.dll
 0002:000000b0       __imp_TlsFree              00000001800400b0     kernel32:KERNEL32.dll
 0002:000000b8       __imp_TryEnterCriticalSection 00000001800400b8     kernel32:KERNEL32.dll
 0002:000000c0       __imp_InitializeCriticalSectionAndSpinCount 00000001800400c0     kernel32:KERNEL32.dll
 0002:000000c8       __imp_DeleteCriticalSection 00000001800400c8     kernel32:KERNEL32.dll
 0002:000000d0       __imp_SetLastError         00000001800400d0     kernel32:KERNEL32.dll
 0002:000000d8       __imp_QueryPerformanceFrequency 00000001800400d8     kernel32:KERNEL32.dll
 0002:000000e0       __imp_ResetEvent           00000001800400e0     kernel32:KERNEL32.dll
 0002:000000e8       __imp_CreateEventA         00000001800400e8     kernel32:KERNEL32.dll
 0002:000000f0       __imp_Sleep                00000001800400f0     kernel32:KERNEL32.dll
 0002:000000f8       __imp_QueryPerformanceCounter 00000001800400f8     kernel32:KERNEL32.dll
 0002:00000100       __imp_ResumeThread         0000000180040100     kernel32:KERNEL32.dll
 0002:00000108       __imp_GetSystemInfo        0000000180040108     kernel32:KERNEL32.dll
 0002:00000110       __imp_FormatMessageA       0000000180040110     kernel32:KERNEL32.dll
 0002:00000118       __imp_GetCurrentProcess    0000000180040118     kernel32:KERNEL32.dll
 0002:00000120       __imp_GetProcessAffinityMask 0000000180040120     kernel32:KERNEL32.dll
 0002:00000128       __imp_GetCurrentThread     0000000180040128     kernel32:KERNEL32.dll
 0002:00000130       __imp_GetNativeSystemInfo  0000000180040130     kernel32:KERNEL32.dll
 0002:00000138       __imp_CreateEventW         0000000180040138     kernel32:KERNEL32.dll
 0002:00000140       __imp_RtlPcToFileHeader    0000000180040140     kernel32:KERNEL32.dll
 0002:00000148       __imp_RaiseException       0000000180040148     kernel32:KERNEL32.dll
 0002:00000150       __imp_GetSystemTimeAsFileTime 0000000180040150     kernel32:KERNEL32.dll
 0002:00000158       __imp_GetModuleHandleW     0000000180040158     kernel32:KERNEL32.dll
 0002:00000160       __imp_RtlCaptureContext    0000000180040160     kernel32:KERNEL32.dll
 0002:00000168       __imp_RtlLookupFunctionEntry 0000000180040168     kernel32:KERNEL32.dll
 0002:00000170       __imp_RtlVirtualUnwind     0000000180040170     kernel32:KERNEL32.dll
 0002:00000178       __imp_UnhandledExceptionFilter 0000000180040178     kernel32:KERNEL32.dll
 0002:00000180       __imp_SetUnhandledExceptionFilter 0000000180040180     kernel32:KERNEL32.dll
 0002:00000188       __imp_TerminateProcess     0000000180040188     kernel32:KERNEL32.dll
 0002:00000190       __imp_IsProcessorFeaturePresent 0000000180040190     kernel32:KERNEL32.dll
 0002:00000198       __imp_InitializeSListHead  0000000180040198     kernel32:KERNEL32.dll
 0002:000001a0       __imp_IsDebuggerPresent    00000001800401a0     kernel32:KERNEL32.dll
 0002:000001a8       __imp_GetStartupInfoW      00000001800401a8     kernel32:KERNEL32.dll
 0002:000001b0       __imp_GetCurrentProcessId  00000001800401b0     kernel32:KERNEL32.dll
 0002:000001b8       __imp_RtlUnwindEx          00000001800401b8     kernel32:KERNEL32.dll
 0002:000001c0       __imp_InterlockedPushEntrySList 00000001800401c0     kernel32:KERNEL32.dll
 0002:000001c8       __imp_InterlockedFlushSList 00000001800401c8     kernel32:KERNEL32.dll
 0002:000001d0       __imp_EncodePointer        00000001800401d0     kernel32:KERNEL32.dll
 0002:000001d8       __imp_LoadLibraryExW       00000001800401d8     kernel32:KERNEL32.dll
 0002:000001e0       __imp_CreateThread         00000001800401e0     kernel32:KERNEL32.dll
 0002:000001e8       __imp_ExitThread           00000001800401e8     kernel32:KERNEL32.dll
 0002:000001f0       __imp_FreeLibraryAndExitThread 00000001800401f0     kernel32:KERNEL32.dll
 0002:000001f8       __imp_GetModuleHandleExW   00000001800401f8     kernel32:KERNEL32.dll
 0002:00000200       __imp_ExitProcess          0000000180040200     kernel32:KERNEL32.dll
 0002:00000208       __imp_GetModuleFileNameW   0000000180040208     kernel32:KERNEL32.dll
 0002:00000210       __imp_HeapAlloc            0000000180040210     kernel32:KERNEL32.dll
 0002:00000218       __imp_HeapFree             0000000180040218     kernel32:KERNEL32.dll
 0002:00000220       __imp_CompareStringW       0000000180040220     kernel32:KERNEL32.dll
 0002:00000228       __imp_LCMapStringW         0000000180040228     kernel32:KERNEL32.dll
 0002:00000230       __imp_GetStdHandle         0000000180040230     kernel32:KERNEL32.dll
 0002:00000238       __imp_GetFileType          0000000180040238     kernel32:KERNEL32.dll
 0002:00000240       __imp_FlushFileBuffers     0000000180040240     kernel32:KERNEL32.dll
 0002:00000248       __imp_WriteFile            0000000180040248     kernel32:KERNEL32.dll
 0002:00000250       __imp_GetConsoleOutputCP   0000000180040250     kernel32:KERNEL32.dll
 0002:00000258       __imp_GetConsoleMode       0000000180040258     kernel32:KERNEL32.dll
 0002:00000260       __imp_FindClose            0000000180040260     kernel32:KERNEL32.dll
 0002:00000268       __imp_FindFirstFileExW     0000000180040268     kernel32:KERNEL32.dll
 0002:00000270       __imp_FindNextFileW        0000000180040270     kernel32:KERNEL32.dll
 0002:00000278       __imp_IsValidCodePage      0000000180040278     kernel32:KERNEL32.dll
 0002:00000280       __imp_GetACP               0000000180040280     kernel32:KERNEL32.dll
 0002:00000288       __imp_GetOEMCP             0000000180040288     kernel32:KERNEL32.dll
 0002:00000290       __imp_GetCPInfo            0000000180040290     kernel32:KERNEL32.dll
 0002:00000298       __imp_GetCommandLineA      0000000180040298     kernel32:KERNEL32.dll
 0002:000002a0       __imp_GetCommandLineW      00000001800402a0     kernel32:KERNEL32.dll
 0002:000002a8       __imp_MultiByteToWideChar  00000001800402a8     kernel32:KERNEL32.dll
 0002:000002b0       __imp_WideCharToMultiByte  00000001800402b0     kernel32:KERNEL32.dll
 0002:000002b8       __imp_GetEnvironmentStringsW 00000001800402b8     kernel32:KERNEL32.dll
 0002:000002c0       __imp_FreeEnvironmentStringsW 00000001800402c0     kernel32:KERNEL32.dll
 0002:000002c8       __imp_SetEnvironmentVariableW 00000001800402c8     kernel32:KERNEL32.dll
 0002:000002d0       __imp_GetProcessHeap       00000001800402d0     kernel32:KERNEL32.dll
 0002:000002d8       __imp_SetStdHandle         00000001800402d8     kernel32:KERNEL32.dll
 0002:000002e0       __imp_GetFileSizeEx        00000001800402e0     kernel32:KERNEL32.dll
 0002:000002e8       __imp_SetFilePointerEx     00000001800402e8     kernel32:KERNEL32.dll
 0002:000002f0       __imp_GetStringTypeW       00000001800402f0     kernel32:KERNEL32.dll
 0002:000002f8       __imp_HeapSize             00000001800402f8     kernel32:KERNEL32.dll
 0002:00000300       __imp_HeapReAlloc          0000000180040300     kernel32:KERNEL32.dll
 0002:00000308       __imp_CreateFileW          0000000180040308     kernel32:KERNEL32.dll
 0002:00000310       __imp_WriteConsoleW        0000000180040310     kernel32:KERNEL32.dll
 0002:00000318       \177KERNEL32_NULL_THUNK_DATA 0000000180040318     kernel32:KERNEL32.dll
 0002:00000320       __guard_check_icall_fptr   0000000180040320     LIBCMT:guard_support.obj
 0002:00000328       __guard_xfg_check_icall_fptr 0000000180040328     LIBCMT:guard_support.obj
 0002:00000330       __guard_dispatch_icall_fptr 0000000180040330     LIBCMT:guard_support.obj
 0002:00000338       __guard_xfg_dispatch_icall_fptr 0000000180040338     LIBCMT:guard_support.obj
 0002:00000340       __guard_xfg_table_dispatch_icall_fptr 0000000180040340     LIBCMT:guard_support.obj
 0002:00000348       __xc_a                     0000000180040348     LIBCMT:initializers.obj
 0002:00000360       __xc_z                     0000000180040360     LIBCMT:initializers.obj
 0002:00000368       __xi_a                     0000000180040368     LIBCMT:initializers.obj
 0002:00000380       __acrt_stdio_initializer   0000000180040380     libucrt:stdio_initializer.obj
 0002:00000388       __acrt_multibyte_initializer 0000000180040388     libucrt:multibyte_initializer.obj
 0002:00000390       __acrt_tran_fma3_initializer 0000000180040390     libucrt:fma3_initializer.obj
 0002:00000398       __xi_z                     0000000180040398     LIBCMT:initializers.obj
 0002:000003a0       __xl_a                     00000001800403a0     LIBCMT:tlssup.obj
 0002:000003a8       __xl_z                     00000001800403a8     LIBCMT:tlssup.obj
 0002:000003b0       __xp_a                     00000001800403b0     LIBCMT:initializers.obj
 0002:000003b8       __acrt_locale_terminator   00000001800403b8     libucrt:locale_initializer.obj
 0002:000003c0       __dcrt_console_output_terminator 00000001800403c0     libucrt:console_output_initializer.obj
 0002:000003c8       __acrt_stdio_terminator    00000001800403c8     libucrt:stdio_initializer.obj
 0002:000003d0       __xp_z                     00000001800403d0     LIBCMT:initializers.obj
 0002:000003d8       __xt_a                     00000001800403d8     LIBCMT:initializers.obj
 0002:000003e0       __xt_z                     00000001800403e0     LIBCMT:initializers.obj
 0002:000003f8       ??_7exception@std@@6B@     00000001800403f8     libcpmt:excptptr.obj
 0002:00000410       ??_7bad_exception@std@@6B@ 0000000180040410     libcpmt:excptptr.obj
 0002:00000420       ??_C@_0O@DPKOEFFH@bad?5exception@ 0000000180040420     libcpmt:excptptr.obj
 0002:00000438       ??_7bad_alloc@std@@6B@     0000000180040438     libcpmt:excptptr.obj
 0002:000004c8       ??_7logic_error@std@@6B@   00000001800404c8     libcpmt:xthrow.obj
 0002:000004e0       ??_7invalid_argument@std@@6B@ 00000001800404e0     libcpmt:xthrow.obj
 0002:000004f8       ??_7length_error@std@@6B@  00000001800404f8     libcpmt:xthrow.obj
 0002:00000510       ??_7out_of_range@std@@6B@  0000000180040510     libcpmt:xthrow.obj
 0002:00000528       ??_7runtime_error@std@@6B@ 0000000180040528     libcpmt:xthrow.obj
 0002:00000540       ??_7bad_array_new_length@std@@6B@ 0000000180040540     libcpmt:xonce.obj
 0002:00000550       ??_C@_0BF@KINCDENJ@bad?5array?5new?5length@ 0000000180040550     libcpmt:xonce.obj
 0002:00000568       ??_C@_1BK@MGMFAEKH@?$AAk?$AAe?$AAr?$AAn?$AAe?$AAl?$AA3?$AA2?$AA?4?$AAd?$AAl?$AAl@ 0000000180040568     libcpmt:winapisupp.obj
 0002:00000588       ??_C@_08KNHFBNJ@FlsAlloc@  0000000180040588     libcpmt:winapisupp.obj
 0002:00000598       ??_C@_07PEJMOBNF@FlsFree@  0000000180040598     libcpmt:winapisupp.obj
 0002:000005a0       ??_C@_0M@GDNOONDI@FlsGetValue@ 00000001800405a0     libcpmt:winapisupp.obj
 0002:000005b0       ??_C@_0M@JCPCPOEF@FlsSetValue@ 00000001800405b0     libcpmt:winapisupp.obj
 0002:000005c0       ??_C@_0BM@HCFOFFN@InitializeCriticalSectionEx@ 00000001800405c0     libcpmt:winapisupp.obj
 0002:000005e0       ??_C@_0BE@GPLMMCMH@InitOnceExecuteOnce@ 00000001800405e0     libcpmt:winapisupp.obj
 0002:000005f8       ??_C@_0P@DLHPPCNH@CreateEventExW@ 00000001800405f8     libcpmt:winapisupp.obj
 0002:00000608       ??_C@_0BB@MEFPJLHN@CreateSemaphoreW@ 0000000180040608     libcpmt:winapisupp.obj
 0002:00000620       ??_C@_0BD@KIEEOEEH@CreateSemaphoreExW@ 0000000180040620     libcpmt:winapisupp.obj
 0002:00000638       ??_C@_0BG@OGFAJCKC@CreateThreadpoolTimer@ 0000000180040638     libcpmt:winapisupp.obj
 0002:00000650       ??_C@_0BD@LPLEMMDI@SetThreadpoolTimer@ 0000000180040650     libcpmt:winapisupp.obj
 0002:00000668       ??_C@_0CA@FMNJENH@WaitForThreadpoolTimerCallbacks@ 0000000180040668     libcpmt:winapisupp.obj
 0002:00000688       ??_C@_0BF@DCFCCNOC@CloseThreadpoolTimer@ 0000000180040688     libcpmt:winapisupp.obj
 0002:000006a0       ??_C@_0BF@FLABGKKM@CreateThreadpoolWait@ 00000001800406a0     libcpmt:winapisupp.obj
 0002:000006b8       ??_C@_0BC@MGCOHNA@SetThreadpoolWait@ 00000001800406b8     libcpmt:winapisupp.obj
 0002:000006d0       ??_C@_0BE@OCIOMIMP@CloseThreadpoolWait@ 00000001800406d0     libcpmt:winapisupp.obj
 0002:000006e8       ??_C@_0BJ@LKGHFHBO@FlushProcessWriteBuffers@ 00000001800406e8     libcpmt:winapisupp.obj
 0002:00000708       ??_C@_0BP@KALKKPMO@FreeLibraryWhenCallbackReturns@ 0000000180040708     libcpmt:winapisupp.obj
 0002:00000728       ??_C@_0BK@DFNBACLA@GetCurrentProcessorNumber@ 0000000180040728     libcpmt:winapisupp.obj
 0002:00000748       ??_C@_0BE@FKKLLFLM@CreateSymbolicLinkW@ 0000000180040748     libcpmt:winapisupp.obj
 0002:00000760       ??_C@_0BE@JOGNEJCI@GetCurrentPackageId@ 0000000180040760     libcpmt:winapisupp.obj
 0002:00000778       ??_C@_0P@CDHHOHKP@GetTickCount64@ 0000000180040778     libcpmt:winapisupp.obj
 0002:00000788       ??_C@_0BN@NEEHBBPO@GetFileInformationByHandleEx@ 0000000180040788     libcpmt:winapisupp.obj
 0002:000007a8       ??_C@_0BL@KBBHGKCM@SetFileInformationByHandle@ 00000001800407a8     libcpmt:winapisupp.obj
 0002:000007c8       ??_C@_0BP@FPNJPEJC@GetSystemTimePreciseAsFileTime@ 00000001800407c8     libcpmt:winapisupp.obj
 0002:000007e8       ??_C@_0BC@MMLHEBPB@InitializeSRWLock@ 00000001800407e8     libcpmt:winapisupp.obj
 0002:00000800       ??_C@_0BI@OMNLIJDB@AcquireSRWLockExclusive@ 0000000180040800     libcpmt:winapisupp.obj
 0002:00000818       ??_C@_0BL@OGHFEMNA@TryAcquireSRWLockExclusive@ 0000000180040818     libcpmt:winapisupp.obj
 0002:00000838       ??_C@_0BI@HMIEPCNJ@ReleaseSRWLockExclusive@ 0000000180040838     libcpmt:winapisupp.obj
 0002:00000850       ??_C@_0BK@LGACAGIC@SleepConditionVariableSRW@ 0000000180040850     libcpmt:winapisupp.obj
 0002:00000870       ??_C@_0BF@GGPHFPJA@CreateThreadpoolWork@ 0000000180040870     libcpmt:winapisupp.obj
 0002:00000888       ??_C@_0BF@NHDAIMMO@SubmitThreadpoolWork@ 0000000180040888     libcpmt:winapisupp.obj
 0002:000008a0       ??_C@_0BE@NPHIPNPD@CloseThreadpoolWork@ 00000001800408a0     libcpmt:winapisupp.obj
 0002:000008b8       ??_C@_0BA@IHGNDAEB@CompareStringEx@ 00000001800408b8     libcpmt:winapisupp.obj
 0002:000008c8       ??_C@_0BA@ONOKGCMP@GetLocaleInfoEx@ 00000001800408c8     libcpmt:winapisupp.obj
 0002:000008d8       ??_C@_0O@KKBNKAPF@LCMapStringEx@ 00000001800408d8     libcpmt:winapisupp.obj
 0002:00001140       ??_C@_0BN@LKKBCCDB@address?5family?5not?5supported@ 0000000180041140     libcpmt:syserror.obj
 0002:00001160       ??_C@_0P@LDMLAFHI@address?5in?5use@ 0000000180041160     libcpmt:syserror.obj
 0002:00001170       ??_C@_0BG@DHPCNBJB@address?5not?5available@ 0000000180041170     libcpmt:syserror.obj
 0002:00001188       ??_C@_0BC@DFIBIBIL@already?5connected@ 0000000180041188     libcpmt:syserror.obj
 0002:000011a0       ??_C@_0BH@CAKOHOMI@argument?5list?5too?5long@ 00000001800411a0     libcpmt:syserror.obj
 0002:000011b8       ??_C@_0BH@CGIMPKIM@argument?5out?5of?5domain@ 00000001800411b8     libcpmt:syserror.obj
 0002:000011d0       ??_C@_0M@KGHGGJGL@bad?5address@ 00000001800411d0     libcpmt:syserror.obj
 0002:000011e0       ??_C@_0BE@MPJPGCEO@bad?5file?5descriptor@ 00000001800411e0     libcpmt:syserror.obj
 0002:000011f8       ??_C@_0M@PMMIEFCP@bad?5message@ 00000001800411f8     libcpmt:syserror.obj
 0002:00001208       ??_C@_0M@KPHOFDBE@broken?5pipe@ 0000000180041208     libcpmt:syserror.obj
 0002:00001218       ??_C@_0BD@MGNDDEGM@connection?5aborted@ 0000000180041218     libcpmt:syserror.obj
 0002:00001230       ??_C@_0BP@KAIHPOGN@connection?5already?5in?5progress@ 0000000180041230     libcpmt:syserror.obj
 0002:00001250       ??_C@_0BD@PJLIIJEL@connection?5refused@ 0000000180041250     libcpmt:syserror.obj
 0002:00001268       ??_C@_0BB@IECNJNOI@connection?5reset@ 0000000180041268     libcpmt:syserror.obj
 0002:00001280       ??_C@_0BC@PPHBOELF@cross?5device?5link@ 0000000180041280     libcpmt:syserror.obj
 0002:00001298       ??_C@_0BN@KDMIFEIP@destination?5address?5required@ 0000000180041298     libcpmt:syserror.obj
 0002:000012b8       ??_C@_0BI@NGCEHDD@device?5or?5resource?5busy@ 00000001800412b8     libcpmt:syserror.obj
 0002:000012d0       ??_C@_0BE@JIDOCPHM@directory?5not?5empty@ 00000001800412d0     libcpmt:syserror.obj
 0002:000012e8       ??_C@_0BI@BNCLIGPB@executable?5format?5error@ 00000001800412e8     libcpmt:syserror.obj
 0002:00001300       ??_C@_0M@MIDIAGJP@file?5exists@ 0000000180041300     libcpmt:syserror.obj
 0002:00001310       ??_C@_0P@DNAJLBJK@file?5too?5large@ 0000000180041310     libcpmt:syserror.obj
 0002:00001320       ??_C@_0BC@EJHOMAAK@filename?5too?5long@ 0000000180041320     libcpmt:syserror.obj
 0002:00001338       ??_C@_0BH@KEFGLDAF@function?5not?5supported@ 0000000180041338     libcpmt:syserror.obj
 0002:00001350       ??_C@_0BB@DHFDFGDM@host?5unreachable@ 0000000180041350     libcpmt:syserror.obj
 0002:00001368       ??_C@_0BD@JPHBMONG@identifier?5removed@ 0000000180041368     libcpmt:syserror.obj
 0002:00001380       ??_C@_0BG@CDNPAGJK@illegal?5byte?5sequence@ 0000000180041380     libcpmt:syserror.obj
 0002:00001398       ??_C@_0CD@BNPLBMNA@inappropriate?5io?5control?5operat@ 0000000180041398     libcpmt:syserror.obj
 0002:000013c0       ??_C@_0M@EGEKIIMP@interrupted@ 00000001800413c0     libcpmt:syserror.obj
 0002:000013d0       ??_C@_0BB@FCMFBGOM@invalid?5argument@ 00000001800413d0     libcpmt:syserror.obj
 0002:000013e8       ??_C@_0N@OHAFKDEK@invalid?5seek@ 00000001800413e8     libcpmt:syserror.obj
 0002:000013f8       ??_C@_08GLNPIFBN@io?5error@ 00000001800413f8     libcpmt:syserror.obj
 0002:00001408       ??_C@_0P@FLLDBIDK@is?5a?5directory@ 0000000180041408     libcpmt:syserror.obj
 0002:00001418       ??_C@_0N@IFLPBIOP@message?5size@ 0000000180041418     libcpmt:syserror.obj
 0002:00001428       ??_C@_0N@KIIEAAIO@network?5down@ 0000000180041428     libcpmt:syserror.obj
 0002:00001438       ??_C@_0O@FNPDBHEE@network?5reset@ 0000000180041438     libcpmt:syserror.obj
 0002:00001448       ??_C@_0BE@IFNCKGE@network?5unreachable@ 0000000180041448     libcpmt:syserror.obj
 0002:00001460       ??_C@_0BA@PFFCAOFK@no?5buffer?5space@ 0000000180041460     libcpmt:syserror.obj
 0002:00001470       ??_C@_0BB@IEPBLJHK@no?5child?5process@ 0000000180041470     libcpmt:syserror.obj
 0002:00001488       ??_C@_07PLECNNKG@no?5link@ 0000000180041488     libcpmt:syserror.obj
 0002:00001490       ??_C@_0BC@NJECKMKE@no?5lock?5available@ 0000000180041490     libcpmt:syserror.obj
 0002:000014a8       ??_C@_0BF@PBGGPKKE@no?5message?5available@ 00000001800414a8     libcpmt:syserror.obj
 0002:000014c0       ??_C@_0L@EDOLMPAK@no?5message@ 00000001800414c0     libcpmt:syserror.obj
 0002:000014d0       ??_C@_0BD@EAMBFIDF@no?5protocol?5option@ 00000001800414d0     libcpmt:syserror.obj
 0002:000014e8       ??_C@_0BD@IJDJKDEA@no?5space?5on?5device@ 00000001800414e8     libcpmt:syserror.obj
 0002:00001500       ??_C@_0BE@MKFDAFMP@no?5stream?5resources@ 0000000180041500     libcpmt:syserror.obj
 0002:00001518       ??_C@_0BK@IMCPHCBI@no?5such?5device?5or?5address@ 0000000180041518     libcpmt:syserror.obj
 0002:00001538       ??_C@_0P@FDINDDOK@no?5such?5device@ 0000000180041538     libcpmt:syserror.obj
 0002:00001548       ??_C@_0BK@NDOCBPGE@no?5such?5file?5or?5directory@ 0000000180041548     libcpmt:syserror.obj
 0002:00001568       ??_C@_0BA@ENLPPKBN@no?5such?5process@ 0000000180041568     libcpmt:syserror.obj
 0002:00001578       ??_C@_0BA@DOCPFFJG@not?5a?5directory@ 0000000180041578     libcpmt:syserror.obj
 0002:00001588       ??_C@_0N@POEIPGGF@not?5a?5socket@ 0000000180041588     libcpmt:syserror.obj
 0002:00001598       ??_C@_0N@LGAPMMPI@not?5a?5stream@ 0000000180041598     libcpmt:syserror.obj
 0002:000015a8       ??_C@_0O@GLMIBBEG@not?5connected@ 00000001800415a8     libcpmt:syserror.obj
 0002:000015b8       ??_C@_0BC@ENOOLCNF@not?5enough?5memory@ 00000001800415b8     libcpmt:syserror.obj
 0002:000015d0       ??_C@_0O@NHEDABJP@not?5supported@ 00000001800415d0     libcpmt:syserror.obj
 0002:000015e0       ??_C@_0BD@MOLBPMEA@operation?5canceled@ 00000001800415e0     libcpmt:syserror.obj
 0002:000015f8       ??_C@_0BG@KDKHOPCO@operation?5in?5progress@ 00000001800415f8     libcpmt:syserror.obj
 0002:00001610       ??_C@_0BI@OHIEJAAB@operation?5not?5permitted@ 0000000180041610     libcpmt:syserror.obj
 0002:00001628       ??_C@_0BI@LNEGIFLN@operation?5not?5supported@ 0000000180041628     libcpmt:syserror.obj
 0002:00001640       ??_C@_0BG@OEMDKMEE@operation?5would?5block@ 0000000180041640     libcpmt:syserror.obj
 0002:00001658       ??_C@_0L@BLPOFLNJ@owner?5dead@ 0000000180041658     libcpmt:syserror.obj
 0002:00001668       ??_C@_0BC@CIJDGCDI@permission?5denied@ 0000000180041668     libcpmt:syserror.obj
 0002:00001680       ??_C@_0P@FNPOCJBE@protocol?5error@ 0000000180041680     libcpmt:syserror.obj
 0002:00001690       ??_C@_0BH@JPPPLHJB@protocol?5not?5supported@ 0000000180041690     libcpmt:syserror.obj
 0002:000016a8       ??_C@_0BG@EICBIHDP@read?5only?5file?5system@ 00000001800416a8     libcpmt:syserror.obj
 0002:000016c0       ??_C@_0BO@BJBOMOEJ@resource?5deadlock?5would?5occur@ 00000001800416c0     libcpmt:syserror.obj
 0002:000016e0       ??_C@_0BP@LKNGHENJ@resource?5unavailable?5try?5again@ 00000001800416e0     libcpmt:syserror.obj
 0002:00001700       ??_C@_0BE@GOIPJJHG@result?5out?5of?5range@ 0000000180041700     libcpmt:syserror.obj
 0002:00001718       ??_C@_0BG@MPLKFPAE@state?5not?5recoverable@ 0000000180041718     libcpmt:syserror.obj
 0002:00001730       ??_C@_0P@DIIFGFCG@stream?5timeout@ 0000000180041730     libcpmt:syserror.obj
 0002:00001740       ??_C@_0P@IPFDMIFL@text?5file?5busy@ 0000000180041740     libcpmt:syserror.obj
 0002:00001750       ??_C@_09KJPPMAOI@timed?5out@ 0000000180041750     libcpmt:syserror.obj
 0002:00001760       ??_C@_0BO@HACHBEKI@too?5many?5files?5open?5in?5system@ 0000000180041760     libcpmt:syserror.obj
 0002:00001780       ??_C@_0BE@GHAFMPAH@too?5many?5files?5open@ 0000000180041780     libcpmt:syserror.obj
 0002:00001798       ??_C@_0P@HCOMKFCC@too?5many?5links@ 0000000180041798     libcpmt:syserror.obj
 0002:000017a8       ??_C@_0BO@EFGOJEF@too?5many?5symbolic?5link?5levels@ 00000001800417a8     libcpmt:syserror.obj
 0002:000017c8       ??_C@_0BA@KGKGOOJA@value?5too?5large@ 00000001800417c8     libcpmt:syserror.obj
 0002:000017d8       ??_C@_0BE@MIEJDDNH@wrong?5protocol?5type@ 00000001800417d8     libcpmt:syserror.obj
 0002:000017f8       ??_7type_info@@6B@         00000001800417f8     LIBCMT:std_type_info_static.obj
 0002:00001810       ??_C@_1EC@JIJBPKFM@?$AAa?$AAp?$AAi?$AA?9?$AAm?$AAs?$AA?9?$AAw?$AAi?$AAn?$AA?9?$AAc?$AAo?$AAr?$AAe@ 0000000180041810     LIBCMT:thread_safe_statics.obj
 0002:00001858       _pRawDllMain               0000000180041858     LIBCMT:dll_dllmain.obj
 0002:00001858       _pDefaultRawDllMain        0000000180041858     LIBCMT:dll_dllmain.obj
 0002:00001860       ?s_negLengthTab@FH4@@3QBCB 0000000180041860     libvcruntime:risctrnsctrl.obj
 0002:00001870       ?s_shiftTab@FH4@@3QBEB     0000000180041870     libvcruntime:risctrnsctrl.obj
 0002:00001918       _pDestructExceptionObject  0000000180041918     libvcruntime:ehhelpers.obj
 0002:00001928       ??_7bad_cast@std@@6B@      0000000180041928     libvcruntime:rtti.obj
 0002:00001940       ??_7bad_typeid@std@@6B@    0000000180041940     libvcruntime:rtti.obj
 0002:00001958       ??_7__non_rtti_object@std@@6B@ 0000000180041958     libvcruntime:rtti.obj
 0002:00001968       ??_C@_0CB@CGKGGDFI@Access?5violation?5?9?5no?5RTTI?5data@ 0000000180041968     libvcruntime:rtti.obj
 0002:00001990       ??_C@_0CH@OLLMPELC@Attempted?5a?5typeid?5of?5nullptr?5p@ 0000000180041990     libvcruntime:rtti.obj
 0002:000019b8       ??_C@_0CB@EEENAAHH@Bad?5read?5pointer?5?9?5no?5RTTI?5data@ 00000001800419b8     libvcruntime:rtti.obj
 0002:000019e0       ??_C@_0BC@JNJNLHBP@Bad?5dynamic_cast?$CB@ 00000001800419e0     libvcruntime:rtti.obj
 0002:00002100       ??_C@_08EHJDFFNH@__based?$CI@ 0000000180042100     libvcruntime:undname.obj
 0002:00002110       ??_C@_07KOLFKCDI@__cdecl@  0000000180042110     libvcruntime:undname.obj
 0002:00002118       ??_C@_08GHMPAG@__pascal@   0000000180042118     libvcruntime:undname.obj
 0002:00002128       ??_C@_09IFJBGAPI@__stdcall@ 0000000180042128     libvcruntime:undname.obj
 0002:00002138       ??_C@_0L@NPHFGOKO@__thiscall@ 0000000180042138     libvcruntime:undname.obj
 0002:00002148       ??_C@_0L@JMKHOMEK@__fastcall@ 0000000180042148     libvcruntime:undname.obj
 0002:00002158       ??_C@_0N@BCKKPABJ@__vectorcall@ 0000000180042158     libvcruntime:undname.obj
 0002:00002168       ??_C@_09HIJEGCPM@__clrcall@ 0000000180042168     libvcruntime:undname.obj
 0002:00002174       ??_C@_06GHPCKEAG@__eabi@   0000000180042174     libvcruntime:undname.obj
 0002:00002180       ??_C@_09IOPIDJLG@__swift_1@ 0000000180042180     libvcruntime:undname.obj
 0002:00002190       ??_C@_09KFNFGKHF@__swift_2@ 0000000180042190     libvcruntime:undname.obj
 0002:000021a0       ??_C@_07JOMMBBKO@__ptr64@  00000001800421a0     libvcruntime:undname.obj
 0002:000021a8       ??_C@_0L@PILCLIHE@__restrict@ 00000001800421a8     libvcruntime:undname.obj
 0002:000021b8       ??_C@_0M@GFIIJFMG@__unaligned@ 00000001800421b8     libvcruntime:undname.obj
 0002:000021c8       ??_C@_09DHDLOLLB@restrict?$CI@ 00000001800421c8     libvcruntime:undname.obj
 0002:000021d4       ??_C@_04NIHEBCM@?5new@     00000001800421d4     libvcruntime:undname.obj
 0002:000021e0       ??_C@_07FPCDHGMM@?5delete@ 00000001800421e0     libvcruntime:undname.obj
 0002:000021e8       ??_C@_01NEMOKFLO@?$DN@     00000001800421e8     libvcruntime:undname.obj
 0002:000021ec       ??_C@_02GPIOPFAK@?$DO?$DO@ 00000001800421ec     libvcruntime:undname.obj
 0002:000021f0       ??_C@_02FODMEDOG@?$DM?$DM@ 00000001800421f0     libvcruntime:undname.obj
 0002:000021f4       ??_C@_01DCLJPIOD@?$CB@     00000001800421f4     libvcruntime:undname.obj
 0002:000021f8       ??_C@_02EGOFBIJA@?$DN?$DN@ 00000001800421f8     libvcruntime:undname.obj
 0002:000021fc       ??_C@_02FDNJECIE@?$CB?$DN@ 00000001800421fc     libvcruntime:undname.obj
 0002:00002200       ??_C@_02GPECMEKF@?$FL?$FN@ 0000000180042200     libvcruntime:undname.obj
 0002:00002208       ??_C@_08LHJFAFGD@operator@ 0000000180042208     libvcruntime:undname.obj
 0002:00002214       ??_C@_02HBOOOICD@?9?$DO@   0000000180042214     libvcruntime:undname.obj
 0002:00002218       ??_C@_01NBENCBCI@?$CK@     0000000180042218     libvcruntime:undname.obj
 0002:0000221c       ??_C@_02ECNGHCIF@?$CL?$CL@ 000000018004221c     libvcruntime:undname.obj
 0002:00002220       ??_C@_02BAABKJLB@?9?9@     0000000180042220     libvcruntime:undname.obj
 0002:00002224       ??_C@_01JOAMLHOP@?9@       0000000180042224     libvcruntime:undname.obj
 0002:00002228       ??_C@_01MIFGBAGJ@?$CL@     0000000180042228     libvcruntime:undname.obj
 0002:0000222c       ??_C@_01HNPIGOCE@?$CG@     000000018004222c     libvcruntime:undname.obj
 0002:00002230       ??_C@_03MNHNFDLC@?9?$DO?$CK@ 0000000180042230     libvcruntime:undname.obj
 0002:00002234       ??_C@_01KMDKNFGN@?1@       0000000180042234     libvcruntime:undname.obj
 0002:00002238       ??_C@_01FGNFDNOH@?$CF@     0000000180042238     libvcruntime:undname.obj
 0002:0000223c       ??_C@_01MNNFJEPP@?$DM@     000000018004223c     libvcruntime:undname.obj
 0002:00002240       ??_C@_02EHCHHCKH@?$DM?$DN@ 0000000180042240     libvcruntime:undname.obj
 0002:00002244       ??_C@_01PPODPGHN@?$DO@     0000000180042244     libvcruntime:undname.obj
 0002:00002248       ??_C@_02EEKDKGMJ@?$DO?$DN@ 0000000180042248     libvcruntime:undname.obj
 0002:0000224c       ??_C@_01IHBHIGKO@?0@       000000018004224c     libvcruntime:undname.obj
 0002:00002250       ??_C@_02HCKGKOFO@?$CI?$CJ@ 0000000180042250     libvcruntime:undname.obj
 0002:00002254       ??_C@_01PJKLJHI@?$HO@      0000000180042254     libvcruntime:undname.obj
 0002:00002258       ??_C@_01JKBOJNNK@?$FO@     0000000180042258     libvcruntime:undname.obj
 0002:0000225c       ??_C@_01DNKMNLPK@?$HM@     000000018004225c     libvcruntime:undname.obj
 0002:00002260       ??_C@_02PPKAJPJL@?$CG?$CG@ 0000000180042260     libvcruntime:undname.obj
 0002:00002264       ??_C@_02NONPIBCD@?$HM?$HM@ 0000000180042264     libvcruntime:undname.obj
 0002:00002268       ??_C@_02FPIMKNGF@?$CK?$DN@ 0000000180042268     libvcruntime:undname.obj
 0002:0000226c       ??_C@_02FOEOMHFC@?$CL?$DN@ 000000018004226c     libvcruntime:undname.obj
 0002:00002270       ??_C@_02FKMDLLOA@?9?$DN@   0000000180042270     libvcruntime:undname.obj
 0002:00002274       ??_C@_02FJEHGPIO@?1?$DN@   0000000180042274     libvcruntime:undname.obj
 0002:00002278       ??_C@_02FENAOKFI@?$CF?$DN@ 0000000180042278     libvcruntime:undname.obj
 0002:0000227c       ??_C@_03IKFCCPFF@?$DO?$DO?$DN@ 000000018004227c     libvcruntime:undname.obj
 0002:00002280       ??_C@_03CDNPDDLA@?$DM?$DM?$DN@ 0000000180042280     libvcruntime:undname.obj
 0002:00002284       ??_C@_02FGJGFEAB@?$CG?$DN@ 0000000180042284     libvcruntime:undname.obj
 0002:00002288       ??_C@_02DHLNPPGH@?$HM?$DN@ 0000000180042288     libvcruntime:undname.obj
 0002:0000228c       ??_C@_02MHEGNOJ@?$FO?$DN@  000000018004228c     libvcruntime:undname.obj
 0002:00002290       ??_C@_09IFPLHPGF@?$GAvftable?8@ 0000000180042290     libvcruntime:undname.obj
 0002:000022a0       ??_C@_09BLBHBJP@?$GAvbtable?8@ 00000001800422a0     libvcruntime:undname.obj
 0002:000022b0       ??_C@_07FEEIOKP@?$GAvcall?8@ 00000001800422b0     libvcruntime:undname.obj
 0002:000022b8       ??_C@_08LLFFHHDJ@?$GAtypeof?8@ 00000001800422b8     libvcruntime:undname.obj
 0002:000022c8       ??_C@_0BF@KDPPACIK@?$GAlocal?5static?5guard?8@ 00000001800422c8     libvcruntime:undname.obj
 0002:000022e0       ??_C@_08OBABFOLI@?$GAstring?8@ 00000001800422e0     libvcruntime:undname.obj
 0002:000022f0       ??_C@_0BD@JDLKDPAB@?$GAvbase?5destructor?8@ 00000001800422f0     libvcruntime:undname.obj
 0002:00002308       ??_C@_0BN@DEGPLNFK@?$GAvector?5deleting?5destructor?8@ 0000000180042308     libvcruntime:undname.obj
 0002:00002328       ??_C@_0BO@OBMKPJIG@?$GAdefault?5constructor?5closure?8@ 0000000180042328     libvcruntime:undname.obj
 0002:00002348       ??_C@_0BN@IMDCHIKM@?$GAscalar?5deleting?5destructor?8@ 0000000180042348     libvcruntime:undname.obj
 0002:00002368       ??_C@_0BO@PFGOCPJJ@?$GAvector?5constructor?5iterator?8@ 0000000180042368     libvcruntime:undname.obj
 0002:00002388       ??_C@_0BN@LFPFMEDL@?$GAvector?5destructor?5iterator?8@ 0000000180042388     libvcruntime:undname.obj
 0002:000023a8       ??_C@_0CE@IKBNEHA@?$GAvector?5vbase?5constructor?5itera@ 00000001800423a8     libvcruntime:undname.obj
 0002:000023d0       ??_C@_0BL@NILFHHPC@?$GAvirtual?5displacement?5map?8@ 00000001800423d0     libvcruntime:undname.obj
 0002:000023f0       ??_C@_0CB@JONCMFFK@?$GAeh?5vector?5constructor?5iterator@ 00000001800423f0     libvcruntime:undname.obj
 0002:00002418       ??_C@_0CA@GCEOPDGL@?$GAeh?5vector?5destructor?5iterator?8@ 0000000180042418     libvcruntime:undname.obj
 0002:00002438       ??_C@_0CH@OOJPLCPH@?$GAeh?5vector?5vbase?5constructor?5it@ 0000000180042438     libvcruntime:undname.obj
 0002:00002460       ??_C@_0BL@LLKPOHJI@?$GAcopy?5constructor?5closure?8@ 0000000180042460     libvcruntime:undname.obj
 0002:00002480       ??_C@_0BA@KBCDOMBN@?$GAudt?5returning?8@ 0000000180042480     libvcruntime:undname.obj
 0002:00002490       ??_C@_03KLGMFNMG@?$GAEH@   0000000180042490     libvcruntime:undname.obj
 0002:00002494       ??_C@_05KHLCHHI@?$GARTTI@  0000000180042494     libvcruntime:undname.obj
 0002:000024a0       ??_C@_0BA@KKLDJDLB@?$GAlocal?5vftable?8@ 00000001800424a0     libvcruntime:undname.obj
 0002:000024b0       ??_C@_0CE@IIHCMGGL@?$GAlocal?5vftable?5constructor?5clos@ 00000001800424b0     libvcruntime:undname.obj
 0002:000024d4       ??_C@_06FHBGPFGH@?5new?$FL?$FN@ 00000001800424d4     libvcruntime:undname.obj
 0002:000024e0       ??_C@_09LBNFPBCA@?5delete?$FL?$FN@ 00000001800424e0     libvcruntime:undname.obj
 0002:000024f0       ??_C@_0P@HJKNJFNN@?$GAomni?5callsig?8@ 00000001800424f0     libvcruntime:undname.obj
 0002:00002500       ??_C@_0BL@CNOONJFP@?$GAplacement?5delete?5closure?8@ 0000000180042500     libvcruntime:undname.obj
 0002:00002520       ??_C@_0BN@CKNJLHMB@?$GAplacement?5delete?$FL?$FN?5closure?8@ 0000000180042520     libvcruntime:undname.obj
 0002:00002540       ??_C@_0CG@CFDHKGGD@?$GAmanaged?5vector?5constructor?5ite@ 0000000180042540     libvcruntime:undname.obj
 0002:00002568       ??_C@_0CF@IMGKMJNO@?$GAmanaged?5vector?5destructor?5iter@ 0000000180042568     libvcruntime:undname.obj
 0002:00002590       ??_C@_0CG@HLDDJMAG@?$GAeh?5vector?5copy?5constructor?5ite@ 0000000180042590     libvcruntime:undname.obj
 0002:000025b8       ??_C@_0CM@FCBBDIGB@?$GAeh?5vector?5vbase?5copy?5construct@ 00000001800425b8     libvcruntime:undname.obj
 0002:000025e8       ??_C@_0BL@CLIPGLGB@?$GAdynamic?5initializer?5for?5?8@ 00000001800425e8     libvcruntime:undname.obj
 0002:00002608       ??_C@_0CB@PDBIFEP@?$GAdynamic?5atexit?5destructor?5for?5@ 0000000180042608     libvcruntime:undname.obj
 0002:00002630       ??_C@_0CD@CGAJBKEJ@?$GAvector?5copy?5constructor?5iterat@ 0000000180042630     libvcruntime:undname.obj
 0002:00002658       ??_C@_0CJ@GJELGAMM@?$GAvector?5vbase?5copy?5constructor?5@ 0000000180042658     libvcruntime:undname.obj
 0002:00002688       ??_C@_0CL@FGIJHLCE@?$GAmanaged?5vector?5copy?5constructo@ 0000000180042688     libvcruntime:undname.obj
 0002:000026b8       ??_C@_0BM@PMGGMLDN@?$GAlocal?5static?5thread?5guard?8@ 00000001800426b8     libvcruntime:undname.obj
 0002:000026d8       ??_C@_0N@BDNMDMOL@operator?5?$CC?$CC?5@ 00000001800426d8     libvcruntime:undname.obj
 0002:000026e8       ??_C@_0BC@GGEBGALA@operator?5co_await@ 00000001800426e8     libvcruntime:undname.obj
 0002:00002700       ??_C@_0M@GAAIMMOH@operator?$DM?$DN?$DO@ 0000000180042700     libvcruntime:undname.obj
 0002:00002710       ??_C@_0BC@DAFEJGAK@?5Type?5Descriptor?8@ 0000000180042710     libvcruntime:undname.obj
 0002:00002728       ??_C@_0BM@LDKODKLH@?5Base?5Class?5Descriptor?5at?5?$CI@ 0000000180042728     libvcruntime:undname.obj
 0002:00002748       ??_C@_0BD@LGICGFMM@?5Base?5Class?5Array?8@ 0000000180042748     libvcruntime:undname.obj
 0002:00002760       ??_C@_0BN@MECKDCOJ@?5Class?5Hierarchy?5Descriptor?8@ 0000000180042760     libvcruntime:undname.obj
 0002:00002780       ??_C@_0BK@CFCOFLF@?5Complete?5Object?5Locator?8@ 0000000180042780     libvcruntime:undname.obj
 0002:000027a0       ??_C@_0BG@JNJLAMPM@?$GAanonymous?5namespace?8@ 00000001800427a0     libvcruntime:undname.obj
 0002:000027b8       ??_C@_04HEJADOOB@CV?3?5@   00000001800427b8     libvcruntime:undname.obj
 0002:000027c0       ??_C@_02MOLJINC@?3?3@      00000001800427c0     libvcruntime:undname.obj
 0002:000027c8       ??_C@_0BE@JAEOCHPE@template?9parameter?9@ 00000001800427c8     libvcruntime:undname.obj
 0002:000027e0       ??_C@_0BF@LNLGBBNL@?$GAtemplate?9parameter?9@ 00000001800427e0     libvcruntime:undname.obj
 0002:000027f8       ??_C@_0O@KHGCOMHP@generic?9type?9@ 00000001800427f8     libvcruntime:undname.obj
 0002:00002808       ??_C@_0P@ODDENDLM@?$GAgeneric?9type?9@ 0000000180042808     libvcruntime:undname.obj
 0002:00002818       ??_C@_02OHHJMEON@?8?8@     0000000180042818     libvcruntime:undname.obj
 0002:00002820       ??_C@_0BN@IBLMMFAP@?$GAnon?9type?9template?9parameter@ 0000000180042820     libvcruntime:undname.obj
 0002:00002840       ??_C@_03DLDNIBIK@?$CFlf@   0000000180042840     libvcruntime:undname.obj
 0002:00002844       ??_C@_04OFALKAJ@?$DP?$DP_C@ 0000000180042844     libvcruntime:undname.obj
 0002:0000284c       ??_C@_04HIBGFPH@NULL@      000000018004284c     libvcruntime:undname.obj
 0002:00002858       ??_C@_0BK@IHCCFNEL@?$GAtemplate?9type?9parameter?9@ 0000000180042858     libvcruntime:undname.obj
 0002:00002878       ??_C@_0BK@OFCNNNKO@?$GAgeneric?9class?9parameter?9@ 0000000180042878     libvcruntime:undname.obj
 0002:00002898       ??_C@_0BL@NGJBLFIL@?$GAgeneric?9method?9parameter?9@ 0000000180042898     libvcruntime:undname.obj
 0002:000028b4       ??_C@_04GKJNKENE@void@     00000001800428b4     libvcruntime:undname.obj
 0002:000028c0       ??_C@_0BE@EODMJLIF@?$GAtemplate?9parameter@ 00000001800428c0     libvcruntime:undname.obj
 0002:000028d4       ??_C@_03OPGICMGF@?$HN?8?5@ 00000001800428d4     libvcruntime:undname.obj
 0002:000028d8       ??_C@_02IGFCGPIL@?$HN?8@   00000001800428d8     libvcruntime:undname.obj
 0002:000028e0       ??_C@_0N@CBHHHENL@?$GAvtordispex?$HL@ 00000001800428e0     libvcruntime:undname.obj
 0002:000028f0       ??_C@_0L@GHPFDFH@?$GAvtordisp?$HL@ 00000001800428f0     libvcruntime:undname.obj
 0002:00002900       ??_C@_0L@HNGCOGAE@?$GAadjustor?$HL@ 0000000180042900     libvcruntime:undname.obj
 0002:00002910       ??_C@_0CB@KJDOOODE@?$GAlocal?5static?5destructor?5helper@ 0000000180042910     libvcruntime:undname.obj
 0002:00002938       ??_C@_0DB@ILEFOCIJ@?$GAtemplate?5static?5data?5member?5co@ 0000000180042938     libvcruntime:undname.obj
 0002:00002970       ??_C@_0DA@HGFJFBBE@?$GAtemplate?5static?5data?5member?5de@ 0000000180042970     libvcruntime:undname.obj
 0002:000029a0       ??_C@_07PGOEDBHP@static?5@ 00000001800429a0     libvcruntime:undname.obj
 0002:000029a8       ??_C@_08NIEOINHE@virtual?5@ 00000001800429a8     libvcruntime:undname.obj
 0002:000029b8       ??_C@_09LAPHOOG@private?3?5@ 00000001800429b8     libvcruntime:undname.obj
 0002:000029c8       ??_C@_0M@GAIFPFIP@protected?3?5@ 00000001800429c8     libvcruntime:undname.obj
 0002:000029d8       ??_C@_08GPDDCMKI@public?3?5@ 00000001800429d8     libvcruntime:undname.obj
 0002:000029e8       ??_C@_08KJLFOPNE@?$FLthunk?$FN?3@ 00000001800429e8     libvcruntime:undname.obj
 0002:000029f8       ??_C@_0M@DHNBOJMP@extern?5?$CCC?$CC?5@ 00000001800429f8     libvcruntime:undname.obj
 0002:00002a04       ??_C@_02KCKGHPCA@?$CJ?5@   0000000180042a04     libvcruntime:undname.obj
 0002:00002a08       ??_C@_05CIHEBHNO@char?5@   0000000180042a08     libvcruntime:undname.obj
 0002:00002a10       ??_C@_06EHJMALKF@short?5@  0000000180042a10     libvcruntime:undname.obj
 0002:00002a18       ??_C@_04LAHKHJMA@int?5@    0000000180042a18     libvcruntime:undname.obj
 0002:00002a20       ??_C@_05CJIMAING@long?5@   0000000180042a20     libvcruntime:undname.obj
 0002:00002a28       ??_C@_09EBBEKKIH@unsigned?5@ 0000000180042a28     libvcruntime:undname.obj
 0002:00002a34       ??_C@_05BEFAKPML@void?5@   0000000180042a34     libvcruntime:undname.obj
 0002:00002a40       ??_C@_09GAIEOBLP@volatile?5@ 0000000180042a40     libvcruntime:undname.obj
 0002:00002a50       ??_C@_08PABEKFH@volatile@  0000000180042a50     libvcruntime:undname.obj
 0002:00002a60       ??_C@_0BA@LKIJLKPP@std?3?3nullptr_t?5@ 0000000180042a60     libvcruntime:undname.obj
 0002:00002a70       ??_C@_0P@GCOCNKDM@std?3?3nullptr_t@ 0000000180042a70     libvcruntime:undname.obj
 0002:00002a80       ??_C@_0L@EGPHHEKN@?$DMellipsis?$DO@ 0000000180042a80     libvcruntime:undname.obj
 0002:00002a8c       ??_C@_04EENFHACM@?0?4?4?4@ 0000000180042a8c     libvcruntime:undname.obj
 0002:00002a98       ??_C@_0M@ELJOJFFH@?0?$DMellipsis?$DO@ 0000000180042a98     libvcruntime:undname.obj
 0002:00002aa8       ??_C@_09DNHFEOJI@?5noexcept@ 0000000180042aa8     libvcruntime:undname.obj
 0002:00002ab4       ??_C@_03PBJBJNON@cpu@      0000000180042ab4     libvcruntime:undname.obj
 0002:00002ab8       ??_C@_03DCBBJBAA@amp@      0000000180042ab8     libvcruntime:undname.obj
 0002:00002abc       ??_C@_02KEGNLNML@?0?5@     0000000180042abc     libvcruntime:undname.obj
 0002:00002ac0       ??_C@_04ENMBGAPA@char@     0000000180042ac0     libvcruntime:undname.obj
 0002:00002ac8       ??_C@_05BFKKPKCG@short@    0000000180042ac8     libvcruntime:undname.obj
 0002:00002ad0       ??_C@_03JBIPMCLC@int@      0000000180042ad0     libvcruntime:undname.obj
 0002:00002ad4       ??_C@_04GOKPGOLB@long@     0000000180042ad4     libvcruntime:undname.obj
 0002:00002adc       ??_C@_05KNFBNCOH@float@    0000000180042adc     libvcruntime:undname.obj
 0002:00002ae4       ??_C@_06BNJCAIGJ@double@   0000000180042ae4     libvcruntime:undname.obj
 0002:00002aec       ??_C@_04DDKJGDCM@bool@     0000000180042aec     libvcruntime:undname.obj
 0002:00002af4       ??_C@_06EBGKOKIG@__int8@   0000000180042af4     libvcruntime:undname.obj
 0002:00002b00       ??_C@_07ICFHOGAF@__int16@  0000000180042b00     libvcruntime:undname.obj
 0002:00002b08       ??_C@_07OFLPPHGP@__int32@  0000000180042b08     libvcruntime:undname.obj
 0002:00002b10       ??_C@_07LFCOJCAC@__int64@  0000000180042b10     libvcruntime:undname.obj
 0002:00002b18       ??_C@_08GAHOLHEO@__int128@ 0000000180042b18     libvcruntime:undname.obj
 0002:00002b28       ??_C@_09EEKGDCPH@?$DMunknown?$DO@ 0000000180042b28     libvcruntime:undname.obj
 0002:00002b38       ??_C@_07CFHGOPCN@char8_t@  0000000180042b38     libvcruntime:undname.obj
 0002:00002b40       ??_C@_08HBIPOFJB@char16_t@ 0000000180042b40     libvcruntime:undname.obj
 0002:00002b50       ??_C@_08IECNCBKG@char32_t@ 0000000180042b50     libvcruntime:undname.obj
 0002:00002b60       ??_C@_07CLGGIAMF@wchar_t@  0000000180042b60     libvcruntime:undname.obj
 0002:00002b68       ??_C@_06GCICPBLB@__w64?5@  0000000180042b68     libvcruntime:undname.obj
 0002:00002b70       ??_C@_07NFANNNEC@UNKNOWN@  0000000180042b70     libvcruntime:undname.obj
 0002:00002b78       ??_C@_07EDHNAJHC@signed?5@ 0000000180042b78     libvcruntime:undname.obj
 0002:00002b80       ??_C@_05BNCCCJPP@const@    0000000180042b80     libvcruntime:undname.obj
 0002:00002b88       ??_C@_09EFNPDFFP@?5volatile@ 0000000180042b88     libvcruntime:undname.obj
 0002:00002b98       ??_C@_0P@GCIFDJCJ@?$GAunknown?5ecsu?8@ 0000000180042b98     libvcruntime:undname.obj
 0002:00002ba8       ??_C@_06MOJHIBMG@union?5@  0000000180042ba8     libvcruntime:undname.obj
 0002:00002bb0       ??_C@_07DIBCDNGL@struct?5@ 0000000180042bb0     libvcruntime:undname.obj
 0002:00002bb8       ??_C@_06LJBABKPM@class?5@  0000000180042bb8     libvcruntime:undname.obj
 0002:00002bc0       ??_C@_08KOFANOFK@coclass?5@ 0000000180042bc0     libvcruntime:undname.obj
 0002:00002bd0       ??_C@_0N@DLIEFKNA@cointerface?5@ 0000000180042bd0     libvcruntime:undname.obj
 0002:00002be0       ??_C@_05LJGMCFOG@enum?5@   0000000180042be0     libvcruntime:undname.obj
 0002:00002be8       ??_C@_06LIJLOJAG@const?5@  0000000180042be8     libvcruntime:undname.obj
 0002:00002bf0       ??_C@_02KJPKDIBN@?$CG?5@   0000000180042bf0     libvcruntime:undname.obj
 0002:00002bf4       ??_C@_03PCKGMOPB@?$CG?$CG?5@ 0000000180042bf4     libvcruntime:undname.obj
 0002:00002bf8       ??_C@_0M@EALIELKG@cli?3?3array?$DM@ 0000000180042bf8     libvcruntime:undname.obj
 0002:00002c08       ??_C@_0O@GKABPPIF@cli?3?3pin_ptr?$DM@ 0000000180042c08     libvcruntime:undname.obj
 0002:00002c18       ??_C@_02GOGNNPBN@?$CJ?$FL@ 0000000180042c18     libvcruntime:undname.obj
 0002:00002c1c       ??_C@_06EEGAIFAK@?$HLflat?$HN@ 0000000180042c1c     libvcruntime:undname.obj
 0002:00002c24       ??_C@_05JIBOFOHK@?$HLfor?5@ 0000000180042c24     libvcruntime:undname.obj
 0002:00002c2c       ??_C@_02MDINNEEG@s?5@      0000000180042c2c     libvcruntime:undname.obj
 0002:00002c38       ??_7charNode@@6B@          0000000180042c38     libvcruntime:undname.obj
 0002:00002c60       ??_7pcharNode@@6B@         0000000180042c60     libvcruntime:undname.obj
 0002:00002c88       ??_7pDNameNode@@6B@        0000000180042c88     libvcruntime:undname.obj
 0002:00002cb0       ??_7DNameStatusNode@@6B@   0000000180042cb0     libvcruntime:undname.obj
 0002:00002cd8       ??_7pairNode@@6B@          0000000180042cd8     libvcruntime:undname.obj
 0002:00002e00       ??_C@_04OKOHEJBO@?5?$DP?$DP?5@ 0000000180042e00     libvcruntime:undname.obj
 0002:00002e10       ?nodes@?1??make@DNameStatusNode@@SAPEBV2@W4DNameStatus@@@Z@4QBV2@B 0000000180042e10     libvcruntime:undname.obj
 0002:00002e68       ??_C@_1DM@KHCHBNEB@?$AAa?$AAp?$AAi?$AA?9?$AAm?$AAs?$AA?9?$AAw?$AAi?$AAn?$AA?9?$AAc?$AAo?$AAr?$AAe@ 0000000180042e68     libvcruntime:winapi_downlevel.obj
 0002:00002ea8       ??_C@_1DK@LPPGFMPP@?$AAa?$AAp?$AAi?$AA?9?$AAm?$AAs?$AA?9?$AAw?$AAi?$AAn?$AA?9?$AAc?$AAo?$AAr?$AAe@ 0000000180042ea8     libvcruntime:winapi_downlevel.obj
 0002:00002ee8       ??_C@_1BC@GDMECMAK@?$AAk?$AAe?$AAr?$AAn?$AAe?$AAl?$AA3?$AA2@ 0000000180042ee8     libvcruntime:winapi_downlevel.obj
 0002:00002f00       ??_C@_1BA@PFFKHIOG@?$AAa?$AAp?$AAi?$AA?9?$AAm?$AAs?$AA?9@ 0000000180042f00     libvcruntime:winapi_downlevel.obj
 0002:000030a8       ??_C@_1BI@BGOHAHKC@?$AAm?$AAs?$AAc?$AAo?$AAr?$AAe?$AAe?$AA?4?$AAd?$AAl?$AAl@ 00000001800430a8     libucrt:exit.obj
 0002:000030c0       ??_C@_0P@MIGLKIOC@CorExitProcess@ 00000001800430c0     libucrt:exit.obj
 0002:000030d0       ?standard_lookup_table_spectre@__crt_stdio_output@@3V?$spectre_mitigated_lookup_table@Ustate_transition_pair@__crt_stdio_output@@$0IA@@1@B 00000001800430d0     libucrt:output.obj
 0002:000034d0       ?format_validation_lookup_table_spectre@__crt_stdio_output@@3V?$spectre_mitigated_lookup_table@Ustate_transition_pair@__crt_stdio_output@@$0IA@@1@B 00000001800434d0     libucrt:output.obj
 0002:000038d0       ??_C@_1O@CEDCILHN@?$AA?$CI?$AAn?$AAu?$AAl?$AAl?$AA?$CJ@ 00000001800438d0     libucrt:output.obj
 0002:000038e0       ??_C@_06OJHGLDPL@?$CInull?$CJ@ 00000001800438e0     libucrt:output.obj
 0002:000038f0       ??_C@_0EA@FCLIIPNN@Visual?5C?$CL?$CL?5CRT?3?5Not?5enough?5memo@ 00000001800438f0     libucrt:strerror.obj
 0002:00003930       __acrt_exception_action_table 0000000180043930     libucrt:exception_filter.obj
 0002:000039f0       __acrt_signal_action_table_count 00000001800439f0     libucrt:exception_filter.obj
 0002:000039f8       __acrt_signal_action_first_fpe_index 00000001800439f8     libucrt:exception_filter.obj
 0002:00003a00       __acrt_signal_action_fpe_count 0000000180043a00     libucrt:exception_filter.obj
 0002:00003bb0       ??_C@_1EA@JGEFHKEI@?$AAa?$AAp?$AAi?$AA?9?$AAm?$AAs?$AA?9?$AAw?$AAi?$AAn?$AA?9?$AAc?$AAo?$AAr?$AAe@ 0000000180043bb0     libucrt:winapi_thunks.obj
 0002:00003bf0       ??_C@_1DI@IJCEHOCB@?$AAa?$AAp?$AAi?$AA?9?$AAm?$AAs?$AA?9?$AAw?$AAi?$AAn?$AA?9?$AAc?$AAo?$AAr?$AAe@ 0000000180043bf0     libucrt:winapi_thunks.obj
 0002:00003c30       ??_C@_1EI@MPIAOHOC@?$AAa?$AAp?$AAi?$AA?9?$AAm?$AAs?$AA?9?$AAw?$AAi?$AAn?$AA?9?$AAc?$AAo?$AAr?$AAe@ 0000000180043c30     libucrt:winapi_thunks.obj
 0002:00003c80       ??_C@_1FK@FPHCKFIE@?$AAa?$AAp?$AAi?$AA?9?$AAm?$AAs?$AA?9?$AAw?$AAi?$AAn?$AA?9?$AAc?$AAo?$AAr?$AAe@ 0000000180043c80     libucrt:winapi_thunks.obj
 0002:00003ce0       ??_C@_1EM@DILCGIIO@?$AAa?$AAp?$AAi?$AA?9?$AAm?$AAs?$AA?9?$AAw?$AAi?$AAn?$AA?9?$AAc?$AAo?$AAr?$AAe@ 0000000180043ce0     libucrt:winapi_thunks.obj
 0002:00003d30       ??_C@_1DM@LNCGDDPN@?$AAa?$AAp?$AAi?$AA?9?$AAm?$AAs?$AA?9?$AAw?$AAi?$AAn?$AA?9?$AAc?$AAo?$AAr?$AAe@ 0000000180043d30     libucrt:winapi_thunks.obj
 0002:00003d70       ??_C@_1DO@FPAPJEMD@?$AAa?$AAp?$AAi?$AA?9?$AAm?$AAs?$AA?9?$AAw?$AAi?$AAn?$AA?9?$AAc?$AAo?$AAr?$AAe@ 0000000180043d70     libucrt:winapi_thunks.obj
 0002:00003db0       ??_C@_1DK@NDHNAHIO@?$AAa?$AAp?$AAi?$AA?9?$AAm?$AAs?$AA?9?$AAw?$AAi?$AAn?$AA?9?$AAc?$AAo?$AAr?$AAe@ 0000000180043db0     libucrt:winapi_thunks.obj
 0002:00003df0       ??_C@_1DM@KGHDGBCM@?$AAa?$AAp?$AAi?$AA?9?$AAm?$AAs?$AA?9?$AAw?$AAi?$AAn?$AA?9?$AAc?$AAo?$AAr?$AAe@ 0000000180043df0     libucrt:winapi_thunks.obj
 0002:00003e30       ??_C@_1EO@IJIOEFOH@?$AAa?$AAp?$AAi?$AA?9?$AAm?$AAs?$AA?9?$AAw?$AAi?$AAn?$AA?9?$AAr?$AAt?$AAc?$AAo@ 0000000180043e30     libucrt:winapi_thunks.obj
 0002:00003e80       ??_C@_1FG@HHGEKANL@?$AAa?$AAp?$AAi?$AA?9?$AAm?$AAs?$AA?9?$AAw?$AAi?$AAn?$AA?9?$AAs?$AAe?$AAc?$AAu@ 0000000180043e80     libucrt:winapi_thunks.obj
 0002:00003ee0       ??_C@_1EG@DBIOJECG@?$AAe?$AAx?$AAt?$AA?9?$AAm?$AAs?$AA?9?$AAw?$AAi?$AAn?$AA?9?$AAn?$AAt?$AAu?$AAs@ 0000000180043ee0     libucrt:winapi_thunks.obj
 0002:00003f30       ??_C@_1EO@FIHMJCLF@?$AAe?$AAx?$AAt?$AA?9?$AAm?$AAs?$AA?9?$AAw?$AAi?$AAn?$AA?9?$AAn?$AAt?$AAu?$AAs@ 0000000180043f30     libucrt:winapi_thunks.obj
 0002:00003f80       ??_C@_1BC@DNHGCMLG@?$AAa?$AAd?$AAv?$AAa?$AAp?$AAi?$AA3?$AA2@ 0000000180043f80     libucrt:winapi_thunks.obj
 0002:00003f98       ??_C@_1M@OAIMIKLP@?$AAn?$AAt?$AAd?$AAl?$AAl@ 0000000180043f98     libucrt:winapi_thunks.obj
 0002:00003fb0       ??_C@_1EG@DPGNFKGC@?$AAa?$AAp?$AAi?$AA?9?$AAm?$AAs?$AA?9?$AAw?$AAi?$AAn?$AA?9?$AAa?$AAp?$AAp?$AAm@ 0000000180043fb0     libucrt:winapi_thunks.obj
 0002:00003ff8       ??_C@_1O@BCCLBEOE@?$AAu?$AAs?$AAe?$AAr?$AA3?$AA2@ 0000000180043ff8     libucrt:winapi_thunks.obj
 0002:00004008       ??_C@_1BA@IAIFMGEF@?$AAe?$AAx?$AAt?$AA?9?$AAm?$AAs?$AA?9@ 0000000180044008     libucrt:winapi_thunks.obj
 0002:00004020       ??_C@_0BA@FHFNEAED@AreFileApisANSI@ 0000000180044020     libucrt:winapi_thunks.obj
 0002:00004070       ??_C@_0BB@HBDEELFH@LocaleNameToLCID@ 0000000180044070     libucrt:winapi_thunks.obj
 0002:00004088       ??_C@_0N@PPOMPGGK@RoInitialize@ 0000000180044088     libucrt:winapi_thunks.obj
 0002:000040a0       ??_C@_0P@LLFHBIJD@RoUninitialize@ 00000001800440a0     libucrt:winapi_thunks.obj
 0002:000040b8       ??_C@_0CF@OJOFEIGO@AppPolicyGetProcessTerminationM@ 00000001800440b8     libucrt:winapi_thunks.obj
 0002:000040e8       ??_C@_0CF@NNDFDCOC@AppPolicyGetThreadInitializatio@ 00000001800440e8     libucrt:winapi_thunks.obj
 0002:00004190       ??_C@_03OEIAHPBN@INF@      0000000180044190     libucrt:cvt.obj
 0002:00004194       ??_C@_03OJHLLCGB@inf@      0000000180044194     libucrt:cvt.obj
 0002:00004198       ??_C@_03LKNCIKJB@NAN@      0000000180044198     libucrt:cvt.obj
 0002:0000419c       ??_C@_03LHCJEHON@nan@      000000018004419c     libucrt:cvt.obj
 0002:000041a0       ??_C@_09OFJJIMPC@NAN?$CISNAN?$CJ@ 00000001800441a0     libucrt:cvt.obj
 0002:000041b0       ??_C@_09IPFBKMDL@nan?$CIsnan?$CJ@ 00000001800441b0     libucrt:cvt.obj
 0002:000041c0       ??_C@_08IKHNHAJ@NAN?$CIIND?$CJ@ 00000001800441c0     libucrt:cvt.obj
 0002:000041d0       ??_C@_08OFCDMILK@nan?$CIind?$CJ@ 00000001800441d0     libucrt:cvt.obj
 0002:000041dc       ??_C@_05KLBDPFGC@e?$CL000@ 00000001800441dc     libucrt:cvt.obj
 0002:000041f0       __lc_time_c                00000001800441f0     libucrt:nlsdata.obj
 0002:000044b0       ??_C@_03KOEHGMDN@Sun@      00000001800444b0     libucrt:nlsdata.obj
 0002:000044b4       ??_C@_03PDAGKDH@Mon@       00000001800444b4     libucrt:nlsdata.obj
 0002:000044b8       ??_C@_03NAGEINEP@Tue@      00000001800444b8     libucrt:nlsdata.obj
 0002:000044bc       ??_C@_03MHOMLAJA@Wed@      00000001800444bc     libucrt:nlsdata.obj
 0002:000044c0       ??_C@_03IOFIKPDN@Thu@      00000001800444c0     libucrt:nlsdata.obj
 0002:000044c4       ??_C@_03IDIOELNC@Fri@      00000001800444c4     libucrt:nlsdata.obj
 0002:000044c8       ??_C@_03FEFJNEK@Sat@       00000001800444c8     libucrt:nlsdata.obj
 0002:000044cc       ??_C@_06OOPIFAJ@Sunday@    00000001800444cc     libucrt:nlsdata.obj
 0002:000044d4       ??_C@_06JLEDEDGH@Monday@   00000001800444d4     libucrt:nlsdata.obj
 0002:000044e0       ??_C@_07BAAGCFCM@Tuesday@  00000001800444e0     libucrt:nlsdata.obj
 0002:000044e8       ??_C@_09DLIGFAKA@Wednesday@ 00000001800444e8     libucrt:nlsdata.obj
 0002:000044f8       ??_C@_08HACCIKIA@Thursday@ 00000001800444f8     libucrt:nlsdata.obj
 0002:00004504       ??_C@_06JECMNKMI@Friday@   0000000180044504     libucrt:nlsdata.obj
 0002:00004510       ??_C@_08INBOOONO@Saturday@ 0000000180044510     libucrt:nlsdata.obj
 0002:0000451c       ??_C@_03JIHJHPIE@Jan@      000000018004451c     libucrt:nlsdata.obj
 0002:00004520       ??_C@_03HJBDCHOM@Feb@      0000000180044520     libucrt:nlsdata.obj
 0002:00004524       ??_C@_03ODNJBKGA@Mar@      0000000180044524     libucrt:nlsdata.obj
 0002:00004528       ??_C@_03LEOLGMJP@Apr@      0000000180044528     libucrt:nlsdata.obj
 0002:0000452c       ??_C@_03CNMDKL@May@        000000018004452c     libucrt:nlsdata.obj
 0002:00004530       ??_C@_03IDFGHECI@Jun@      0000000180044530     libucrt:nlsdata.obj
 0002:00004534       ??_C@_03LBGABGKK@Jul@      0000000180044534     libucrt:nlsdata.obj
 0002:00004538       ??_C@_03IFJFEIGA@Aug@      0000000180044538     libucrt:nlsdata.obj
 0002:0000453c       ??_C@_03GGCAPAJC@Sep@      000000018004453c     libucrt:nlsdata.obj
 0002:00004540       ??_C@_03BMAOKBAD@Oct@      0000000180044540     libucrt:nlsdata.obj
 0002:00004544       ??_C@_03JPJOFNIA@Nov@      0000000180044544     libucrt:nlsdata.obj
 0002:00004548       ??_C@_03MKABNOCG@Dec@      0000000180044548     libucrt:nlsdata.obj
 0002:00004550       ??_C@_07CGJPFGJA@January@  0000000180044550     libucrt:nlsdata.obj
 0002:00004558       ??_C@_08GNJGEPFN@February@ 0000000180044558     libucrt:nlsdata.obj
 0002:00004564       ??_C@_05HPCKOFNC@March@    0000000180044564     libucrt:nlsdata.obj
 0002:0000456c       ??_C@_05DMJDNLEJ@April@    000000018004456c     libucrt:nlsdata.obj
 0002:00004574       ??_C@_04CNLMGBGM@June@     0000000180044574     libucrt:nlsdata.obj
 0002:0000457c       ??_C@_04MIEPOIFP@July@     000000018004457c     libucrt:nlsdata.obj
 0002:00004584       ??_C@_06LBBHFDDG@August@   0000000180044584     libucrt:nlsdata.obj
 0002:00004590       ??_C@_09BHHEALKD@September@ 0000000180044590     libucrt:nlsdata.obj
 0002:000045a0       ??_C@_07JJNFCEND@October@  00000001800445a0     libucrt:nlsdata.obj
 0002:000045a8       ??_C@_08HCHEGEOA@November@ 00000001800445a8     libucrt:nlsdata.obj
 0002:000045b8       ??_C@_08EDHMEBNP@December@ 00000001800445b8     libucrt:nlsdata.obj
 0002:000045c4       ??_C@_02DEDBPAFC@AM@       00000001800445c4     libucrt:nlsdata.obj
 0002:000045c8       ??_C@_02CJNFDJBF@PM@       00000001800445c8     libucrt:nlsdata.obj
 0002:000045d0       ??_C@_08BPBNCDIB@MM?1dd?1yy@ 00000001800445d0     libucrt:nlsdata.obj
 0002:000045e0       ??_C@_0BE@CKGJFCPC@dddd?0?5MMMM?5dd?0?5yyyy@ 00000001800445e0     libucrt:nlsdata.obj
 0002:000045f8       ??_C@_08JCCMCCIL@HH?3mm?3ss@ 00000001800445f8     libucrt:nlsdata.obj
 0002:00004608       ??_C@_17MBGCMIPB@?$AAS?$AAu?$AAn@ 0000000180044608     libucrt:nlsdata.obj
 0002:00004610       ??_C@_17KBOMKBF@?$AAM?$AAo?$AAn@ 0000000180044610     libucrt:nlsdata.obj
 0002:00004618       ??_C@_17BMKGEGOJ@?$AAT?$AAu?$AAe@ 0000000180044618     libucrt:nlsdata.obj
 0002:00004620       ??_C@_17CJEDCEPE@?$AAW?$AAe?$AAd@ 0000000180044620     libucrt:nlsdata.obj
 0002:00004628       ??_C@_17PDPHAADD@?$AAT?$AAh?$AAu@ 0000000180044628     libucrt:nlsdata.obj
 0002:00004630       ??_C@_17HFOLPPLP@?$AAF?$AAr?$AAi@ 0000000180044630     libucrt:nlsdata.obj
 0002:00004638       ??_C@_17GGIBDPIH@?$AAS?$AAa?$AAt@ 0000000180044638     libucrt:nlsdata.obj
 0002:00004640       ??_C@_1O@IHNHDHPB@?$AAS?$AAu?$AAn?$AAd?$AAa?$AAy@ 0000000180044640     libucrt:nlsdata.obj
 0002:00004650       ??_C@_1O@MMNBFLIA@?$AAM?$AAo?$AAn?$AAd?$AAa?$AAy@ 0000000180044650     libucrt:nlsdata.obj
 0002:00004660       ??_C@_1BA@ENFBFFEK@?$AAT?$AAu?$AAe?$AAs?$AAd?$AAa?$AAy@ 0000000180044660     libucrt:nlsdata.obj
 0002:00004670       ??_C@_1BE@EBOGMDOH@?$AAW?$AAe?$AAd?$AAn?$AAe?$AAs?$AAd?$AAa?$AAy@ 0000000180044670     libucrt:nlsdata.obj
 0002:00004688       ??_C@_1BC@HHMNLIHE@?$AAT?$AAh?$AAu?$AAr?$AAs?$AAd?$AAa?$AAy@ 0000000180044688     libucrt:nlsdata.obj
 0002:000046a0       ??_C@_1O@PDICJHAG@?$AAF?$AAr?$AAi?$AAd?$AAa?$AAy@ 00000001800446a0     libucrt:nlsdata.obj
 0002:000046b0       ??_C@_1BC@ENMNNPAJ@?$AAS?$AAa?$AAt?$AAu?$AAr?$AAd?$AAa?$AAy@ 00000001800446b0     libucrt:nlsdata.obj
 0002:000046c8       ??_C@_17DKNBKCHM@?$AAJ?$AAa?$AAn@ 00000001800446c8     libucrt:nlsdata.obj
 0002:000046d0       ??_C@_17LMDJEKJN@?$AAF?$AAe?$AAb@ 00000001800446d0     libucrt:nlsdata.obj
 0002:000046d8       ??_C@_17CKNLEDEC@?$AAM?$AAa?$AAr@ 00000001800446d8     libucrt:nlsdata.obj
 0002:000046e0       ??_C@_17LFPOIHDD@?$AAA?$AAp?$AAr@ 00000001800446e0     libucrt:nlsdata.obj
 0002:000046e8       ??_C@_17PNNKMEED@?$AAM?$AAa?$AAy@ 00000001800446e8     libucrt:nlsdata.obj
 0002:000046f0       ??_C@_17KCJGOCPB@?$AAJ?$AAu?$AAn@ 00000001800446f0     libucrt:nlsdata.obj
 0002:000046f8       ??_C@_17IJPCKHK@?$AAJ?$AAu?$AAl@ 00000001800446f8     libucrt:nlsdata.obj
 0002:00004700       ??_C@_17ICPELBCN@?$AAA?$AAu?$AAg@ 0000000180044700     libucrt:nlsdata.obj
 0002:00004708       ??_C@_17HCHCOKMG@?$AAS?$AAe?$AAp@ 0000000180044708     libucrt:nlsdata.obj
 0002:00004710       ??_C@_17FNLKOI@?$AAO?$AAc?$AAt@ 0000000180044710     libucrt:nlsdata.obj
 0002:00004718       ??_C@_17BBDMLCIG@?$AAN?$AAo?$AAv@ 0000000180044718     libucrt:nlsdata.obj
 0002:00004720       ??_C@_17EGKACKIF@?$AAD?$AAe?$AAc@ 0000000180044720     libucrt:nlsdata.obj
 0002:00004728       ??_C@_1BA@EFMEIEBA@?$AAJ?$AAa?$AAn?$AAu?$AAa?$AAr?$AAy@ 0000000180044728     libucrt:nlsdata.obj
 0002:00004738       ??_C@_1BC@JGDDFFAM@?$AAF?$AAe?$AAb?$AAr?$AAu?$AAa?$AAr?$AAy@ 0000000180044738     libucrt:nlsdata.obj
 0002:00004750       ??_C@_1M@IKEENEDF@?$AAM?$AAa?$AAr?$AAc?$AAh@ 0000000180044750     libucrt:nlsdata.obj
 0002:00004760       ??_C@_1M@GJNLMHFD@?$AAA?$AAp?$AAr?$AAi?$AAl@ 0000000180044760     libucrt:nlsdata.obj
 0002:00004770       ??_C@_19EPFLPGAP@?$AAJ?$AAu?$AAn?$AAe@ 0000000180044770     libucrt:nlsdata.obj
 0002:00004780       ??_C@_19BIFMLPCD@?$AAJ?$AAu?$AAl?$AAy@ 0000000180044780     libucrt:nlsdata.obj
 0002:00004790       ??_C@_1O@PAHLKOAC@?$AAA?$AAu?$AAg?$AAu?$AAs?$AAt@ 0000000180044790     libucrt:nlsdata.obj
 0002:000047a0       ??_C@_1BE@DKAAMBJL@?$AAS?$AAe?$AAp?$AAt?$AAe?$AAm?$AAb?$AAe?$AAr@ 00000001800447a0     libucrt:nlsdata.obj
 0002:000047b8       ??_C@_1BA@EPANDLNG@?$AAO?$AAc?$AAt?$AAo?$AAb?$AAe?$AAr@ 00000001800447b8     libucrt:nlsdata.obj
 0002:000047c8       ??_C@_1BC@BGLIFPF@?$AAN?$AAo?$AAv?$AAe?$AAm?$AAb?$AAe?$AAr@ 00000001800447c8     libucrt:nlsdata.obj
 0002:000047e0       ??_C@_1BC@FEMKIFH@?$AAD?$AAe?$AAc?$AAe?$AAm?$AAb?$AAe?$AAr@ 00000001800447e0     libucrt:nlsdata.obj
 0002:000047f4       ??_C@_15ODEHAHHF@?$AAA?$AAM@ 00000001800447f4     libucrt:nlsdata.obj
 0002:000047fc       ??_C@_15CLMNNGEL@?$AAP?$AAM@ 00000001800447fc     libucrt:nlsdata.obj
 0002:00004808       ??_C@_1BC@IEBCMHCM@?$AAM?$AAM?$AA?1?$AAd?$AAd?$AA?1?$AAy?$AAy@ 0000000180044808     libucrt:nlsdata.obj
 0002:00004820       ??_C@_1CI@KNAKOEBC@?$AAd?$AAd?$AAd?$AAd?$AA?0?$AA?5?$AAM?$AAM?$AAM?$AAM?$AA?5?$AAd?$AAd?$AA?0?$AA?5@ 0000000180044820     libucrt:nlsdata.obj
 0002:00004848       ??_C@_1BC@GDGBMEMK@?$AAH?$AAH?$AA?3?$AAm?$AAm?$AA?3?$AAs?$AAs@ 0000000180044848     libucrt:nlsdata.obj
 0002:00004860       ??_C@_1M@BMHNFIME@?$AAe?$AAn?$AA?9?$AAU?$AAS@ 0000000180044860     libucrt:nlsdata.obj
 0002:00004870       _sys_first_posix_error     0000000180044870     libucrt:syserr.obj
 0002:00004878       _sys_last_posix_error      0000000180044878     libucrt:syserr.obj
 0002:00004880       _sys_posix_errlist         0000000180044880     libucrt:syserr.obj
 0002:000049d0       _sys_errlist               00000001800449d0     libucrt:syserr.obj
 0002:00004b30       ??_C@_08INEPGKHH@No?5error@ 0000000180044b30     libucrt:syserr.obj
 0002:00004b40       ??_C@_0BK@FMDHKPNF@No?5such?5file?5or?5directory@ 0000000180044b40     libucrt:syserr.obj
 0002:00004b60       ??_C@_0BA@FKIAIBGA@No?5such?5process@ 0000000180044b60     libucrt:syserr.obj
 0002:00004b70       ??_C@_0BK@FJBOAFDK@Interrupted?5function?5call@ 0000000180044b70     libucrt:syserr.obj
 0002:00004b90       ??_C@_0BD@KKNFOBBD@Input?1output?5error@ 0000000180044b90     libucrt:syserr.obj
 0002:00004ba8       ??_C@_0BK@DPKMCKJ@No?5such?5device?5or?5address@ 0000000180044ba8     libucrt:syserr.obj
 0002:00004bc8       ??_C@_0BC@MFFGCDFL@Arg?5list?5too?5long@ 0000000180044bc8     libucrt:syserr.obj
 0002:00004be0       ??_C@_0BC@HKPNECK@Exec?5format?5error@ 0000000180044be0     libucrt:syserr.obj
 0002:00004bf8       ??_C@_0BE@NFGDDCEF@Bad?5file?5descriptor@ 0000000180044bf8     libucrt:syserr.obj
 0002:00004c10       ??_C@_0BD@LOHELEP@No?5child?5processes@ 0000000180044c10     libucrt:syserr.obj
 0002:00004c28       ??_C@_0CB@EPFKGNAK@Resource?5temporarily?5unavailabl@ 0000000180044c28     libucrt:syserr.obj
 0002:00004c50       ??_C@_0BB@IMDKMPFB@Not?5enough?5space@ 0000000180044c50     libucrt:syserr.obj
 0002:00004c68       ??_C@_0BC@HFNFNKAI@Permission?5denied@ 0000000180044c68     libucrt:syserr.obj
 0002:00004c80       ??_C@_0M@LOEHLCJD@Bad?5address@ 0000000180044c80     libucrt:syserr.obj
 0002:00004c90       ??_C@_0O@NIPGCINC@Unknown?5error@ 0000000180044c90     libucrt:syserr.obj
 0002:00004ca0       ??_C@_0BA@BIBLIOEK@Resource?5device@ 0000000180044ca0     libucrt:syserr.obj
 0002:00004cb0       ??_C@_0M@NAAJNNGH@File?5exists@ 0000000180044cb0     libucrt:syserr.obj
 0002:00004cc0       ??_C@_0O@OAMDNOCP@Improper?5link@ 0000000180044cc0     libucrt:syserr.obj
 0002:00004cd0       ??_C@_0P@NLEIANHE@No?5such?5device@ 0000000180044cd0     libucrt:syserr.obj
 0002:00004ce0       ??_C@_0BA@CJBACOOL@Not?5a?5directory@ 0000000180044ce0     libucrt:syserr.obj
 0002:00004cf0       ??_C@_0P@NDHGCGKE@Is?5a?5directory@ 0000000180044cf0     libucrt:syserr.obj
 0002:00004d00       ??_C@_0BB@HMGGCEBG@Invalid?5argument@ 0000000180044d00     libucrt:syserr.obj
 0002:00004d18       ??_C@_0BO@IIFBODJE@Too?5many?5open?5files?5in?5system@ 0000000180044d18     libucrt:syserr.obj
 0002:00004d38       ??_C@_0BE@INBJMKGG@Too?5many?5open?5files@ 0000000180044d38     libucrt:syserr.obj
 0002:00004d50       ??_C@_0CE@ONOKNLPF@Inappropriate?5I?1O?5control?5opera@ 0000000180044d50     libucrt:syserr.obj
 0002:00004d78       ??_C@_0P@LFMMIPAE@File?5too?5large@ 0000000180044d78     libucrt:syserr.obj
 0002:00004d88       ??_C@_0BI@FEALHKLD@No?5space?5left?5on?5device@ 0000000180044d88     libucrt:syserr.obj
 0002:00004da0       ??_C@_0N@FEHLOILP@Invalid?5seek@ 0000000180044da0     libucrt:syserr.obj
 0002:00004db0       ??_C@_0BG@DDBFNKBH@Read?9only?5file?5system@ 0000000180044db0     libucrt:syserr.obj
 0002:00004dc8       ??_C@_0P@PKCJJLLM@Too?5many?5links@ 0000000180044dc8     libucrt:syserr.obj
 0002:00004dd8       ??_C@_0M@LHEPIIOM@Broken?5pipe@ 0000000180044dd8     libucrt:syserr.obj
 0002:00004de8       ??_C@_0N@MMJPGLJK@Domain?5error@ 0000000180044de8     libucrt:syserr.obj
 0002:00004df8       ??_C@_0BB@FCBJFCAJ@Result?5too?5large@ 0000000180044df8     libucrt:syserr.obj
 0002:00004e10       ??_C@_0BK@JAEBMJJM@Resource?5deadlock?5avoided@ 0000000180044e10     libucrt:syserr.obj
 0002:00004e30       ??_C@_0BC@BEDIHIDK@Filename?5too?5long@ 0000000180044e30     libucrt:syserr.obj
 0002:00004e48       ??_C@_0BD@CLHBCGPB@No?5locks?5available@ 0000000180044e48     libucrt:syserr.obj
 0002:00004e60       ??_C@_0BJ@IHEHINLI@Function?5not?5implemented@ 0000000180044e60     libucrt:syserr.obj
 0002:00004e80       ??_C@_0BE@ICMCHPHH@Directory?5not?5empty@ 0000000180044e80     libucrt:syserr.obj
 0002:00004e98       ??_C@_0BG@KLEAJEFJ@Illegal?5byte?5sequence@ 0000000180044e98     libucrt:syserr.obj
 0002:00004eb0       _sys_nerr                  0000000180044eb0     libucrt:syserr.obj
 0002:00004ed8       ??_C@_1M@HPNHIDJI@?$AAj?$AAa?$AA?9?$AAJ?$AAP@ 0000000180044ed8     libucrt:mbctype.obj
 0002:00004ee8       ??_C@_1M@BIBDDEMK@?$AAz?$AAh?$AA?9?$AAC?$AAN@ 0000000180044ee8     libucrt:mbctype.obj
 0002:00004ef8       ??_C@_1M@JLOOOEGK@?$AAk?$AAo?$AA?9?$AAK?$AAR@ 0000000180044ef8     libucrt:mbctype.obj
 0002:00004f08       ??_C@_1M@CLNBBOPM@?$AAz?$AAh?$AA?9?$AAT?$AAW@ 0000000180044f08     libucrt:mbctype.obj
 0002:00004f20       __newctype                 0000000180044f20     libucrt:ctype.obj
 0002:00005220       __newclmap                 0000000180045220     libucrt:ctype.obj
 0002:000053a0       __newcumap                 00000001800453a0     libucrt:ctype.obj
 0002:00006360       ??_C@_15EMKDOKLE@?$AAa?$AAr@ 0000000180046360     libucrt:lcidtoname_downlevel.obj
 0002:00006368       ??_C@_15KNPADPLH@?$AAb?$AAg@ 0000000180046368     libucrt:lcidtoname_downlevel.obj
 0002:00006370       ??_C@_15EDMHLDMO@?$AAc?$AAa@ 0000000180046370     libucrt:lcidtoname_downlevel.obj
 0002:00006378       ??_C@_1O@BPEAJADD@?$AAz?$AAh?$AA?9?$AAC?$AAH?$AAS@ 0000000180046378     libucrt:lcidtoname_downlevel.obj
 0002:00006388       ??_C@_15LJNHCMNK@?$AAc?$AAs@ 0000000180046388     libucrt:lcidtoname_downlevel.obj
 0002:00006390       ??_C@_15FOMCIDHG@?$AAd?$AAa@ 0000000180046390     libucrt:lcidtoname_downlevel.obj
 0002:00006398       ??_C@_15NBKABECB@?$AAd?$AAe@ 0000000180046398     libucrt:lcidtoname_downlevel.obj
 0002:000063a0       ??_C@_15GHPEIIAO@?$AAe?$AAl@ 00000001800463a0     libucrt:lcidtoname_downlevel.obj
 0002:000063a8       ??_C@_15MNPNEAIF@?$AAe?$AAn@ 00000001800463a8     libucrt:lcidtoname_downlevel.obj
 0002:000063b0       ??_C@_15GPIOMPMH@?$AAe?$AAs@ 00000001800463b0     libucrt:lcidtoname_downlevel.obj
 0002:000063b8       ??_C@_15NGLOAKJC@?$AAf?$AAi@ 00000001800463b8     libucrt:lcidtoname_downlevel.obj
 0002:000063c0       ??_C@_15FBKGNKAM@?$AAf?$AAr@ 00000001800463c0     libucrt:lcidtoname_downlevel.obj
 0002:000063c8       ??_C@_15KGGCNEFK@?$AAh?$AAe@ 00000001800463c8     libucrt:lcidtoname_downlevel.obj
 0002:000063d0       ??_C@_15PGHLIDMF@?$AAh?$AAu@ 00000001800463d0     libucrt:lcidtoname_downlevel.obj
 0002:000063d8       ??_C@_15BIEMAPLM@?$AAi?$AAs@ 00000001800463d8     libucrt:lcidtoname_downlevel.obj
 0002:000063e0       ??_C@_15IFJLDHAF@?$AAi?$AAt@ 00000001800463e0     libucrt:lcidtoname_downlevel.obj
 0002:000063e8       ??_C@_15GEMIOCAG@?$AAj?$AAa@ 00000001800463e8     libucrt:lcidtoname_downlevel.obj
 0002:000063f0       ??_C@_15EPELEGJA@?$AAk?$AAo@ 00000001800463f0     libucrt:lcidtoname_downlevel.obj
 0002:000063f8       ??_C@_15NDDHIMN@?$AAn?$AAl@ 00000001800463f8     libucrt:lcidtoname_downlevel.obj
 0002:00006400       ??_C@_15BPIGNHCD@?$AAn?$AAo@ 0000000180046400     libucrt:lcidtoname_downlevel.obj
 0002:00006408       ??_C@_15DEOPBLCG@?$AAp?$AAl@ 0000000180046408     libucrt:lcidtoname_downlevel.obj
 0002:00006410       ??_C@_15KBECGEFG@?$AAp?$AAt@ 0000000180046410     libucrt:lcidtoname_downlevel.obj
 0002:00006418       ??_C@_15GLJCBFMD@?$AAr?$AAo@ 0000000180046418     libucrt:lcidtoname_downlevel.obj
 0002:00006420       ??_C@_15FEDGKCDI@?$AAr?$AAu@ 0000000180046420     libucrt:lcidtoname_downlevel.obj
 0002:00006428       ??_C@_15GLKMLLHM@?$AAh?$AAr@ 0000000180046428     libucrt:lcidtoname_downlevel.obj
 0002:00006430       ??_C@_15CPKMFBDB@?$AAs?$AAk@ 0000000180046430     libucrt:lcidtoname_downlevel.obj
 0002:00006438       ??_C@_15BAAIOGMK@?$AAs?$AAq@ 0000000180046438     libucrt:lcidtoname_downlevel.obj
 0002:00006440       ??_C@_15INNPNOHD@?$AAs?$AAv@ 0000000180046440     libucrt:lcidtoname_downlevel.obj
 0002:00006448       ??_C@_15CABMMOGH@?$AAt?$AAh@ 0000000180046448     libucrt:lcidtoname_downlevel.obj
 0002:00006450       ??_C@_15BPLIHJJM@?$AAt?$AAr@ 0000000180046450     libucrt:lcidtoname_downlevel.obj
 0002:00006458       ??_C@_15NEOEKKDJ@?$AAu?$AAr@ 0000000180046458     libucrt:lcidtoname_downlevel.obj
 0002:00006460       ??_C@_15NFICGAJK@?$AAi?$AAd@ 0000000180046460     libucrt:lcidtoname_downlevel.obj
 0002:00006468       ??_C@_15PJPFLCCM@?$AAu?$AAk@ 0000000180046468     libucrt:lcidtoname_downlevel.obj
 0002:00006470       ??_C@_15HPJPHDM@?$AAb?$AAe@ 0000000180046470     libucrt:lcidtoname_downlevel.obj
 0002:00006478       ??_C@_15LCHLGJII@?$AAs?$AAl@ 0000000180046478     libucrt:lcidtoname_downlevel.obj
 0002:00006480       ??_C@_15PCFJPHHO@?$AAe?$AAt@ 0000000180046480     libucrt:lcidtoname_downlevel.obj
 0002:00006488       ??_C@_15HPFPGODN@?$AAl?$AAv@ 0000000180046488     libucrt:lcidtoname_downlevel.obj
 0002:00006490       ??_C@_15NFFGKGLG@?$AAl?$AAt@ 0000000180046490     libucrt:lcidtoname_downlevel.obj
 0002:00006498       ??_C@_15BDAKCCHN@?$AAf?$AAa@ 0000000180046498     libucrt:lcidtoname_downlevel.obj
 0002:000064a0       ??_C@_15NFGIAIAJ@?$AAv?$AAi@ 00000001800464a0     libucrt:lcidtoname_downlevel.obj
 0002:000064a8       ??_C@_15LMKNDMHN@?$AAh?$AAy@ 00000001800464a8     libucrt:lcidtoname_downlevel.obj
 0002:000064b0       ??_C@_15IJBHMCFL@?$AAa?$AAz@ 00000001800464b0     libucrt:lcidtoname_downlevel.obj
 0002:000064b8       ??_C@_15EKOFJABL@?$AAe?$AAu@ 00000001800464b8     libucrt:lcidtoname_downlevel.obj
 0002:000064c0       ??_C@_15BGHADCNK@?$AAm?$AAk@ 00000001800464c0     libucrt:lcidtoname_downlevel.obj
 0002:000064c8       ??_C@_15JDNICKHM@?$AAa?$AAf@ 00000001800464c8     libucrt:lcidtoname_downlevel.obj
 0002:000064d0       ??_C@_15KPJEDBKD@?$AAk?$AAa@ 00000001800464d0     libucrt:lcidtoname_downlevel.obj
 0002:000064d8       ??_C@_15PDNFFFEO@?$AAf?$AAo@ 00000001800464d8     libucrt:lcidtoname_downlevel.obj
 0002:000064e0       ??_C@_15OMLEGLOC@?$AAh?$AAi@ 00000001800464e0     libucrt:lcidtoname_downlevel.obj
 0002:000064e8       ??_C@_15IDNNENKK@?$AAm?$AAs@ 00000001800464e8     libucrt:lcidtoname_downlevel.obj
 0002:000064f0       ??_C@_15MACJNBMH@?$AAk?$AAk@ 00000001800464f0     libucrt:lcidtoname_downlevel.obj
 0002:000064f8       ??_C@_15DKDJEOND@?$AAk?$AAy@ 00000001800464f8     libucrt:lcidtoname_downlevel.obj
 0002:00006500       ??_C@_15DFGDLJBG@?$AAs?$AAw@ 0000000180046500     libucrt:lcidtoname_downlevel.obj
 0002:00006508       ??_C@_15BBFAICNG@?$AAu?$AAz@ 0000000180046508     libucrt:lcidtoname_downlevel.obj
 0002:00006510       ??_C@_15DKNDCGEA@?$AAt?$AAt@ 0000000180046510     libucrt:lcidtoname_downlevel.obj
 0002:00006518       ??_C@_15MGIFMDPL@?$AAp?$AAa@ 0000000180046518     libucrt:lcidtoname_downlevel.obj
 0002:00006520       ??_C@_15HCNDBBA@?$AAg?$AAu@ 0000000180046520     libucrt:lcidtoname_downlevel.obj
 0002:00006528       ??_C@_15FNBEIBON@?$AAt?$AAa@ 0000000180046528     libucrt:lcidtoname_downlevel.obj
 0002:00006530       ??_C@_15NCHGBGLK@?$AAt?$AAe@ 0000000180046530     libucrt:lcidtoname_downlevel.obj
 0002:00006538       ??_C@_15PHPHCBPF@?$AAk?$AAn@ 0000000180046538     libucrt:lcidtoname_downlevel.obj
 0002:00006540       ??_C@_15DLGBCKMP@?$AAm?$AAr@ 0000000180046540     libucrt:lcidtoname_downlevel.obj
 0002:00006548       ??_C@_15EABBLBFF@?$AAs?$AAa@ 0000000180046548     libucrt:lcidtoname_downlevel.obj
 0002:00006550       ??_C@_15CBKOMCOI@?$AAm?$AAn@ 0000000180046550     libucrt:lcidtoname_downlevel.obj
 0002:00006558       ??_C@_15CKDMCJAF@?$AAg?$AAl@ 0000000180046558     libucrt:lcidtoname_downlevel.obj
 0002:00006560       ??_C@_17CNJFBPG@?$AAk?$AAo?$AAk@ 0000000180046560     libucrt:lcidtoname_downlevel.obj
 0002:00006568       ??_C@_17FFBJICPL@?$AAs?$AAy?$AAr@ 0000000180046568     libucrt:lcidtoname_downlevel.obj
 0002:00006570       ??_C@_17KPNDCPAF@?$AAd?$AAi?$AAv@ 0000000180046570     libucrt:lcidtoname_downlevel.obj
 0002:00006578       ??_C@_1M@OKAHONE@?$AAa?$AAr?$AA?9?$AAS?$AAA@ 0000000180046578     libucrt:lcidtoname_downlevel.obj
 0002:00006588       ??_C@_1M@FFFIGIGK@?$AAb?$AAg?$AA?9?$AAB?$AAG@ 0000000180046588     libucrt:lcidtoname_downlevel.obj
 0002:00006598       ??_C@_1M@BJNKEDC@?$AAc?$AAa?$AA?9?$AAE?$AAS@ 0000000180046598     libucrt:lcidtoname_downlevel.obj
 0002:000065a8       ??_C@_1M@IJJHFJHA@?$AAc?$AAs?$AA?9?$AAC?$AAZ@ 00000001800465a8     libucrt:lcidtoname_downlevel.obj
 0002:000065b8       ??_C@_1M@CLPEOBGI@?$AAd?$AAa?$AA?9?$AAD?$AAK@ 00000001800465b8     libucrt:lcidtoname_downlevel.obj
 0002:000065c8       ??_C@_1M@MCMADGCB@?$AAd?$AAe?$AA?9?$AAD?$AAE@ 00000001800465c8     libucrt:lcidtoname_downlevel.obj
 0002:000065d8       ??_C@_1M@OOCKEMAM@?$AAe?$AAl?$AA?9?$AAG?$AAR@ 00000001800465d8     libucrt:lcidtoname_downlevel.obj
 0002:000065e8       ??_C@_1M@DDNJFGID@?$AAf?$AAi?$AA?9?$AAF?$AAI@ 00000001800465e8     libucrt:lcidtoname_downlevel.obj
 0002:000065f8       ??_C@_1M@GLIPPMAC@?$AAf?$AAr?$AA?9?$AAF?$AAR@ 00000001800465f8     libucrt:lcidtoname_downlevel.obj
 0002:00006608       ??_C@_1M@GFMCHPE@?$AAh?$AAe?$AA?9?$AAI?$AAL@ 0000000180046608     libucrt:lcidtoname_downlevel.obj
 0002:00006618       ??_C@_1M@MHLPGNKM@?$AAh?$AAu?$AA?9?$AAH?$AAU@ 0000000180046618     libucrt:lcidtoname_downlevel.obj
 0002:00006628       ??_C@_1M@LPDDNNPN@?$AAi?$AAs?$AA?9?$AAI?$AAS@ 0000000180046628     libucrt:lcidtoname_downlevel.obj
 0002:00006638       ??_C@_1M@MADIPODN@?$AAi?$AAt?$AA?9?$AAI?$AAT@ 0000000180046638     libucrt:lcidtoname_downlevel.obj
 0002:00006648       ??_C@_1M@IHBJJGG@?$AAn?$AAl?$AA?9?$AAN?$AAL@ 0000000180046648     libucrt:lcidtoname_downlevel.obj
 0002:00006658       ??_C@_1M@EANAGDL@?$AAn?$AAb?$AA?9?$AAN?$AAO@ 0000000180046658     libucrt:lcidtoname_downlevel.obj
 0002:00006668       ??_C@_1M@NEIEMEGP@?$AAp?$AAl?$AA?9?$AAP?$AAL@ 0000000180046668     libucrt:lcidtoname_downlevel.obj
 0002:00006678       ??_C@_1M@BOCFIGEP@?$AAp?$AAt?$AA?9?$AAB?$AAR@ 0000000180046678     libucrt:lcidtoname_downlevel.obj
 0002:00006688       ??_C@_1M@IMPFOPBG@?$AAr?$AAo?$AA?9?$AAR?$AAO@ 0000000180046688     libucrt:lcidtoname_downlevel.obj
 0002:00006698       ??_C@_1M@IDNNEJMM@?$AAr?$AAu?$AA?9?$AAR?$AAU@ 0000000180046698     libucrt:lcidtoname_downlevel.obj
 0002:000066a8       ??_C@_1M@LILEEOGM@?$AAh?$AAr?$AA?9?$AAH?$AAR@ 00000001800466a8     libucrt:lcidtoname_downlevel.obj
 0002:000066b8       ??_C@_1M@FKIFEHPB@?$AAs?$AAk?$AA?9?$AAS?$AAK@ 00000001800466b8     libucrt:lcidtoname_downlevel.obj
 0002:000066c8       ??_C@_1M@LJMAMNPJ@?$AAs?$AAq?$AA?9?$AAA?$AAL@ 00000001800466c8     libucrt:lcidtoname_downlevel.obj
 0002:000066d8       ??_C@_1M@GIAKDKJK@?$AAs?$AAv?$AA?9?$AAS?$AAE@ 00000001800466d8     libucrt:lcidtoname_downlevel.obj
 0002:000066e8       ??_C@_1M@MKJKIKCL@?$AAt?$AAh?$AA?9?$AAT?$AAH@ 00000001800466e8     libucrt:lcidtoname_downlevel.obj
 0002:000066f8       ??_C@_1M@MFLCCMPB@?$AAt?$AAr?$AA?9?$AAT?$AAR@ 00000001800466f8     libucrt:lcidtoname_downlevel.obj
 0002:00006708       ??_C@_1M@OIJHDKJN@?$AAu?$AAr?$AA?9?$AAP?$AAK@ 0000000180046708     libucrt:lcidtoname_downlevel.obj
 0002:00006718       ??_C@_1M@LHIPCIEK@?$AAi?$AAd?$AA?9?$AAI?$AAD@ 0000000180046718     libucrt:lcidtoname_downlevel.obj
 0002:00006728       ??_C@_1M@MFMOBGI@?$AAu?$AAk?$AA?9?$AAU?$AAA@ 0000000180046728     libucrt:lcidtoname_downlevel.obj
 0002:00006738       ??_C@_1M@OBGLJIPL@?$AAb?$AAe?$AA?9?$AAB?$AAY@ 0000000180046738     libucrt:lcidtoname_downlevel.obj
 0002:00006748       ??_C@_1M@BCFAJEAD@?$AAs?$AAl?$AA?9?$AAS?$AAI@ 0000000180046748     libucrt:lcidtoname_downlevel.obj
 0002:00006758       ??_C@_1M@FKFFEDDN@?$AAe?$AAt?$AA?9?$AAE?$AAE@ 0000000180046758     libucrt:lcidtoname_downlevel.obj
 0002:00006768       ??_C@_1M@KGKKAACI@?$AAl?$AAv?$AA?9?$AAL?$AAV@ 0000000180046768     libucrt:lcidtoname_downlevel.obj
 0002:00006778       ??_C@_1M@IFGBIJO@?$AAl?$AAt?$AA?9?$AAL?$AAT@ 0000000180046778     libucrt:lcidtoname_downlevel.obj
 0002:00006788       ??_C@_1M@FGEAHEDM@?$AAf?$AAa?$AA?9?$AAI?$AAR@ 0000000180046788     libucrt:lcidtoname_downlevel.obj
 0002:00006798       ??_C@_1M@KBMAIBFN@?$AAv?$AAi?$AA?9?$AAV?$AAN@ 0000000180046798     libucrt:lcidtoname_downlevel.obj
 0002:000067a8       ??_C@_1M@GPCBKDJK@?$AAh?$AAy?$AA?9?$AAA?$AAM@ 00000001800467a8     libucrt:lcidtoname_downlevel.obj
 0002:000067b8       ??_C@_1BG@BECMDDJB@?$AAa?$AAz?$AA?9?$AAA?$AAZ?$AA?9?$AAL?$AAa?$AAt?$AAn@ 00000001800467b8     libucrt:lcidtoname_downlevel.obj
 0002:000067d0       ??_C@_1M@MAOFCAEA@?$AAe?$AAu?$AA?9?$AAE?$AAS@ 00000001800467d0     libucrt:lcidtoname_downlevel.obj
 0002:000067e0       ??_C@_1M@IGHABKPI@?$AAm?$AAk?$AA?9?$AAM?$AAK@ 00000001800467e0     libucrt:lcidtoname_downlevel.obj
 0002:000067f0       ??_C@_1M@IAIGNEJG@?$AAt?$AAn?$AA?9?$AAZ?$AAA@ 00000001800467f0     libucrt:lcidtoname_downlevel.obj
 0002:00006800       ??_C@_1M@IIJCOJFA@?$AAx?$AAh?$AA?9?$AAZ?$AAA@ 0000000180046800     libucrt:lcidtoname_downlevel.obj
 0002:00006810       ??_C@_1M@LGPJHNJH@?$AAz?$AAu?$AA?9?$AAZ?$AAA@ 0000000180046810     libucrt:lcidtoname_downlevel.obj
 0002:00006820       ??_C@_1M@HOKAOIO@?$AAa?$AAf?$AA?9?$AAZ?$AAA@ 0000000180046820     libucrt:lcidtoname_downlevel.obj
 0002:00006830       ??_C@_1M@DPCLHLIE@?$AAk?$AAa?$AA?9?$AAG?$AAE@ 0000000180046830     libucrt:lcidtoname_downlevel.obj
 0002:00006840       ??_C@_1M@BLKMHJBI@?$AAf?$AAo?$AA?9?$AAF?$AAO@ 0000000180046840     libucrt:lcidtoname_downlevel.obj
 0002:00006850       ??_C@_1M@LGGJAPPB@?$AAh?$AAi?$AA?9?$AAI?$AAN@ 0000000180046850     libucrt:lcidtoname_downlevel.obj
 0002:00006860       ??_C@_1M@FIKPIHFE@?$AAm?$AAt?$AA?9?$AAM?$AAT@ 0000000180046860     libucrt:lcidtoname_downlevel.obj
 0002:00006870       ??_C@_1M@HEGGPBFA@?$AAs?$AAe?$AA?9?$AAN?$AAO@ 0000000180046870     libucrt:lcidtoname_downlevel.obj
 0002:00006880       ??_C@_1M@EIBJEEPA@?$AAm?$AAs?$AA?9?$AAM?$AAY@ 0000000180046880     libucrt:lcidtoname_downlevel.obj
 0002:00006890       ??_C@_1M@FHLBGMPP@?$AAk?$AAk?$AA?9?$AAK?$AAZ@ 0000000180046890     libucrt:lcidtoname_downlevel.obj
 0002:000068a0       ??_C@_1M@NGJJLCGI@?$AAk?$AAy?$AA?9?$AAK?$AAG@ 00000001800468a0     libucrt:lcidtoname_downlevel.obj
 0002:000068b0       ??_C@_1M@GIENNBFC@?$AAs?$AAw?$AA?9?$AAK?$AAE@ 00000001800468b0     libucrt:lcidtoname_downlevel.obj
 0002:000068c0       ??_C@_1BG@NDGMJIMJ@?$AAu?$AAz?$AA?9?$AAU?$AAZ?$AA?9?$AAL?$AAa?$AAt?$AAn@ 00000001800468c0     libucrt:lcidtoname_downlevel.obj
 0002:000068d8       ??_C@_1M@IDCCIHBC@?$AAt?$AAt?$AA?9?$AAR?$AAU@ 00000001800468d8     libucrt:lcidtoname_downlevel.obj
 0002:000068e8       ??_C@_1M@LOICPMOJ@?$AAb?$AAn?$AA?9?$AAI?$AAN@ 00000001800468e8     libucrt:lcidtoname_downlevel.obj
 0002:000068f8       ??_C@_1M@KPKKNEAH@?$AAp?$AAa?$AA?9?$AAI?$AAN@ 00000001800468f8     libucrt:lcidtoname_downlevel.obj
 0002:00006908       ??_C@_1M@PJGPPBOG@?$AAg?$AAu?$AA?9?$AAI?$AAN@ 0000000180046908     libucrt:lcidtoname_downlevel.obj
 0002:00006918       ??_C@_1M@KMKMOPHI@?$AAt?$AAa?$AA?9?$AAI?$AAN@ 0000000180046918     libucrt:lcidtoname_downlevel.obj
 0002:00006928       ??_C@_1M@KFEHEPAC@?$AAt?$AAe?$AA?9?$AAI?$AAN@ 0000000180046928     libucrt:lcidtoname_downlevel.obj
 0002:00006938       ??_C@_1M@CDCLMGHI@?$AAk?$AAn?$AA?9?$AAI?$AAN@ 0000000180046938     libucrt:lcidtoname_downlevel.obj
 0002:00006948       ??_C@_1M@MIODLDKF@?$AAm?$AAl?$AA?9?$AAI?$AAN@ 0000000180046948     libucrt:lcidtoname_downlevel.obj
 0002:00006958       ??_C@_1M@PBIEACPO@?$AAm?$AAr?$AA?9?$AAI?$AAN@ 0000000180046958     libucrt:lcidtoname_downlevel.obj
 0002:00006968       ??_C@_1M@NIDEAGPH@?$AAs?$AAa?$AA?9?$AAI?$AAN@ 0000000180046968     libucrt:lcidtoname_downlevel.obj
 0002:00006978       ??_C@_1M@FHIHCBIO@?$AAm?$AAn?$AA?9?$AAM?$AAN@ 0000000180046978     libucrt:lcidtoname_downlevel.obj
 0002:00006988       ??_C@_1M@JAIJPENP@?$AAc?$AAy?$AA?9?$AAG?$AAB@ 0000000180046988     libucrt:lcidtoname_downlevel.obj
 0002:00006998       ??_C@_1M@PHGFBEPN@?$AAg?$AAl?$AA?9?$AAE?$AAS@ 0000000180046998     libucrt:lcidtoname_downlevel.obj
 0002:000069a8       ??_C@_1O@KPIPDNCP@?$AAk?$AAo?$AAk?$AA?9?$AAI?$AAN@ 00000001800469a8     libucrt:lcidtoname_downlevel.obj
 0002:000069b8       ??_C@_1O@KNHJLDJA@?$AAs?$AAy?$AAr?$AA?9?$AAS?$AAY@ 00000001800469b8     libucrt:lcidtoname_downlevel.obj
 0002:000069c8       ??_C@_1O@MKEKBLAH@?$AAd?$AAi?$AAv?$AA?9?$AAM?$AAV@ 00000001800469c8     libucrt:lcidtoname_downlevel.obj
 0002:000069d8       ??_C@_1O@OHDCKDDF@?$AAq?$AAu?$AAz?$AA?9?$AAB?$AAO@ 00000001800469d8     libucrt:lcidtoname_downlevel.obj
 0002:000069e8       ??_C@_1M@LEPJNLFD@?$AAn?$AAs?$AA?9?$AAZ?$AAA@ 00000001800469e8     libucrt:lcidtoname_downlevel.obj
 0002:000069f8       ??_C@_1M@OMLEIIJB@?$AAm?$AAi?$AA?9?$AAN?$AAZ@ 00000001800469f8     libucrt:lcidtoname_downlevel.obj
 0002:00006a08       ??_C@_1M@PMPEAILG@?$AAa?$AAr?$AA?9?$AAI?$AAQ@ 0000000180046a08     libucrt:lcidtoname_downlevel.obj
 0002:00006a18       ??_C@_1M@CNKPNOEE@?$AAd?$AAe?$AA?9?$AAC?$AAH@ 0000000180046a18     libucrt:lcidtoname_downlevel.obj
 0002:00006a28       ??_C@_1M@LKMGMLKO@?$AAe?$AAn?$AA?9?$AAG?$AAB@ 0000000180046a28     libucrt:lcidtoname_downlevel.obj
 0002:00006a38       ??_C@_1M@PGKJFFGL@?$AAe?$AAs?$AA?9?$AAM?$AAX@ 0000000180046a38     libucrt:lcidtoname_downlevel.obj
 0002:00006a48       ??_C@_1M@DNNANBDC@?$AAf?$AAr?$AA?9?$AAB?$AAE@ 0000000180046a48     libucrt:lcidtoname_downlevel.obj
 0002:00006a58       ??_C@_1M@HLGMDFHM@?$AAi?$AAt?$AA?9?$AAC?$AAH@ 0000000180046a58     libucrt:lcidtoname_downlevel.obj
 0002:00006a68       ??_C@_1M@CLLBGJH@?$AAn?$AAl?$AA?9?$AAB?$AAE@ 0000000180046a68     libucrt:lcidtoname_downlevel.obj
 0002:00006a78       ??_C@_1M@BODBOGLF@?$AAn?$AAn?$AA?9?$AAN?$AAO@ 0000000180046a78     libucrt:lcidtoname_downlevel.obj
 0002:00006a88       ??_C@_1M@HFFAHKAD@?$AAp?$AAt?$AA?9?$AAP?$AAT@ 0000000180046a88     libucrt:lcidtoname_downlevel.obj
 0002:00006a98       ??_C@_1BG@LNOAKHIE@?$AAs?$AAr?$AA?9?$AAS?$AAP?$AA?9?$AAL?$AAa?$AAt?$AAn@ 0000000180046a98     libucrt:lcidtoname_downlevel.obj
 0002:00006ab0       ??_C@_1M@HBMHBGAK@?$AAs?$AAv?$AA?9?$AAF?$AAI@ 0000000180046ab0     libucrt:lcidtoname_downlevel.obj
 0002:00006ac0       ??_C@_1BG@DGCJGJBE@?$AAa?$AAz?$AA?9?$AAA?$AAZ?$AA?9?$AAC?$AAy?$AAr?$AAl@ 0000000180046ac0     libucrt:lcidtoname_downlevel.obj
 0002:00006ad8       ??_C@_1M@KEJDAAHB@?$AAs?$AAe?$AA?9?$AAS?$AAE@ 0000000180046ad8     libucrt:lcidtoname_downlevel.obj
 0002:00006ae8       ??_C@_1M@HEIBJJAD@?$AAm?$AAs?$AA?9?$AAB?$AAN@ 0000000180046ae8     libucrt:lcidtoname_downlevel.obj
 0002:00006af8       ??_C@_1BG@PBGJMCEM@?$AAu?$AAz?$AA?9?$AAU?$AAZ?$AA?9?$AAC?$AAy?$AAr?$AAl@ 0000000180046af8     libucrt:lcidtoname_downlevel.obj
 0002:00006b10       ??_C@_1O@LAOBCMDF@?$AAq?$AAu?$AAz?$AA?9?$AAE?$AAC@ 0000000180046b10     libucrt:lcidtoname_downlevel.obj
 0002:00006b20       ??_C@_1M@POEEMAIO@?$AAa?$AAr?$AA?9?$AAE?$AAG@ 0000000180046b20     libucrt:lcidtoname_downlevel.obj
 0002:00006b30       ??_C@_1M@EFAKDEDL@?$AAz?$AAh?$AA?9?$AAH?$AAK@ 0000000180046b30     libucrt:lcidtoname_downlevel.obj
 0002:00006b40       ??_C@_1M@HKKIJHGI@?$AAd?$AAe?$AA?9?$AAA?$AAT@ 0000000180046b40     libucrt:lcidtoname_downlevel.obj
 0002:00006b50       ??_C@_1M@KBFBEHJF@?$AAe?$AAn?$AA?9?$AAA?$AAU@ 0000000180046b50     libucrt:lcidtoname_downlevel.obj
 0002:00006b60       ??_C@_1M@MNPLFAAH@?$AAe?$AAs?$AA?9?$AAE?$AAS@ 0000000180046b60     libucrt:lcidtoname_downlevel.obj
 0002:00006b70       ??_C@_1M@HJOOJFMA@?$AAf?$AAr?$AA?9?$AAC?$AAA@ 0000000180046b70     libucrt:lcidtoname_downlevel.obj
 0002:00006b80       ??_C@_1BG@JPOFPNAB@?$AAs?$AAr?$AA?9?$AAS?$AAP?$AA?9?$AAC?$AAy?$AAr?$AAl@ 0000000180046b80     libucrt:lcidtoname_downlevel.obj
 0002:00006b98       ??_C@_1M@LNFOCMOB@?$AAs?$AAe?$AA?9?$AAF?$AAI@ 0000000180046b98     libucrt:lcidtoname_downlevel.obj
 0002:00006ba8       ??_C@_1O@MGJBOAMB@?$AAq?$AAu?$AAz?$AA?9?$AAP?$AAE@ 0000000180046ba8     libucrt:lcidtoname_downlevel.obj
 0002:00006bb8       ??_C@_1M@GJINLBOK@?$AAa?$AAr?$AA?9?$AAL?$AAY@ 0000000180046bb8     libucrt:lcidtoname_downlevel.obj
 0002:00006bc8       ??_C@_1M@GGMNHJNL@?$AAz?$AAh?$AA?9?$AAS?$AAG@ 0000000180046bc8     libucrt:lcidtoname_downlevel.obj
 0002:00006bd8       ??_C@_1M@HOIKODND@?$AAd?$AAe?$AA?9?$AAL?$AAU@ 0000000180046bd8     libucrt:lcidtoname_downlevel.obj
 0002:00006be8       ??_C@_1M@DDOCCGFG@?$AAe?$AAn?$AA?9?$AAC?$AAA@ 0000000180046be8     libucrt:lcidtoname_downlevel.obj
 0002:00006bf8       ??_C@_1M@BNOEMJLF@?$AAe?$AAs?$AA?9?$AAG?$AAT@ 0000000180046bf8     libucrt:lcidtoname_downlevel.obj
 0002:00006c08       ??_C@_1M@EOGNKEK@?$AAf?$AAr?$AA?9?$AAC?$AAH@ 0000000180046c08     libucrt:lcidtoname_downlevel.obj
 0002:00006c18       ??_C@_1M@FLIDJFHL@?$AAh?$AAr?$AA?9?$AAB?$AAA@ 0000000180046c18     libucrt:lcidtoname_downlevel.obj
 0002:00006c28       ??_C@_1O@FMCELNAJ@?$AAs?$AAm?$AAj?$AA?9?$AAN?$AAO@ 0000000180046c28     libucrt:lcidtoname_downlevel.obj
 0002:00006c38       ??_C@_1M@JHGLJMGJ@?$AAa?$AAr?$AA?9?$AAD?$AAZ@ 0000000180046c38     libucrt:lcidtoname_downlevel.obj
 0002:00006c48       ??_C@_1M@JKKFDCNP@?$AAz?$AAh?$AA?9?$AAM?$AAO@ 0000000180046c48     libucrt:lcidtoname_downlevel.obj
 0002:00006c58       ??_C@_1M@GEEFALPE@?$AAd?$AAe?$AA?9?$AAL?$AAI@ 0000000180046c58     libucrt:lcidtoname_downlevel.obj
 0002:00006c68       ??_C@_1M@IGEOFBG@?$AAe?$AAn?$AA?9?$AAN?$AAZ@ 0000000180046c68     libucrt:lcidtoname_downlevel.obj
 0002:00006c78       ??_C@_1M@KDBONEHP@?$AAe?$AAs?$AA?9?$AAC?$AAR@ 0000000180046c78     libucrt:lcidtoname_downlevel.obj
 0002:00006c88       ??_C@_1M@FHMDOHNN@?$AAf?$AAr?$AA?9?$AAL?$AAU@ 0000000180046c88     libucrt:lcidtoname_downlevel.obj
 0002:00006c98       ??_C@_1BG@NFKKMAFG@?$AAb?$AAs?$AA?9?$AAB?$AAA?$AA?9?$AAL?$AAa?$AAt?$AAn@ 0000000180046c98     libucrt:lcidtoname_downlevel.obj
 0002:00006cb0       ??_C@_1O@IMNBEMCI@?$AAs?$AAm?$AAj?$AA?9?$AAS?$AAE@ 0000000180046cb0     libucrt:lcidtoname_downlevel.obj
 0002:00006cc0       ??_C@_1M@DHHMBNDP@?$AAa?$AAr?$AA?9?$AAM?$AAA@ 0000000180046cc0     libucrt:lcidtoname_downlevel.obj
 0002:00006cd0       ??_C@_1M@BNBLJCGH@?$AAe?$AAn?$AA?9?$AAI?$AAE@ 0000000180046cd0     libucrt:lcidtoname_downlevel.obj
 0002:00006ce0       ??_C@_1M@GEPAFMDL@?$AAe?$AAs?$AA?9?$AAP?$AAA@ 0000000180046ce0     libucrt:lcidtoname_downlevel.obj
 0002:00006cf0       ??_C@_1M@OJONDMDL@?$AAf?$AAr?$AA?9?$AAM?$AAC@ 0000000180046cf0     libucrt:lcidtoname_downlevel.obj
 0002:00006d00       ??_C@_1BG@OBCNFJB@?$AAs?$AAr?$AA?9?$AAB?$AAA?$AA?9?$AAL?$AAa?$AAt?$AAn@ 0000000180046d00     libucrt:lcidtoname_downlevel.obj
 0002:00006d18       ??_C@_1O@KEMEEGPO@?$AAs?$AAm?$AAa?$AA?9?$AAN?$AAO@ 0000000180046d18     libucrt:lcidtoname_downlevel.obj
 0002:00006d28       ??_C@_1M@ELMGFODK@?$AAa?$AAr?$AA?9?$AAT?$AAN@ 0000000180046d28     libucrt:lcidtoname_downlevel.obj
 0002:00006d38       ??_C@_1M@BHDLHFAF@?$AAe?$AAn?$AA?9?$AAZ?$AAA@ 0000000180046d38     libucrt:lcidtoname_downlevel.obj
 0002:00006d48       ??_C@_1M@BMGIGLIF@?$AAe?$AAs?$AA?9?$AAD?$AAO@ 0000000180046d48     libucrt:lcidtoname_downlevel.obj
 0002:00006d58       ??_C@_1BG@CMBHIPBE@?$AAs?$AAr?$AA?9?$AAB?$AAA?$AA?9?$AAC?$AAy?$AAr?$AAl@ 0000000180046d58     libucrt:lcidtoname_downlevel.obj
 0002:00006d70       ??_C@_1O@HEDBLHNP@?$AAs?$AAm?$AAa?$AA?9?$AAS?$AAE@ 0000000180046d70     libucrt:lcidtoname_downlevel.obj
 0002:00006d80       ??_C@_1M@DAGCADIM@?$AAa?$AAr?$AA?9?$AAO?$AAM@ 0000000180046d80     libucrt:lcidtoname_downlevel.obj
 0002:00006d90       ??_C@_1M@FODLMICG@?$AAe?$AAn?$AA?9?$AAJ?$AAM@ 0000000180046d90     libucrt:lcidtoname_downlevel.obj
 0002:00006da0       ??_C@_1M@DNMLCIHB@?$AAe?$AAs?$AA?9?$AAV?$AAE@ 0000000180046da0     libucrt:lcidtoname_downlevel.obj
 0002:00006db0       ??_C@_1O@EOKHMKJK@?$AAs?$AAm?$AAs?$AA?9?$AAF?$AAI@ 0000000180046db0     libucrt:lcidtoname_downlevel.obj
 0002:00006dc0       ??_C@_1M@CAFJMKOF@?$AAa?$AAr?$AA?9?$AAY?$AAE@ 0000000180046dc0     libucrt:lcidtoname_downlevel.obj
 0002:00006dd0       ??_C@_1M@CBFHIJLI@?$AAe?$AAn?$AA?9?$AAC?$AAB@ 0000000180046dd0     libucrt:lcidtoname_downlevel.obj
 0002:00006de0       ??_C@_1M@BGNFLDN@?$AAe?$AAs?$AA?9?$AAC?$AAO@ 0000000180046de0     libucrt:lcidtoname_downlevel.obj
 0002:00006df0       ??_C@_1O@JMPHMAMC@?$AAs?$AAm?$AAn?$AA?9?$AAF?$AAI@ 0000000180046df0     libucrt:lcidtoname_downlevel.obj
 0002:00006e00       ??_C@_1M@JLANABKE@?$AAa?$AAr?$AA?9?$AAS?$AAY@ 0000000180046e00     libucrt:lcidtoname_downlevel.obj
 0002:00006e10       ??_C@_1M@HPKGCFGN@?$AAe?$AAn?$AA?9?$AAB?$AAZ@ 0000000180046e10     libucrt:lcidtoname_downlevel.obj
 0002:00006e20       ??_C@_1M@OLJCMLGM@?$AAe?$AAs?$AA?9?$AAP?$AAE@ 0000000180046e20     libucrt:lcidtoname_downlevel.obj
 0002:00006e30       ??_C@_1M@MKKGFKLE@?$AAa?$AAr?$AA?9?$AAJ?$AAO@ 0000000180046e30     libucrt:lcidtoname_downlevel.obj
 0002:00006e40       ??_C@_1M@EKPGLDNI@?$AAe?$AAn?$AA?9?$AAT?$AAT@ 0000000180046e40     libucrt:lcidtoname_downlevel.obj
 0002:00006e50       ??_C@_1M@OONGHFHE@?$AAe?$AAs?$AA?9?$AAA?$AAR@ 0000000180046e50     libucrt:lcidtoname_downlevel.obj
 0002:00006e60       ??_C@_1M@OOJFGBHE@?$AAa?$AAr?$AA?9?$AAL?$AAB@ 0000000180046e60     libucrt:lcidtoname_downlevel.obj
 0002:00006e70       ??_C@_1M@GCEJHNEG@?$AAe?$AAn?$AA?9?$AAZ?$AAW@ 0000000180046e70     libucrt:lcidtoname_downlevel.obj
 0002:00006e80       ??_C@_1M@JNOCAHJI@?$AAe?$AAs?$AA?9?$AAE?$AAC@ 0000000180046e80     libucrt:lcidtoname_downlevel.obj
 0002:00006e90       ??_C@_1M@JEFHPGGB@?$AAa?$AAr?$AA?9?$AAK?$AAW@ 0000000180046e90     libucrt:lcidtoname_downlevel.obj
 0002:00006ea0       ??_C@_1M@MLKIBJOJ@?$AAe?$AAn?$AA?9?$AAP?$AAH@ 0000000180046ea0     libucrt:lcidtoname_downlevel.obj
 0002:00006eb0       ??_C@_1M@BDNIPEND@?$AAe?$AAs?$AA?9?$AAC?$AAL@ 0000000180046eb0     libucrt:lcidtoname_downlevel.obj
 0002:00006ec0       ??_C@_1M@MPNMEKBD@?$AAa?$AAr?$AA?9?$AAA?$AAE@ 0000000180046ec0     libucrt:lcidtoname_downlevel.obj
 0002:00006ed0       ??_C@_1M@KBJALCPI@?$AAe?$AAs?$AA?9?$AAU?$AAY@ 0000000180046ed0     libucrt:lcidtoname_downlevel.obj
 0002:00006ee0       ??_C@_1M@LLCCOAGA@?$AAa?$AAr?$AA?9?$AAB?$AAH@ 0000000180046ee0     libucrt:lcidtoname_downlevel.obj
 0002:00006ef0       ??_C@_1M@PBFNCDEL@?$AAe?$AAs?$AA?9?$AAP?$AAY@ 0000000180046ef0     libucrt:lcidtoname_downlevel.obj
 0002:00006f00       ??_C@_1M@EDGINPNP@?$AAa?$AAr?$AA?9?$AAQ?$AAA@ 0000000180046f00     libucrt:lcidtoname_downlevel.obj
 0002:00006f10       ??_C@_1M@MKDBIIJI@?$AAe?$AAs?$AA?9?$AAB?$AAO@ 0000000180046f10     libucrt:lcidtoname_downlevel.obj
 0002:00006f20       ??_C@_1M@CPKKEBLD@?$AAe?$AAs?$AA?9?$AAS?$AAV@ 0000000180046f20     libucrt:lcidtoname_downlevel.obj
 0002:00006f30       ??_C@_1M@NDBGMMJL@?$AAe?$AAs?$AA?9?$AAH?$AAN@ 0000000180046f30     libucrt:lcidtoname_downlevel.obj
 0002:00006f40       ??_C@_1M@JIJIBHDP@?$AAe?$AAs?$AA?9?$AAN?$AAI@ 0000000180046f40     libucrt:lcidtoname_downlevel.obj
 0002:00006f50       ??_C@_1M@CGFMKEEK@?$AAe?$AAs?$AA?9?$AAP?$AAR@ 0000000180046f50     libucrt:lcidtoname_downlevel.obj
 0002:00006f60       ??_C@_1O@ICJHKIIK@?$AAz?$AAh?$AA?9?$AAC?$AAH?$AAT@ 0000000180046f60     libucrt:lcidtoname_downlevel.obj
 0002:00006f70       ??_C@_15CLNEJCE@?$AAs?$AAr@ 0000000180046f70     libucrt:lcidtoname_downlevel.obj
 0002:00007dc0       ??_C@_1M@KAHEKEIG@?$AAa?$AAf?$AA?9?$AAz?$AAa@ 0000000180047dc0     libucrt:lcidtoname_downlevel.obj
 0002:00007dd0       ??_C@_1M@GIECOABL@?$AAa?$AAr?$AA?9?$AAa?$AAe@ 0000000180047dd0     libucrt:lcidtoname_downlevel.obj
 0002:00007de0       ??_C@_1M@BMLMEKGI@?$AAa?$AAr?$AA?9?$AAb?$AAh@ 0000000180047de0     libucrt:lcidtoname_downlevel.obj
 0002:00007df0       ??_C@_1M@DAPFDGGB@?$AAa?$AAr?$AA?9?$AAd?$AAz@ 0000000180047df0     libucrt:lcidtoname_downlevel.obj
 0002:00007e00       ??_C@_1M@FJNKGKIG@?$AAa?$AAr?$AA?9?$AAe?$AAg@ 0000000180047e00     libucrt:lcidtoname_downlevel.obj
 0002:00007e10       ??_C@_1M@FLGKKCLO@?$AAa?$AAr?$AA?9?$AAi?$AAq@ 0000000180047e10     libucrt:lcidtoname_downlevel.obj
 0002:00007e20       ??_C@_1M@GNDIPALM@?$AAa?$AAr?$AA?9?$AAj?$AAo@ 0000000180047e20     libucrt:lcidtoname_downlevel.obj
 0002:00007e30       ??_C@_1M@DDMJFMGJ@?$AAa?$AAr?$AA?9?$AAk?$AAw@ 0000000180047e30     libucrt:lcidtoname_downlevel.obj
 0002:00007e40       ??_C@_1M@EJALMLHM@?$AAa?$AAr?$AA?9?$AAl?$AAb@ 0000000180047e40     libucrt:lcidtoname_downlevel.obj
 0002:00007e50       ??_C@_1M@MOBDBLOC@?$AAa?$AAr?$AA?9?$AAl?$AAy@ 0000000180047e50     libucrt:lcidtoname_downlevel.obj
 0002:00007e60       ??_C@_1M@JAOCLHDH@?$AAa?$AAr?$AA?9?$AAm?$AAa@ 0000000180047e60     libucrt:lcidtoname_downlevel.obj
 0002:00007e70       ??_C@_1M@JHPMKJIE@?$AAa?$AAr?$AA?9?$AAo?$AAm@ 0000000180047e70     libucrt:lcidtoname_downlevel.obj
 0002:00007e80       ??_C@_1M@OEPGHFNH@?$AAa?$AAr?$AA?9?$AAq?$AAa@ 0000000180047e80     libucrt:lcidtoname_downlevel.obj
 0002:00007e90       ??_C@_1M@KJDONENM@?$AAa?$AAr?$AA?9?$AAs?$AAa@ 0000000180047e90     libucrt:lcidtoname_downlevel.obj
 0002:00007ea0       ??_C@_1M@DMJDKLKM@?$AAa?$AAr?$AA?9?$AAs?$AAy@ 0000000180047ea0     libucrt:lcidtoname_downlevel.obj
 0002:00007eb0       ??_C@_1M@OMFIPEDC@?$AAa?$AAr?$AA?9?$AAt?$AAn@ 0000000180047eb0     libucrt:lcidtoname_downlevel.obj
 0002:00007ec0       ??_C@_1M@IHMHGAON@?$AAa?$AAr?$AA?9?$AAy?$AAe@ 0000000180047ec0     libucrt:lcidtoname_downlevel.obj
 0002:00007ed0       ??_C@_1BG@KDCPGJGB@?$AAa?$AAz?$AA?9?$AAa?$AAz?$AA?9?$AAc?$AAy?$AAr?$AAl@ 0000000180047ed0     libucrt:lcidtoname_downlevel.obj
 0002:00007ee8       ??_C@_1BG@IBCKDDOE@?$AAa?$AAz?$AA?9?$AAa?$AAz?$AA?9?$AAl?$AAa?$AAt?$AAn@ 0000000180047ee8     libucrt:lcidtoname_downlevel.obj
 0002:00007f00       ??_C@_1M@EGPFDCPD@?$AAb?$AAe?$AA?9?$AAb?$AAy@ 0000000180047f00     libucrt:lcidtoname_downlevel.obj
 0002:00007f10       ??_C@_1M@PCMGMCGC@?$AAb?$AAg?$AA?9?$AAb?$AAg@ 0000000180047f10     libucrt:lcidtoname_downlevel.obj
 0002:00007f20       ??_C@_1M@BJBMFGOB@?$AAb?$AAn?$AA?9?$AAi?$AAn@ 0000000180047f20     libucrt:lcidtoname_downlevel.obj
 0002:00007f30       ??_C@_1BG@EAKMMACD@?$AAb?$AAs?$AA?9?$AAb?$AAa?$AA?9?$AAl?$AAa?$AAt?$AAn@ 0000000180047f30     libucrt:lcidtoname_downlevel.obj
 0002:00007f48       ??_C@_1M@KGADAODK@?$AAc?$AAa?$AA?9?$AAe?$AAs@ 0000000180047f48     libucrt:lcidtoname_downlevel.obj
 0002:00007f58       ??_C@_1M@COAJPDHI@?$AAc?$AAs?$AA?9?$AAc?$AAz@ 0000000180047f58     libucrt:lcidtoname_downlevel.obj
 0002:00007f68       ??_C@_1M@DHBHFONH@?$AAc?$AAy?$AA?9?$AAg?$AAb@ 0000000180047f68     libucrt:lcidtoname_downlevel.obj
 0002:00007f78       ??_C@_1M@IMGKELGA@?$AAd?$AAa?$AA?9?$AAd?$AAk@ 0000000180047f78     libucrt:lcidtoname_downlevel.obj
 0002:00007f88       ??_C@_1M@NNDGDNGA@?$AAd?$AAe?$AA?9?$AAa?$AAt@ 0000000180047f88     libucrt:lcidtoname_downlevel.obj
 0002:00007f98       ??_C@_1M@IKDBHEEM@?$AAd?$AAe?$AA?9?$AAc?$AAh@ 0000000180047f98     libucrt:lcidtoname_downlevel.obj
 0002:00007fa8       ??_C@_1M@GFFOJMCJ@?$AAd?$AAe?$AA?9?$AAd?$AAe@ 0000000180047fa8     libucrt:lcidtoname_downlevel.obj
 0002:00007fb8       ??_C@_1M@MDNLKBPM@?$AAd?$AAe?$AA?9?$AAl?$AAi@ 0000000180047fb8     libucrt:lcidtoname_downlevel.obj
 0002:00007fc8       ??_C@_1M@NJBEEJNL@?$AAd?$AAe?$AA?9?$AAl?$AAu@ 0000000180047fc8     libucrt:lcidtoname_downlevel.obj
 0002:00007fd8       ??_C@_1O@GNNELBAP@?$AAd?$AAi?$AAv?$AA?9?$AAm?$AAv@ 0000000180047fd8     libucrt:lcidtoname_downlevel.obj
 0002:00007fe8       ??_C@_1M@EJLEOGAE@?$AAe?$AAl?$AA?9?$AAg?$AAr@ 0000000180047fe8     libucrt:lcidtoname_downlevel.obj
 0002:00007ff8       ??_C@_1M@GMPONJN@?$AAe?$AAn?$AA?9?$AAa?$AAu@ 0000000180047ff8     libucrt:lcidtoname_downlevel.obj
 0002:00008008       ??_C@_1M@NIDIIPGF@?$AAe?$AAn?$AA?9?$AAb?$AAz@ 0000000180048008     libucrt:lcidtoname_downlevel.obj
 0002:00008018       ??_C@_1M@JEHMIMFO@?$AAe?$AAn?$AA?9?$AAc?$AAa@ 0000000180048018     libucrt:lcidtoname_downlevel.obj
 0002:00008028       ??_C@_1M@IGMJCDLA@?$AAe?$AAn?$AA?9?$AAc?$AAb@ 0000000180048028     libucrt:lcidtoname_downlevel.obj
 0002:00008038       ??_C@_1M@BNFIGBKG@?$AAe?$AAn?$AA?9?$AAg?$AAb@ 0000000180048038     libucrt:lcidtoname_downlevel.obj
 0002:00008048       ??_C@_1M@LKIFDIGP@?$AAe?$AAn?$AA?9?$AAi?$AAe@ 0000000180048048     libucrt:lcidtoname_downlevel.obj
 0002:00008058       ??_C@_1M@PJKFGCCO@?$AAe?$AAn?$AA?9?$AAj?$AAm@ 0000000180048058     libucrt:lcidtoname_downlevel.obj
 0002:00008068       ??_C@_1M@KPPKEPBO@?$AAe?$AAn?$AA?9?$AAn?$AAz@ 0000000180048068     libucrt:lcidtoname_downlevel.obj
 0002:00008078       ??_C@_1M@GMDGLDOB@?$AAe?$AAn?$AA?9?$AAp?$AAh@ 0000000180048078     libucrt:lcidtoname_downlevel.obj
 0002:00008088       ??_C@_1M@ONGIBJNA@?$AAe?$AAn?$AA?9?$AAt?$AAt@ 0000000180048088     libucrt:lcidtoname_downlevel.obj
 0002:00008098       ??_C@_1M@LLODPCMM@?$AAe?$AAn?$AA?9?$AAu?$AAs@ 0000000180048098     libucrt:lcidtoname_downlevel.obj
 0002:000080a8       ??_C@_1M@LAKFNPAN@?$AAe?$AAn?$AA?9?$AAz?$AAa@ 00000001800480a8     libucrt:lcidtoname_downlevel.obj
 0002:000080b8       ??_C@_1M@MFNHNHEO@?$AAe?$AAn?$AA?9?$AAz?$AAw@ 00000001800480b8     libucrt:lcidtoname_downlevel.obj
 0002:000080c8       ??_C@_1M@EJEINPHM@?$AAe?$AAs?$AA?9?$AAa?$AAr@ 00000001800480c8     libucrt:lcidtoname_downlevel.obj
 0002:000080d8       ??_C@_1M@GNKPCCJA@?$AAe?$AAs?$AA?9?$AAb?$AAo@ 00000001800480d8     libucrt:lcidtoname_downlevel.obj
 0002:000080e8       ??_C@_1M@LEEGFONL@?$AAe?$AAs?$AA?9?$AAc?$AAl@ 00000001800480e8     libucrt:lcidtoname_downlevel.obj
 0002:000080f8       ??_C@_1M@KGPDPBDF@?$AAe?$AAs?$AA?9?$AAc?$AAo@ 00000001800480f8     libucrt:lcidtoname_downlevel.obj
 0002:00008108       ??_C@_1M@EIAHOHH@?$AAe?$AAs?$AA?9?$AAc?$AAr@ 0000000180048108     libucrt:lcidtoname_downlevel.obj
 0002:00008118       ??_C@_1M@LLPGMBIN@?$AAe?$AAs?$AA?9?$AAd?$AAo@ 0000000180048118     libucrt:lcidtoname_downlevel.obj
 0002:00008128       ??_C@_1M@DKHMKNJA@?$AAe?$AAs?$AA?9?$AAe?$AAc@ 0000000180048128     libucrt:lcidtoname_downlevel.obj
 0002:00008138       ??_C@_1M@GKGFPKAP@?$AAe?$AAs?$AA?9?$AAe?$AAs@ 0000000180048138     libucrt:lcidtoname_downlevel.obj
 0002:00008148       ??_C@_1M@LKHKGDLN@?$AAe?$AAs?$AA?9?$AAg?$AAt@ 0000000180048148     libucrt:lcidtoname_downlevel.obj
 0002:00008158       ??_C@_1M@HEIIGGJD@?$AAe?$AAs?$AA?9?$AAh?$AAn@ 0000000180048158     libucrt:lcidtoname_downlevel.obj
 0002:00008168       ??_C@_1M@FBDHPPGD@?$AAe?$AAs?$AA?9?$AAm?$AAx@ 0000000180048168     libucrt:lcidtoname_downlevel.obj
 0002:00008178       ??_C@_1M@DPAGLNDH@?$AAe?$AAs?$AA?9?$AAn?$AAi@ 0000000180048178     libucrt:lcidtoname_downlevel.obj
 0002:00008188       ??_C@_1M@MDGOPGDD@?$AAe?$AAs?$AA?9?$AAp?$AAa@ 0000000180048188     libucrt:lcidtoname_downlevel.obj
 0002:00008198       ??_C@_1M@EMAMGBGE@?$AAe?$AAs?$AA?9?$AAp?$AAe@ 0000000180048198     libucrt:lcidtoname_downlevel.obj
 0002:000081a8       ??_C@_1M@IBMCAOEC@?$AAe?$AAs?$AA?9?$AAp?$AAr@ 00000001800481a8     libucrt:lcidtoname_downlevel.obj
 0002:000081b8       ??_C@_1M@FGMDIJED@?$AAe?$AAs?$AA?9?$AAp?$AAy@ 00000001800481b8     libucrt:lcidtoname_downlevel.obj
 0002:000081c8       ??_C@_1M@IIDEOLLL@?$AAe?$AAs?$AA?9?$AAs?$AAv@ 00000001800481c8     libucrt:lcidtoname_downlevel.obj
 0002:000081d8       ??_C@_1M@GAOBIPA@?$AAe?$AAs?$AA?9?$AAu?$AAy@ 00000001800481d8     libucrt:lcidtoname_downlevel.obj
 0002:000081e8       ??_C@_1M@JKFFICHJ@?$AAe?$AAs?$AA?9?$AAv?$AAe@ 00000001800481e8     libucrt:lcidtoname_downlevel.obj
 0002:000081f8       ??_C@_1M@PNMLOJDF@?$AAe?$AAt?$AA?9?$AAe?$AAe@ 00000001800481f8     libucrt:lcidtoname_downlevel.obj
 0002:00008208       ??_C@_1M@GHHLIKEI@?$AAe?$AAu?$AA?9?$AAe?$AAs@ 0000000180048208     libucrt:lcidtoname_downlevel.obj
 0002:00008218       ??_C@_1M@PBNONODE@?$AAf?$AAa?$AA?9?$AAi?$AAr@ 0000000180048218     libucrt:lcidtoname_downlevel.obj
 0002:00008228       ??_C@_1M@JEEHPMIL@?$AAf?$AAi?$AA?9?$AAf?$AAi@ 0000000180048228     libucrt:lcidtoname_downlevel.obj
 0002:00008238       ??_C@_1M@LMDCNDBA@?$AAf?$AAo?$AA?9?$AAf?$AAo@ 0000000180048238     libucrt:lcidtoname_downlevel.obj
 0002:00008248       ??_C@_1M@JKEOHLDK@?$AAf?$AAr?$AA?9?$AAb?$AAe@ 0000000180048248     libucrt:lcidtoname_downlevel.obj
 0002:00008258       ??_C@_1M@NOHADPMI@?$AAf?$AAr?$AA?9?$AAc?$AAa@ 0000000180048258     libucrt:lcidtoname_downlevel.obj
 0002:00008268       ??_C@_1M@KDHIHAEC@?$AAf?$AAr?$AA?9?$AAc?$AAh@ 0000000180048268     libucrt:lcidtoname_downlevel.obj
 0002:00008278       ??_C@_1M@MMBBFGAK@?$AAf?$AAr?$AA?9?$AAf?$AAr@ 0000000180048278     libucrt:lcidtoname_downlevel.obj
 0002:00008288       ??_C@_1M@PAFNENNF@?$AAf?$AAr?$AA?9?$AAl?$AAu@ 0000000180048288     libucrt:lcidtoname_downlevel.obj
 0002:00008298       ??_C@_1M@EOHDJGDD@?$AAf?$AAr?$AA?9?$AAm?$AAc@ 0000000180048298     libucrt:lcidtoname_downlevel.obj
 0002:000082a8       ??_C@_1M@FAPLLOPF@?$AAg?$AAl?$AA?9?$AAe?$AAs@ 00000001800482a8     libucrt:lcidtoname_downlevel.obj
 0002:000082b8       ??_C@_1M@FOPBFLOO@?$AAg?$AAu?$AA?9?$AAi?$AAn@ 00000001800482b8     libucrt:lcidtoname_downlevel.obj
 0002:000082c8       ??_C@_1M@KBMCINPM@?$AAh?$AAe?$AA?9?$AAi?$AAl@ 00000001800482c8     libucrt:lcidtoname_downlevel.obj
 0002:000082d8       ??_C@_1M@BBPHKFPJ@?$AAh?$AAi?$AA?9?$AAi?$AAn@ 00000001800482d8     libucrt:lcidtoname_downlevel.obj
 0002:000082e8       ??_C@_1M@PMBNDPHD@?$AAh?$AAr?$AA?9?$AAb?$AAa@ 00000001800482e8     libucrt:lcidtoname_downlevel.obj
 0002:000082f8       ??_C@_1M@BPCKOEGE@?$AAh?$AAr?$AA?9?$AAh?$AAr@ 00000001800482f8     libucrt:lcidtoname_downlevel.obj
 0002:00008308       ??_C@_1M@GACBMHKE@?$AAh?$AAu?$AA?9?$AAh?$AAu@ 0000000180048308     libucrt:lcidtoname_downlevel.obj
 0002:00008318       ??_C@_1M@MILPAJJC@?$AAh?$AAy?$AA?9?$AAa?$AAm@ 0000000180048318     libucrt:lcidtoname_downlevel.obj
 0002:00008328       ??_C@_1M@BABBICEC@?$AAi?$AAd?$AA?9?$AAi?$AAd@ 0000000180048328     libucrt:lcidtoname_downlevel.obj
 0002:00008338       ??_C@_1M@BIKNHHPF@?$AAi?$AAs?$AA?9?$AAi?$AAs@ 0000000180048338     libucrt:lcidtoname_downlevel.obj
 0002:00008348       ??_C@_1M@NMPCJPHE@?$AAi?$AAt?$AA?9?$AAc?$AAh@ 0000000180048348     libucrt:lcidtoname_downlevel.obj
 0002:00008358       ??_C@_1M@GHKGFEDF@?$AAi?$AAt?$AA?9?$AAi?$AAt@ 0000000180048358     libucrt:lcidtoname_downlevel.obj
 0002:00008368       ??_C@_1M@NIEJCJJA@?$AAj?$AAa?$AA?9?$AAj?$AAp@ 0000000180048368     libucrt:lcidtoname_downlevel.obj
 0002:00008378       ??_C@_1M@JILFNBIM@?$AAk?$AAa?$AA?9?$AAg?$AAe@ 0000000180048378     libucrt:lcidtoname_downlevel.obj
 0002:00008388       ??_C@_1M@PACPMGPH@?$AAk?$AAk?$AA?9?$AAk?$AAz@ 0000000180048388     libucrt:lcidtoname_downlevel.obj
 0002:00008398       ??_C@_1M@IELFGMHA@?$AAk?$AAn?$AA?9?$AAi?$AAn@ 0000000180048398     libucrt:lcidtoname_downlevel.obj
 0002:000083a8       ??_C@_1O@IBBJHCH@?$AAk?$AAo?$AAk?$AA?9?$AAi?$AAn@ 00000001800483a8     libucrt:lcidtoname_downlevel.obj
 0002:000083b8       ??_C@_1M@DMHAEOGC@?$AAk?$AAo?$AA?9?$AAk?$AAr@ 00000001800483b8     libucrt:lcidtoname_downlevel.obj
 0002:000083c8       ??_C@_1M@HBAHBIGA@?$AAk?$AAy?$AA?9?$AAk?$AAg@ 00000001800483c8     libucrt:lcidtoname_downlevel.obj
 0002:000083d8       ??_C@_1M@KPMILCJG@?$AAl?$AAt?$AA?9?$AAl?$AAt@ 00000001800483d8     libucrt:lcidtoname_downlevel.obj
 0002:000083e8       ??_C@_1M@BDEKKCA@?$AAl?$AAv?$AA?9?$AAl?$AAv@ 00000001800483e8     libucrt:lcidtoname_downlevel.obj
 0002:000083f8       ??_C@_1M@ELCKCCJJ@?$AAm?$AAi?$AA?9?$AAn?$AAz@ 00000001800483f8     libucrt:lcidtoname_downlevel.obj
 0002:00008408       ??_C@_1M@CBOOLAPA@?$AAm?$AAk?$AA?9?$AAm?$AAk@ 0000000180048408     libucrt:lcidtoname_downlevel.obj
 0002:00008418       ??_C@_1M@GPHNBJKN@?$AAm?$AAl?$AA?9?$AAi?$AAn@ 0000000180048418     libucrt:lcidtoname_downlevel.obj
 0002:00008428       ??_C@_1M@PABJILIG@?$AAm?$AAn?$AA?9?$AAm?$AAn@ 0000000180048428     libucrt:lcidtoname_downlevel.obj
 0002:00008438       ??_C@_1M@FGBKKIPG@?$AAm?$AAr?$AA?9?$AAi?$AAn@ 0000000180048438     libucrt:lcidtoname_downlevel.obj
 0002:00008448       ??_C@_1M@NDBPDDAL@?$AAm?$AAs?$AA?9?$AAb?$AAn@ 0000000180048448     libucrt:lcidtoname_downlevel.obj
 0002:00008458       ??_C@_1M@OPIHOOPI@?$AAm?$AAs?$AA?9?$AAm?$AAy@ 0000000180048458     libucrt:lcidtoname_downlevel.obj
 0002:00008468       ??_C@_1M@PPDBCNFM@?$AAm?$AAt?$AA?9?$AAm?$AAt@ 0000000180048468     libucrt:lcidtoname_downlevel.obj
 0002:00008478       ??_C@_1M@KDJDKMDD@?$AAn?$AAb?$AA?9?$AAn?$AAo@ 0000000180048478     libucrt:lcidtoname_downlevel.obj
 0002:00008488       ??_C@_1M@KFCFLMJP@?$AAn?$AAl?$AA?9?$AAb?$AAe@ 0000000180048488     libucrt:lcidtoname_downlevel.obj
 0002:00008498       ??_C@_1M@KPOPDDGO@?$AAn?$AAl?$AA?9?$AAn?$AAl@ 0000000180048498     libucrt:lcidtoname_downlevel.obj
 0002:000084a8       ??_C@_1M@LJKPEMLN@?$AAn?$AAn?$AA?9?$AAn?$AAo@ 00000001800484a8     libucrt:lcidtoname_downlevel.obj
 0002:000084b8       ??_C@_1M@BDGHHBFL@?$AAn?$AAs?$AA?9?$AAz?$AAa@ 00000001800484b8     libucrt:lcidtoname_downlevel.obj
 0002:000084c8       ??_C@_1M@IDEHOAP@?$AAp?$AAa?$AA?9?$AAi?$AAn@ 00000001800484c8     libucrt:lcidtoname_downlevel.obj
 0002:000084d8       ??_C@_1M@HDBKGOGH@?$AAp?$AAl?$AA?9?$AAp?$AAl@ 00000001800484d8     libucrt:lcidtoname_downlevel.obj
 0002:000084e8       ??_C@_1M@LJLLCMEH@?$AAp?$AAt?$AA?9?$AAb?$AAr@ 00000001800484e8     libucrt:lcidtoname_downlevel.obj
 0002:000084f8       ??_C@_1M@NCMONAAL@?$AAp?$AAt?$AA?9?$AAp?$AAt@ 00000001800484f8     libucrt:lcidtoname_downlevel.obj
 0002:00008508       ??_C@_1O@EAKMAJDN@?$AAq?$AAu?$AAz?$AA?9?$AAb?$AAo@ 0000000180048508     libucrt:lcidtoname_downlevel.obj
 0002:00008518       ??_C@_1O@BHHPIGDN@?$AAq?$AAu?$AAz?$AA?9?$AAe?$AAc@ 0000000180048518     libucrt:lcidtoname_downlevel.obj
 0002:00008528       ??_C@_1O@GBAPEKMJ@?$AAq?$AAu?$AAz?$AA?9?$AAp?$AAe@ 0000000180048528     libucrt:lcidtoname_downlevel.obj
 0002:00008538       ??_C@_1M@CLGLEFBO@?$AAr?$AAo?$AA?9?$AAr?$AAo@ 0000000180048538     libucrt:lcidtoname_downlevel.obj
 0002:00008548       ??_C@_1M@CEEDODME@?$AAr?$AAu?$AA?9?$AAr?$AAu@ 0000000180048548     libucrt:lcidtoname_downlevel.obj
 0002:00008558       ??_C@_1M@HPKKKMPP@?$AAs?$AAa?$AA?9?$AAi?$AAn@ 0000000180048558     libucrt:lcidtoname_downlevel.obj
 0002:00008568       ??_C@_1M@BKMAIGOJ@?$AAs?$AAe?$AA?9?$AAf?$AAi@ 0000000180048568     libucrt:lcidtoname_downlevel.obj
 0002:00008578       ??_C@_1M@NDPIFLFI@?$AAs?$AAe?$AA?9?$AAn?$AAo@ 0000000180048578     libucrt:lcidtoname_downlevel.obj
 0002:00008588       ??_C@_1M@DANKKHJ@?$AAs?$AAe?$AA?9?$AAs?$AAe@ 0000000180048588     libucrt:lcidtoname_downlevel.obj
 0002:00008598       ??_C@_1M@PNBLONPJ@?$AAs?$AAk?$AA?9?$AAs?$AAk@ 0000000180048598     libucrt:lcidtoname_downlevel.obj
 0002:000085a8       ??_C@_1M@LFMODOAL@?$AAs?$AAl?$AA?9?$AAs?$AAi@ 00000001800485a8     libucrt:lcidtoname_downlevel.obj
 0002:000085b8       ??_C@_1O@DFKOMPG@?$AAs?$AAm?$AAa?$AA?9?$AAn?$AAo@ 00000001800485b8     libucrt:lcidtoname_downlevel.obj
 0002:000085c8       ??_C@_1O@NDKPBNNH@?$AAs?$AAm?$AAa?$AA?9?$AAs?$AAe@ 00000001800485c8     libucrt:lcidtoname_downlevel.obj
 0002:000085d8       ??_C@_1O@PLLKBHAB@?$AAs?$AAm?$AAj?$AA?9?$AAn?$AAo@ 00000001800485d8     libucrt:lcidtoname_downlevel.obj
 0002:000085e8       ??_C@_1O@CLEPOGCA@?$AAs?$AAm?$AAj?$AA?9?$AAs?$AAe@ 00000001800485e8     libucrt:lcidtoname_downlevel.obj
 0002:000085f8       ??_C@_1O@DLGJGKMK@?$AAs?$AAm?$AAn?$AA?9?$AAf?$AAi@ 00000001800485f8     libucrt:lcidtoname_downlevel.obj
 0002:00008608       ??_C@_1O@OJDJGAJC@?$AAs?$AAm?$AAs?$AA?9?$AAf?$AAi@ 0000000180048608     libucrt:lcidtoname_downlevel.obj
 0002:00008618       ??_C@_1M@BOFOGHPB@?$AAs?$AAq?$AA?9?$AAa?$AAl@ 0000000180048618     libucrt:lcidtoname_downlevel.obj
 0002:00008628       ??_C@_1BG@LJBBIPGB@?$AAs?$AAr?$AA?9?$AAb?$AAa?$AA?9?$AAc?$AAy?$AAr?$AAl@ 0000000180048628     libucrt:lcidtoname_downlevel.obj
 0002:00008640       ??_C@_1BG@JLBENFOE@?$AAs?$AAr?$AA?9?$AAb?$AAa?$AA?9?$AAl?$AAa?$AAt?$AAn@ 0000000180048640     libucrt:lcidtoname_downlevel.obj
 0002:00008658       ??_C@_1BG@KODPNHE@?$AAs?$AAr?$AA?9?$AAs?$AAp?$AA?9?$AAc?$AAy?$AAr?$AAl@ 0000000180048658     libucrt:lcidtoname_downlevel.obj
 0002:00008670       ??_C@_1BG@CIOGKHPB@?$AAs?$AAr?$AA?9?$AAs?$AAp?$AA?9?$AAl?$AAa?$AAt?$AAn@ 0000000180048670     libucrt:lcidtoname_downlevel.obj
 0002:00008688       ??_C@_1M@NGFJLMAC@?$AAs?$AAv?$AA?9?$AAf?$AAi@ 0000000180048688     libucrt:lcidtoname_downlevel.obj
 0002:00008698       ??_C@_1M@MPJEJAJC@?$AAs?$AAv?$AA?9?$AAs?$AAe@ 0000000180048698     libucrt:lcidtoname_downlevel.obj
 0002:000086a8       ??_C@_1M@MPNDHLFK@?$AAs?$AAw?$AA?9?$AAk?$AAe@ 00000001800486a8     libucrt:lcidtoname_downlevel.obj
 0002:000086b8       ??_C@_1O@KOHBJJI@?$AAs?$AAy?$AAr?$AA?9?$AAs?$AAy@ 00000001800486b8     libucrt:lcidtoname_downlevel.obj
 0002:000086c8       ??_C@_1M@LDCEFHA@?$AAt?$AAa?$AA?9?$AAi?$AAn@ 00000001800486c8     libucrt:lcidtoname_downlevel.obj
 0002:000086d8       ??_C@_1M@CNJOFAK@?$AAt?$AAe?$AA?9?$AAi?$AAn@ 00000001800486d8     libucrt:lcidtoname_downlevel.obj
 0002:000086e8       ??_C@_1M@GNAECACD@?$AAt?$AAh?$AA?9?$AAt?$AAh@ 00000001800486e8     libucrt:lcidtoname_downlevel.obj
 0002:000086f8       ??_C@_1M@CHBIHOJO@?$AAt?$AAn?$AA?9?$AAz?$AAa@ 00000001800486f8     libucrt:lcidtoname_downlevel.obj
 0002:00008708       ??_C@_1M@GCCMIGPJ@?$AAt?$AAr?$AA?9?$AAt?$AAr@ 0000000180048708     libucrt:lcidtoname_downlevel.obj
 0002:00008718       ??_C@_1M@CELMCNBK@?$AAt?$AAt?$AA?9?$AAr?$AAu@ 0000000180048718     libucrt:lcidtoname_downlevel.obj
 0002:00008728       ??_C@_1M@KLMCELGA@?$AAu?$AAk?$AA?9?$AAu?$AAa@ 0000000180048728     libucrt:lcidtoname_downlevel.obj
 0002:00008738       ??_C@_1M@EPAJJAJF@?$AAu?$AAr?$AA?9?$AAp?$AAk@ 0000000180048738     libucrt:lcidtoname_downlevel.obj
 0002:00008748       ??_C@_1BG@GEGPMCDJ@?$AAu?$AAz?$AA?9?$AAu?$AAz?$AA?9?$AAc?$AAy?$AAr?$AAl@ 0000000180048748     libucrt:lcidtoname_downlevel.obj
 0002:00008760       ??_C@_1BG@EGGKJILM@?$AAu?$AAz?$AA?9?$AAu?$AAz?$AA?9?$AAl?$AAa?$AAt?$AAn@ 0000000180048760     libucrt:lcidtoname_downlevel.obj
 0002:00008778       ??_C@_1M@GFOCLFF@?$AAv?$AAi?$AA?9?$AAv?$AAn@ 0000000180048778     libucrt:lcidtoname_downlevel.obj
 0002:00008788       ??_C@_1M@CPAMEDFI@?$AAx?$AAh?$AA?9?$AAz?$AAa@ 0000000180048788     libucrt:lcidtoname_downlevel.obj
 0002:00008798       ??_C@_1O@EBKIFIGN@?$AAz?$AAh?$AA?9?$AAc?$AAh?$AAs@ 0000000180048798     libucrt:lcidtoname_downlevel.obj
 0002:000087a8       ??_C@_1O@NMHPGANE@?$AAz?$AAh?$AA?9?$AAc?$AAh?$AAt@ 00000001800487a8     libucrt:lcidtoname_downlevel.obj
 0002:000087b8       ??_C@_1M@LPINJOMC@?$AAz?$AAh?$AA?9?$AAc?$AAn@ 00000001800487b8     libucrt:lcidtoname_downlevel.obj
 0002:000087c8       ??_C@_1M@OCJEJODD@?$AAz?$AAh?$AA?9?$AAh?$AAk@ 00000001800487c8     libucrt:lcidtoname_downlevel.obj
 0002:000087d8       ??_C@_1M@DNDLJINH@?$AAz?$AAh?$AA?9?$AAm?$AAo@ 00000001800487d8     libucrt:lcidtoname_downlevel.obj
 0002:000087e8       ??_C@_1M@MBFDNDND@?$AAz?$AAh?$AA?9?$AAs?$AAg@ 00000001800487e8     libucrt:lcidtoname_downlevel.obj
 0002:000087f8       ??_C@_1M@IMEPLEPE@?$AAz?$AAh?$AA?9?$AAt?$AAw@ 00000001800487f8     libucrt:lcidtoname_downlevel.obj
 0002:00008808       ??_C@_1M@BBGHNHJP@?$AAz?$AAu?$AA?9?$AAz?$AAa@ 0000000180048808     libucrt:lcidtoname_downlevel.obj
 0002:00008820       ?large_power_data@?1??multiply_by_power_of_ten@__crt_strtox@@YA_NAEAUbig_integer@2@I@Z@4QBIB 0000000180048820     libucrt:cfout.obj
 0002:00009130       ?large_power_indices@?1??multiply_by_power_of_ten@__crt_strtox@@YA_NAEAUbig_integer@2@I@Z@4QBUunpack_index@?1??12@YA_N0I@Z@B 0000000180049130     libucrt:cfout.obj
 0002:000091c8       ?small_powers_of_ten@?1??multiply_by_power_of_ten@__crt_strtox@@YA_NAEAUbig_integer@2@I@Z@4QBIB 00000001800491c8     libucrt:cfout.obj
 0002:000091ec       ??_C@_01GBGANLPD@0@        00000001800491ec     libucrt:cfout.obj
 0002:000091f0       ??_C@_05DNEBIAHO@1?$CDINF@ 00000001800491f0     libucrt:cfout.obj
 0002:000091f8       ??_C@_06IMKFLFPG@1?$CDQNAN@ 00000001800491f8     libucrt:cfout.obj
 0002:00009200       ??_C@_06PGGFOGJG@1?$CDSNAN@ 0000000180049200     libucrt:cfout.obj
 0002:00009208       ??_C@_05PHHOCPM@1?$CDIND@  0000000180049208     libucrt:cfout.obj
 0002:00009460       ??_C@_1BA@BALFACEM@?$AAC?$AAO?$AAN?$AAO?$AAU?$AAT?$AA$@ 0000000180049460     libucrt:initcon.obj
 0002:00009470       __log10_256_lead           0000000180049470     libucrt:log10_256_lead_tail_table.obj
 0002:00009c80       __log10_256_tail           0000000180049c80     libucrt:log10_256_lead_tail_table.obj
 0002:0000a490       __log_F_inv_qword          000000018004a490     libucrt:log_f_inv_qword_table.obj
 0002:0000aca0       ??_C@_05HGHHAHAP@log10@    000000018004aca0     libucrt:log_special.obj
 0002:0000acc8       ??_7concurrent_queue_base_v3@internal@tbb@@6B@ 000000018004acc8     concurrent_queue.obj
 0002:0000acf8       ??_C@_0BB@GHDLJDEE@libittnotify?4dll@ 000000018004acf8     itt_notify.obj
 0002:0000ad0c       ??_C@_03NFKEKGGK@all@      000000018004ad0c     itt_notify.obj
 0002:0000ad10       ??_C@_07MMBOFDEG@control@  000000018004ad10     itt_notify.obj
 0002:0000ad18       ??_C@_06FJHNOCKE@thread@   000000018004ad18     itt_notify.obj
 0002:0000ad20       ??_C@_04KJJCFCK@mark@      000000018004ad20     itt_notify.obj
 0002:0000ad28       ??_C@_04JNABKDKF@sync@     000000018004ad28     itt_notify.obj
 0002:0000ad30       ??_C@_05DEEMBJFM@fsync@    000000018004ad30     itt_notify.obj
 0002:0000ad38       ??_C@_03IGHFHLNJ@jit@      000000018004ad38     itt_notify.obj
 0002:0000ad3c       ??_C@_05NCCFOPHA@model@    000000018004ad3c     itt_notify.obj
 0002:0000ad48       ??_C@_07HDOCMLOI@counter@  000000018004ad48     itt_notify.obj
 0002:0000ad50       ??_C@_05MIJNFGED@frame@    000000018004ad50     itt_notify.obj
 0002:0000ad58       ??_C@_06LIGKBDMB@stitch@   000000018004ad58     itt_notify.obj
 0002:0000ad60       ??_C@_04PKENOLLO@heap@     000000018004ad60     itt_notify.obj
 0002:0000ad68       ??_C@_09GNENBKCD@structure@ 000000018004ad68     itt_notify.obj
 0002:0000ad78       ??_C@_08OGNBOPN@suppress@  000000018004ad78     itt_notify.obj
 0002:0000ad84       ??_C@_06FGACJBDJ@arrays@   000000018004ad84     itt_notify.obj
 0002:0000ad90       ??_C@_0BB@MEEBFJKA@KMP_FOR_TPROFILE@ 000000018004ad90     itt_notify.obj
 0002:0000ada8       ??_C@_0P@PHKFPIJA@KMP_FOR_TCHECK@ 000000018004ada8     itt_notify.obj
 0002:0000adb8       ??_C@_0BF@PJOOOGND@__itt_domain_createA@ 000000018004adb8     itt_notify.obj
 0002:0000add0       ??_C@_0BF@OFHGFDAE@__itt_domain_createW@ 000000018004add0     itt_notify.obj
 0002:0000ade8       ??_C@_0BM@KLFLEJAJ@__itt_string_handle_createA@ 000000018004ade8     itt_notify.obj
 0002:0000ae08       ??_C@_0BM@LHMDPMNO@__itt_string_handle_createW@ 000000018004ae08     itt_notify.obj
 0002:0000ae28       ??_C@_0BG@EMALNLPB@__itt_counter_createA@ 000000018004ae28     itt_notify.obj
 0002:0000ae40       ??_C@_0BG@FAJDGOCG@__itt_counter_createW@ 000000018004ae40     itt_notify.obj
 0002:0000ae58       ??_C@_0BM@IAMHAGDP@__itt_counter_create_typedA@ 000000018004ae58     itt_notify.obj
 0002:0000ae78       ??_C@_0BM@JMFPLDOI@__itt_counter_create_typedW@ 000000018004ae78     itt_notify.obj
 0002:0000ae98       ??_C@_0M@OBBFCECB@__itt_pause@ 000000018004ae98     itt_notify.obj
 0002:0000aea8       ??_C@_0N@PMDEDCGD@__itt_resume@ 000000018004aea8     itt_notify.obj
 0002:0000aeb8       ??_C@_0BH@NLDAAGM@__itt_thread_set_nameA@ 000000018004aeb8     itt_notify.obj
 0002:0000aed0       ??_C@_0BH@BBCLLFLL@__itt_thread_set_nameW@ 000000018004aed0     itt_notify.obj
 0002:0000aee8       ??_C@_0BE@GBGGMKDN@__itt_thread_ignore@ 000000018004aee8     itt_notify.obj
 0002:0000af00       ??_C@_0BE@PKPGFCJA@__itt_thr_name_setA@ 000000018004af00     itt_notify.obj
 0002:0000af18       ??_C@_0BE@OGGOOHEH@__itt_thr_name_setW@ 000000018004af18     itt_notify.obj
 0002:0000af30       ??_C@_0BB@NAOEIHEA@__itt_thr_ignore@ 000000018004af30     itt_notify.obj
 0002:0000af48       ??_C@_0BE@FOGOAMMO@__itt_enable_attach@ 000000018004af48     itt_notify.obj
 0002:0000af60       ??_C@_0N@CKFBNEAI@__itt_detach@ 000000018004af60     itt_notify.obj
 0002:0000af70       ??_C@_0BD@PFHNCEK@__itt_sync_createA@ 000000018004af70     itt_notify.obj
 0002:0000af88       ??_C@_0BD@BDMPGHJN@__itt_sync_createW@ 000000018004af88     itt_notify.obj
 0002:0000afa0       ??_C@_0BD@FKOJKJGJ@__itt_sync_renameA@ 000000018004afa0     itt_notify.obj
 0002:0000afb8       ??_C@_0BD@EGHBBMLO@__itt_sync_renameW@ 000000018004afb8     itt_notify.obj
 0002:0000afd0       ??_C@_0BD@OFAHOGJG@__itt_sync_destroy@ 000000018004afd0     itt_notify.obj
 0002:0000afe8       ??_C@_0BD@CPKFKJEO@__itt_sync_prepare@ 000000018004afe8     itt_notify.obj
 0002:0000b000       ??_C@_0BC@MCENPEOO@__itt_sync_cancel@ 000000018004b000     itt_notify.obj
 0002:0000b018       ??_C@_0BE@GIFMGCLF@__itt_sync_acquired@ 000000018004b018     itt_notify.obj
 0002:0000b030       ??_C@_0BF@DIEOIMOH@__itt_sync_releasing@ 000000018004b030     itt_notify.obj
 0002:0000b048       ??_C@_0BE@MOLOMFNM@__itt_suppress_push@ 000000018004b048     itt_notify.obj
 0002:0000b060       ??_C@_0BD@KGNENPHI@__itt_suppress_pop@ 000000018004b060     itt_notify.obj
 0002:0000b078       ??_C@_0BK@EJIICLPM@__itt_suppress_mark_range@ 000000018004b078     itt_notify.obj
 0002:0000b098       ??_C@_0BL@GLLGHEDD@__itt_suppress_clear_range@ 000000018004b098     itt_notify.obj
 0002:0000b0b8       ??_C@_0BH@IDPLHABA@__itt_model_site_begin@ 000000018004b0b8     itt_notify.obj
 0002:0000b0d0       ??_C@_0BF@HJKONEDB@__itt_model_site_end@ 000000018004b0d0     itt_notify.obj
 0002:0000b0e8       ??_C@_0BH@MIPMFKJM@__itt_model_task_begin@ 000000018004b0e8     itt_notify.obj
 0002:0000b100       ??_C@_0BF@DBIHPNLD@__itt_model_task_end@ 000000018004b100     itt_notify.obj
 0002:0000b118       ??_C@_0BJ@LAGBGFNL@__itt_model_lock_acquire@ 000000018004b118     itt_notify.obj
 0002:0000b138       ??_C@_0BJ@DKFLKCDG@__itt_model_lock_release@ 000000018004b138     itt_notify.obj
 0002:0000b158       ??_C@_0BO@CMNEKAED@__itt_model_record_allocation@ 000000018004b158     itt_notify.obj
 0002:0000b178       ??_C@_0CA@BLKMEFKM@__itt_model_record_deallocation@ 000000018004b178     itt_notify.obj
 0002:0000b198       ??_C@_0BL@EMIILPPM@__itt_model_induction_uses@ 000000018004b198     itt_notify.obj
 0002:0000b1b8       ??_C@_0BL@JJCGLNKA@__itt_model_reduction_uses@ 000000018004b1b8     itt_notify.obj
 0002:0000b1d8       ??_C@_0BJ@ECNIEHOA@__itt_model_observe_uses@ 000000018004b1d8     itt_notify.obj
 0002:0000b1f8       ??_C@_0BH@KLLGKJEK@__itt_model_clear_uses@ 000000018004b1f8     itt_notify.obj
 0002:0000b210       ??_C@_0BI@OIMOCAIH@__itt_model_site_beginW@ 000000018004b210     itt_notify.obj
 0002:0000b228       ??_C@_0BI@MILOIKG@__itt_model_task_beginW@ 000000018004b228     itt_notify.obj
 0002:0000b240       ??_C@_0BM@NIKMILDP@__itt_model_iteration_taskW@ 000000018004b240     itt_notify.obj
 0002:0000b260       ??_C@_0BI@PEFGJFFA@__itt_model_site_beginA@ 000000018004b260     itt_notify.obj
 0002:0000b278       ??_C@_0BJ@DHFDAHGI@__itt_model_site_beginAL@ 000000018004b278     itt_notify.obj
 0002:0000b298       ??_C@_0BI@BABDFNHB@__itt_model_task_beginA@ 000000018004b298     itt_notify.obj
 0002:0000b2b0       ??_C@_0BJ@HLNOFCPO@__itt_model_task_beginAL@ 000000018004b2b0     itt_notify.obj
 0002:0000b2d0       ??_C@_0BM@MEDEDOOI@__itt_model_iteration_taskA@ 000000018004b2d0     itt_notify.obj
 0002:0000b2f0       ??_C@_0BN@PCNJFOHN@__itt_model_iteration_taskAL@ 000000018004b2f0     itt_notify.obj
 0002:0000b310       ??_C@_0BH@MNHDFFCN@__itt_model_site_end_2@ 000000018004b310     itt_notify.obj
 0002:0000b328       ??_C@_0BH@IGHEHPKB@__itt_model_task_end_2@ 000000018004b328     itt_notify.obj
 0002:0000b340       ??_C@_0BL@NFIEAEJO@__itt_model_lock_acquire_2@ 000000018004b340     itt_notify.obj
 0002:0000b360       ??_C@_0BL@DLFEFEBG@__itt_model_lock_release_2@ 000000018004b360     itt_notify.obj
 0002:0000b380       ??_C@_0BL@FOHNDHC@__itt_model_aggregate_task@ 000000018004b380     itt_notify.obj
 0002:0000b3a0       ??_C@_0BJ@MAMFFHFB@__itt_model_disable_push@ 000000018004b3a0     itt_notify.obj
 0002:0000b3c0       ??_C@_0BI@GMOGAHA@__itt_model_disable_pop@ 000000018004b3c0     itt_notify.obj
 0002:0000b3d8       ??_C@_0BM@JODLENCC@__itt_heap_function_createA@ 000000018004b3d8     itt_notify.obj
 0002:0000b3f8       ??_C@_0BM@ICKDPIPF@__itt_heap_function_createW@ 000000018004b3f8     itt_notify.obj
 0002:0000b418       ??_C@_0BK@DMCMAEMK@__itt_heap_allocate_begin@ 000000018004b418     itt_notify.obj
 0002:0000b438       ??_C@_0BI@BKGPODF@__itt_heap_allocate_end@ 000000018004b438     itt_notify.obj
 0002:0000b450       ??_C@_0BG@NCFEDJCH@__itt_heap_free_begin@ 000000018004b450     itt_notify.obj
 0002:0000b468       ??_C@_0BE@IBCGGMHF@__itt_heap_free_end@ 000000018004b468     itt_notify.obj
 0002:0000b480       ??_C@_0BM@DNPPEBNN@__itt_heap_reallocate_begin@ 000000018004b480     itt_notify.obj
 0002:0000b4a0       ??_C@_0BK@FIIKJCHI@__itt_heap_reallocate_end@ 000000018004b4a0     itt_notify.obj
 0002:0000b4c0       ??_C@_0CB@KBHILEOD@__itt_heap_internal_access_begi@ 000000018004b4c0     itt_notify.obj
 0002:0000b4e8       ??_C@_0BP@BFPCKPOF@__itt_heap_internal_access_end@ 000000018004b4e8     itt_notify.obj
 0002:0000b508       ??_C@_0CG@NEGAEGJL@__itt_heap_record_memory_growth@ 000000018004b508     itt_notify.obj
 0002:0000b530       ??_C@_0CE@EDHBOICD@__itt_heap_record_memory_growth@ 000000018004b530     itt_notify.obj
 0002:0000b558       ??_C@_0BL@IHEFPDEL@__itt_heap_reset_detection@ 000000018004b558     itt_notify.obj
 0002:0000b578       ??_C@_0BC@EGKDFPLB@__itt_heap_record@ 000000018004b578     itt_notify.obj
 0002:0000b590       ??_C@_0BA@NONPBKLG@__itt_id_create@ 000000018004b590     itt_notify.obj
 0002:0000b5a0       ??_C@_0BB@CBOOIDDL@__itt_id_destroy@ 000000018004b5a0     itt_notify.obj
 0002:0000b5b8       ??_C@_0BE@FLOGCMMH@__itt_get_timestamp@ 000000018004b5b8     itt_notify.obj
 0002:0000b5d0       ??_C@_0BD@BNMNCHKB@__itt_region_begin@ 000000018004b5d0     itt_notify.obj
 0002:0000b5e8       ??_C@_0BB@NDFOOFIC@__itt_region_end@ 000000018004b5e8     itt_notify.obj
 0002:0000b600       ??_C@_0BF@DPIEHAGN@__itt_frame_begin_v3@ 000000018004b600     itt_notify.obj
 0002:0000b618       ??_C@_0BD@EHKFFIBH@__itt_frame_end_v3@ 000000018004b618     itt_notify.obj
 0002:0000b630       ??_C@_0BG@BPCLPPEH@__itt_frame_submit_v3@ 000000018004b630     itt_notify.obj
 0002:0000b648       ??_C@_0BB@GGFEPPDE@__itt_task_group@ 000000018004b648     itt_notify.obj
 0002:0000b660       ??_C@_0BB@OAJAGIDB@__itt_task_begin@ 000000018004b660     itt_notify.obj
 0002:0000b678       ??_C@_0BE@FMMIBDOD@__itt_task_begin_fn@ 000000018004b678     itt_notify.obj
 0002:0000b690       ??_C@_0P@NALCCCCE@__itt_task_end@ 000000018004b690     itt_notify.obj
 0002:0000b6a0       ??_C@_0BF@MDKFBHAH@__itt_counter_inc_v3@ 000000018004b6a0     itt_notify.obj
 0002:0000b6b8       ??_C@_0BL@HIGIHDCP@__itt_counter_inc_delta_v3@ 000000018004b6b8     itt_notify.obj
 0002:0000b6d8       ??_C@_0BF@MILFIGAE@__itt_counter_dec_v3@ 000000018004b6d8     itt_notify.obj
 0002:0000b6f0       ??_C@_0BL@EONGLHFP@__itt_counter_dec_delta_v3@ 000000018004b6f0     itt_notify.obj
 0002:0000b710       ??_C@_0N@HAAFEAGA@__itt_marker@ 000000018004b710     itt_notify.obj
 0002:0000b720       ??_C@_0BD@IGOPKBOL@__itt_metadata_add@ 000000018004b720     itt_notify.obj
 0002:0000b738       ??_C@_0BI@NEEFELOF@__itt_metadata_str_addA@ 000000018004b738     itt_notify.obj
 0002:0000b750       ??_C@_0BI@MINNPODC@__itt_metadata_str_addW@ 000000018004b750     itt_notify.obj
 0002:0000b768       ??_C@_0BO@OPDDBKND@__itt_relation_add_to_current@ 000000018004b768     itt_notify.obj
 0002:0000b788       ??_C@_0BD@OKAHNEKP@__itt_relation_add@ 000000018004b788     itt_notify.obj
 0002:0000b7a0       ??_C@_0BE@PFMCBGMI@__itt_event_createA@ 000000018004b7a0     itt_notify.obj
 0002:0000b7b8       ??_C@_0BE@OJFKKDBP@__itt_event_createW@ 000000018004b7b8     itt_notify.obj
 0002:0000b7d0       ??_C@_0BC@CFNFCMCG@__itt_event_start@ 000000018004b7d0     itt_notify.obj
 0002:0000b7e8       ??_C@_0BA@IJAPHNDA@__itt_event_end@ 000000018004b7e8     itt_notify.obj
 0002:0000b7f8       ??_C@_0BF@NPFOLKPO@__itt_sync_set_nameA@ 000000018004b7f8     itt_notify.obj
 0002:0000b810       ??_C@_0BF@MDMGAPCJ@__itt_sync_set_nameW@ 000000018004b810     itt_notify.obj
 0002:0000b828       ??_C@_0BI@CHABHBNF@__itt_notify_sync_nameA@ 000000018004b828     itt_notify.obj
 0002:0000b840       ??_C@_0BI@DLJJMEAC@__itt_notify_sync_nameW@ 000000018004b840     itt_notify.obj
 0002:0000b858       ??_C@_0BK@EPNEOEMG@__itt_notify_sync_prepare@ 000000018004b858     itt_notify.obj
 0002:0000b878       ??_C@_0BJ@DIOKJHB@__itt_notify_sync_cancel@ 000000018004b878     itt_notify.obj
 0002:0000b898       ??_C@_0BL@ILFPBIOK@__itt_notify_sync_acquired@ 000000018004b898     itt_notify.obj
 0002:0000b8b8       ??_C@_0BM@MDHJMDPI@__itt_notify_sync_releasing@ 000000018004b8b8     itt_notify.obj
 0002:0000b8d8       ??_C@_0BC@FOINABEG@__itt_memory_read@ 000000018004b8d8     itt_notify.obj
 0002:0000b8f0       ??_C@_0BD@NMPEKHPI@__itt_memory_write@ 000000018004b8f0     itt_notify.obj
 0002:0000b908       ??_C@_0BE@PDNEALBC@__itt_memory_update@ 000000018004b908     itt_notify.obj
 0002:0000b920       ??_C@_0BA@OOLJINGG@__itt_state_get@ 000000018004b920     itt_notify.obj
 0002:0000b930       ??_C@_0BA@DBMCENKO@__itt_state_set@ 000000018004b930     itt_notify.obj
 0002:0000b940       ??_C@_0BD@OMOHDNKK@__itt_obj_mode_set@ 000000018004b940     itt_notify.obj
 0002:0000b958       ??_C@_0BD@EBCLOJDM@__itt_thr_mode_set@ 000000018004b958     itt_notify.obj
 0002:0000b970       ??_C@_0BE@BLJCOOCN@__itt_frame_createA@ 000000018004b970     itt_notify.obj
 0002:0000b988       ??_C@_0BE@HAKFLPK@__itt_frame_createW@ 000000018004b988     itt_notify.obj
 0002:0000b9a0       ??_C@_0BI@BNNKGPIB@__itt_pt_region_createA@ 000000018004b9a0     itt_notify.obj
 0002:0000b9b8       ??_C@_0BI@BECNKFG@__itt_pt_region_createW@ 000000018004b9b8     itt_notify.obj
 0002:0000b9d0       ??_C@_0BC@HCNKKGME@__itt_frame_begin@ 000000018004b9d0     itt_notify.obj
 0002:0000b9e8       ??_C@_0BA@ECPMFCGG@__itt_frame_end@ 000000018004b9e8     itt_notify.obj
 0002:0000b9f8       ??_C@_0BG@KGFLOPCN@__itt_counter_destroy@ 000000018004b9f8     itt_notify.obj
 0002:0000ba10       ??_C@_0BC@JMKIDDKB@__itt_counter_inc@ 000000018004ba10     itt_notify.obj
 0002:0000ba28       ??_C@_0BI@BNDIOJN@__itt_counter_inc_delta@ 000000018004ba28     itt_notify.obj
 0002:0000ba40       ??_C@_0BC@GCJHAEJN@__itt_counter_dec@ 000000018004ba40     itt_notify.obj
 0002:0000ba58       ??_C@_0BI@HGHIJLPA@__itt_counter_dec_delta@ 000000018004ba58     itt_notify.obj
 0002:0000ba70       ??_C@_0BI@BLEEJDDA@__itt_counter_set_value@ 000000018004ba70     itt_notify.obj
 0002:0000ba88       ??_C@_0BL@DFCCFMBK@__itt_counter_set_value_ex@ 000000018004ba88     itt_notify.obj
 0002:0000baa8       ??_C@_0BD@PMJJPFNK@__itt_mark_createA@ 000000018004baa8     itt_notify.obj
 0002:0000bac0       ??_C@_0BD@OAABEAAN@__itt_mark_createW@ 000000018004bac0     itt_notify.obj
 0002:0000bad8       ??_C@_0M@CAFHBOLD@__itt_markA@ 000000018004bad8     itt_notify.obj
 0002:0000bae8       ??_C@_0M@DMMPKLGE@__itt_markW@ 000000018004bae8     itt_notify.obj
 0002:0000baf8       ??_C@_0P@CFDOAOOE@__itt_mark_off@ 000000018004baf8     itt_notify.obj
 0002:0000bb08       ??_C@_0BD@MBBPNJCH@__itt_mark_globalA@ 000000018004bb08     itt_notify.obj
 0002:0000bb20       ??_C@_0BD@NNIHGMPA@__itt_mark_globalW@ 000000018004bb20     itt_notify.obj
 0002:0000bb38       ??_C@_0BG@CDJIJGAC@__itt_mark_global_off@ 000000018004bb38     itt_notify.obj
 0002:0000bb50       ??_C@_0BK@EPFIOCIO@__itt_stack_caller_create@ 000000018004bb50     itt_notify.obj
 0002:0000bb70       ??_C@_0BL@JHNLMFN@__itt_stack_caller_destroy@ 000000018004bb70     itt_notify.obj
 0002:0000bb90       ??_C@_0BJ@GAJNHHI@__itt_stack_callee_enter@ 000000018004bb90     itt_notify.obj
 0002:0000bbb0       ??_C@_0BJ@CKPCIJLD@__itt_stack_callee_leave@ 000000018004bbb0     itt_notify.obj
 0002:0000bbd0       ??_C@_0BK@DDICILFO@__itt_clock_domain_create@ 000000018004bbd0     itt_notify.obj
 0002:0000bbf0       ??_C@_0BJ@NEHPBEIJ@__itt_clock_domain_reset@ 000000018004bbf0     itt_notify.obj
 0002:0000bc10       ??_C@_0BD@FNAGFCCD@__itt_id_create_ex@ 000000018004bc10     itt_notify.obj
 0002:0000bc28       ??_C@_0BE@EFLGOLGG@__itt_id_destroy_ex@ 000000018004bc28     itt_notify.obj
 0002:0000bc40       ??_C@_0BE@ECBGBIGN@__itt_task_begin_ex@ 000000018004bc40     itt_notify.obj
 0002:0000bc58       ??_C@_0BH@GFGAIAHE@__itt_task_begin_fn_ex@ 000000018004bc58     itt_notify.obj
 0002:0000bc70       ??_C@_0BC@IHANJPKN@__itt_task_end_ex@ 000000018004bc70     itt_notify.obj
 0002:0000bc88       ??_C@_0BM@LOFKKKAI@__itt_task_begin_overlapped@ 000000018004bc88     itt_notify.obj
 0002:0000bca8       ??_C@_0BP@OLNBFIEO@__itt_task_begin_overlapped_ex@ 000000018004bca8     itt_notify.obj
 0002:0000bcc8       ??_C@_0BK@MBKJKMLA@__itt_task_end_overlapped@ 000000018004bcc8     itt_notify.obj
 0002:0000bce8       ??_C@_0BN@FCHCPDLJ@__itt_task_end_overlapped_ex@ 000000018004bce8     itt_notify.obj
 0002:0000bd08       ??_C@_0BA@PCFAJFBL@__itt_marker_ex@ 000000018004bd08     itt_notify.obj
 0002:0000bd18       ??_C@_0BO@IBJHPIEA@__itt_metadata_add_with_scope@ 000000018004bd18     itt_notify.obj
 0002:0000bd38       ??_C@_0CD@DBMMAEJ@__itt_metadata_str_add_with_sco@ 000000018004bd38     itt_notify.obj
 0002:0000bd60       ??_C@_0CD@BPIEHFJO@__itt_metadata_str_add_with_sco@ 000000018004bd60     itt_notify.obj
 0002:0000bd88       ??_C@_0CB@LKKGPFIK@__itt_relation_add_to_current_e@ 000000018004bd88     itt_notify.obj
 0002:0000bdb0       ??_C@_0BG@JDIAGKMO@__itt_relation_add_ex@ 000000018004bdb0     itt_notify.obj
 0002:0000bdc8       ??_C@_0BJ@DABHBHOM@__itt_track_group_create@ 000000018004bdc8     itt_notify.obj
 0002:0000bde8       ??_C@_0BD@JAMANPOD@__itt_track_create@ 000000018004bde8     itt_notify.obj
 0002:0000be00       ??_C@_0BA@LBIEJOAG@__itt_set_track@ 000000018004be00     itt_notify.obj
 0002:0000be10       ??_C@_0BC@LLDNPJMG@__itt_api_version@ 000000018004be10     itt_notify.obj
 0002:0000be28       ??_C@_0P@BPBIAPKG@__itt_av_saveA@ 000000018004be28     itt_notify.obj
 0002:0000be38       ??_C@_0P@DIALKHB@__itt_av_saveW@ 000000018004be38     itt_notify.obj
 0002:0000be48       ??_C@_0BD@OLAPBGOI@__itt_module_loadA@ 000000018004be48     itt_notify.obj
 0002:0000be60       ??_C@_0BD@PHJHKDDP@__itt_module_loadW@ 000000018004be60     itt_notify.obj
 0002:0000be78       ??_C@_0BF@DALCJNFN@INTEL_LIBITTNOTIFY64@ 000000018004be78     itt_notify.obj
 0002:0000be90       ??_C@_0BH@BCIELMCH@INTEL_ITTNOTIFY_GROUPS@ 000000018004be90     itt_notify.obj
 0002:0000bea8       ??_C@_03IJOFBOLG@?0?$DL?5@ 000000018004bea8     itt_notify.obj
 0002:0000beb0       ??_C@_0P@GMFMFMGH@__itt_api_init@ 000000018004beb0     itt_notify.obj
 0002:0000bec0       ??_C@_0P@IJPIIJJG@__itt_api_fini@ 000000018004bec0     itt_notify.obj
 0002:0000bed0       ??_C@_1BM@HPHMLNHL@?$AAT?$AAb?$AAb?$AAG?$AAl?$AAo?$AAb?$AAa?$AAl?$AAL?$AAo?$AAc?$AAk@ 000000018004bed0     itt_notify.obj
 0002:0000bef0       ??_C@_1BE@HCOPGFC@?$AA?$CF?$AAC?$AAo?$AAn?$AAs?$AAt?$AAa?$AAn?$AAt@ 000000018004bef0     itt_notify.obj
 0002:0000bf08       ??_C@_1DG@DAINFCM@?$AAT?$AAb?$AAb?$AAS?$AAc?$AAh?$AAe?$AAd?$AAu?$AAl?$AAe?$AAr?$AAI?$AAn?$AAi@ 000000018004bf08     itt_notify.obj
 0002:0000bf40       ??_C@_1BM@LJBJJICB@?$AAT?$AAB?$AAB?$AA?5?$AAS?$AAc?$AAh?$AAe?$AAd?$AAu?$AAl?$AAe?$AAr@ 000000018004bf40     itt_notify.obj
 0002:0000bfa8       ?SyncType_GlobalLock@tbb@@3PEB_WEB 000000018004bfa8     itt_notify.obj
 0002:0000bfb0       ?SyncObj_WorkerLifeCycleMgmt@tbb@@3PEB_WEB 000000018004bfb0     itt_notify.obj
 0002:0000bfb8       ?SyncObj_SchedulerInitialization@tbb@@3PEB_WEB 000000018004bfb8     itt_notify.obj
 0002:0000bfc0       ?SyncType_Scheduler@tbb@@3PEB_WEB 000000018004bfc0     itt_notify.obj
 0002:0000bfc8       ?SyncObj_WorkerTaskPool@tbb@@3PEB_WEB 000000018004bfc8     itt_notify.obj
 0002:0000bfd0       ?SyncObj_TaskStealingLoop@tbb@@3PEB_WEB 000000018004bfd0     itt_notify.obj
 0002:0000bfd8       ?SyncObj_ContextsList@tbb@@3PEB_WEB 000000018004bfd8     itt_notify.obj
 0002:0000bfe0       ?SyncObj_Mailbox@tbb@@3PEB_WEB 000000018004bfe0     itt_notify.obj
 0002:0000bfe8       ?SyncObj_TaskStream@tbb@@3PEB_WEB 000000018004bfe8     itt_notify.obj
 0002:0000bff0       ?SyncObj_TaskReturnList@tbb@@3PEB_WEB 000000018004bff0     itt_notify.obj
 0002:0000bff8       ?SyncObj_TaskPoolSpinning@tbb@@3PEB_WEB 000000018004bff8     itt_notify.obj
 0002:0000c4a8       ??_C@_0BA@NAPEMIJE@scalable_malloc@ 000000018004c4a8     cache_aligned_allocator.obj
 0002:0000c4b8       ??_C@_0O@IMDKFEIF@scalable_free@ 000000018004c4b8     cache_aligned_allocator.obj
 0002:0000c4c8       ??_C@_0BI@IFMFIIAC@scalable_aligned_malloc@ 000000018004c4c8     cache_aligned_allocator.obj
 0002:0000c4e0       ??_C@_0BG@IEFKBPOM@scalable_aligned_free@ 000000018004c4e0     cache_aligned_allocator.obj
 0002:0000c4f8       ??_C@_0O@FOJJPCPH@tbbmalloc?4dll@ 000000018004c4f8     cache_aligned_allocator.obj
 0002:0000c508       ??_C@_06GLDDLHNF@malloc@   000000018004c508     cache_aligned_allocator.obj
 0002:0000c510       ??_C@_09MCKBLNND@ALLOCATOR@ 000000018004c510     cache_aligned_allocator.obj
 0002:0000c520       ??_C@_0BN@OAIFFPEB@TLS?5not?5allocated?5for?5filter@ 000000018004c520     pipeline.obj
 0002:0000c548       ??_7task@tbb@@6B@          000000018004c548     pipeline.obj
 0002:0000c568       ??_7pipeline_root_task@internal@tbb@@6B@ 000000018004c568     pipeline.obj
 0002:0000c588       ??_7pipeline@tbb@@6B@      000000018004c588     pipeline.obj
 0002:0000c598       ??_7filter@tbb@@6B@        000000018004c598     pipeline.obj
 0002:0000c5b8       ??_7stage_task@internal@tbb@@6B@ 000000018004c5b8     pipeline.obj
 0002:0000c5d0       ??_C@_11LOCGONAA@@         000000018004c5d0     queuing_mutex.obj
 0002:0000c5d8       ??_C@_1CG@PJPBKEPC@?$AAt?$AAb?$AAb?$AA?3?$AA?3?$AAq?$AAu?$AAe?$AAu?$AAi?$AAn?$AAg?$AA_?$AAm?$AAu@ 000000018004c5d8     queuing_mutex.obj
 0002:0000c600       ??_C@_1CM@KJEIFCEB@?$AAt?$AAb?$AAb?$AA?3?$AA?3?$AAq?$AAu?$AAe?$AAu?$AAi?$AAn?$AAg?$AA_?$AAr?$AAw@ 000000018004c600     queuing_rw_mutex.obj
 0002:0000c630       ??_C@_1CG@PLAHABG@?$AAt?$AAb?$AAb?$AA?3?$AA?3?$AAs?$AAp?$AAi?$AAn?$AA_?$AAr?$AAw?$AA_?$AAm?$AAu@ 000000018004c630     spin_rw_mutex.obj
 0002:0000c658       ??_C@_1CM@JOBNLJOH@?$AAt?$AAb?$AAb?$AA?3?$AA?3?$AAx?$AA8?$AA6?$AA_?$AAr?$AAt?$AAm?$AA_?$AAr?$AAw@ 000000018004c658     x86_rtm_rw_mutex.obj
 0002:0000c688       ??_C@_1CA@OBNAGBIB@?$AAt?$AAb?$AAb?$AA?3?$AA?3?$AAs?$AAp?$AAi?$AAn?$AA_?$AAm?$AAu?$AAt?$AAe?$AAx@ 000000018004c688     spin_mutex.obj
 0002:0000c6a8       ??_C@_1CM@JDGEMKJN@?$AAp?$AAp?$AAl?$AA?3?$AA?3?$AAc?$AAr?$AAi?$AAt?$AAi?$AAc?$AAa?$AAl?$AA_?$AAs@ 000000018004c6a8     critical_section.obj
 0002:0000c6e0       ??_C@_0EH@MIDOCILP@mutex?3?3scoped_lock?3?5deadlock?5ca@ 000000018004c6e0     mutex.obj
 0002:0000c728       ??_C@_1BG@ODPLMIDC@?$AAt?$AAb?$AAb?$AA?3?$AA?3?$AAm?$AAu?$AAt?$AAe?$AAx@ 000000018004c728     mutex.obj
 0002:0000c740       ??_C@_1CK@OOCNHJOL@?$AAt?$AAb?$AAb?$AA?3?$AA?3?$AAr?$AAe?$AAc?$AAu?$AAr?$AAs?$AAi?$AAv?$AAe?$AA_@ 000000018004c740     recursive_mutex.obj
 0002:0000c770       ??_C@_0BM@HLJJNPAH@InitializeConditionVariable@ 000000018004c770     condition_variable.obj
 0002:0000c790       ??_C@_0BJ@JEBJOJFJ@SleepConditionVariableCS@ 000000018004c790     condition_variable.obj
 0002:0000c7b0       ??_C@_0BG@BFNILBLN@WakeConditionVariable@ 000000018004c7b0     condition_variable.obj
 0002:0000c7c8       ??_C@_0BJ@PGPPEPCC@WakeAllConditionVariable@ 000000018004c7c8     condition_variable.obj
 0002:0000c7e8       ??_C@_0N@HAOHNMDE@Kernel32?4dll@ 000000018004c7e8     condition_variable.obj
 0002:0000c7f8       ??_C@_0BB@HLANDHKP@tbb_thread?3?3join@ 000000018004c7f8     tbb_thread.obj
 0002:0000c810       ??_C@_0BD@EHCAPBKM@tbb_thread?3?3detach@ 000000018004c810     tbb_thread.obj
 0002:0000c828       ??_C@_0BA@HNJHLFML@__beginthreadex@ 000000018004c828     tbb_thread.obj
 0002:0000c838       ??_C@_1CA@CAIBFCHC@?$AAR?$AAM?$AAL?$AA?5?$AAT?$AAh?$AAr?$AA?5?$AAM?$AAo?$AAn?$AAi?$AAt?$AAo?$AAr@ 000000018004c838     private_server.obj
 0002:0000c858       ??_C@_0CP@ECLIENFE@thread_monitor?3?3launch?3?5_begint@ 000000018004c858     private_server.obj
 0002:0000c890       ??_7private_server@rml@internal@tbb@@6B@ 000000018004c890     private_server.obj
 0002:0000c8d8       ??_C@_0BD@CAMIMILA@__RML_open_factory@ 000000018004c8d8     rml_tbb.obj
 0002:0000c8f0       ??_C@_0BG@HALCIFOA@__TBB_make_rml_server@ 000000018004c8f0     rml_tbb.obj
 0002:0000c908       ??_C@_0BE@HJHNNOAB@__RML_close_factory@ 000000018004c908     rml_tbb.obj
 0002:0000c920       ??_C@_0BP@ODNGMCC@__TBB_call_with_my_server_info@ 000000018004c920     rml_tbb.obj
 0002:0000c940       ??_C@_08NACEEPJJ@irml?4dll@ 000000018004c940     rml_tbb.obj
 0002:0000c950       ??_C@_0BC@EOODALEL@Unknown?5exception@ 000000018004c950     tbb_misc.obj
 0002:0000c968       ??_C@_0P@GHFPNOJB@bad?5allocation@ 000000018004c968     tbb_misc.obj
 0002:0000c978       ??_C@_0CL@PHAMFLPE@Assertion?5?$CFs?5failed?5on?5line?5?$CFd?5@ 000000018004c978     tbb_misc.obj
 0002:0000c9a8       ??_C@_0BK@GNEKDGNN@Detailed?5description?3?5?$CFs?6@ 000000018004c9a8     tbb_misc.obj
 0002:0000c9c8       ??_C@_0BB@IDICOHEL@TBB?5Warning?3?5?$CFs?6@ 000000018004c9c8     tbb_misc.obj
 0002:0000c9e0       ??_C@_0DB@EHGGIPPP@bad?5allocation?5in?5previous?5or?5c@ 000000018004c9e0     tbb_misc.obj
 0002:0000ca20       ??_C@_0EE@GAOIKEOM@attempted?5recursive?5lock?5on?5cri@ 000000018004ca20     tbb_misc.obj
 0002:0000ca68       ??_C@_0DD@PCCDFJFN@User?9initiated?5abort?5has?5termin@ 000000018004ca68     tbb_misc.obj
 0002:0000caa0       ??_C@_0DO@ODMIBMOL@The?5same?5task_handle?5object?5can@ 000000018004caa0     tbb_misc.obj
 0002:0000cae0       ??_C@_0DD@BLHHBEJJ@wait?$CI?$CJ?5was?5not?5called?5on?5the?5st@ 000000018004cae0     tbb_misc.obj
 0002:0000cb14       ??_C@_06DJHOIPC@?$CFs?3?5?$CFs@ 000000018004cb14     tbb_misc.obj
 0002:0000cb20       ??_C@_0BG@CGPDMLJD@Step?5must?5be?5positive@ 000000018004cb20     tbb_misc.obj
 0002:0000cb38       ??_C@_0CC@LGDCOMIO@Index?5out?5of?5requested?5size?5ran@ 000000018004cb38     tbb_misc.obj
 0002:0000cb60       ??_C@_0CF@FOAMFCKF@Index?5out?5of?5allocated?5segment?5@ 000000018004cb60     tbb_misc.obj
 0002:0000cb88       ??_C@_0BH@JPEMMDHK@Index?5is?5not?5allocated@ 000000018004cb88     tbb_misc.obj
 0002:0000cba0       ??_C@_0BO@PIMGLGEN@Resource?5deadlock?5would?5occur@ 000000018004cba0     tbb_misc.obj
 0002:0000cbc0       ??_C@_0BI@BJFCGOHL@Operation?5not?5permitted@ 000000018004cbc0     tbb_misc.obj
 0002:0000cbd8       ??_C@_0CC@PACKIMIC@Wait?5on?5condition?5variable?5fail@ 000000018004cbd8     tbb_misc.obj
 0002:0000cc00       ??_C@_0BJ@CNNJIMJ@Invalid?5hash?5load?5factor@ 000000018004cc00     tbb_misc.obj
 0002:0000cc20       ??_C@_0DD@JIFGIFI@?$FLbackward?5compatibility?$FN?5Invali@ 000000018004cc20     tbb_misc.obj
 0002:0000cc58       ??_C@_0CK@HKNLFKFK@swap?$CI?$CJ?5is?5invalid?5on?5non?9equal?5@ 000000018004cc58     tbb_misc.obj
 0002:0000cc88       ??_C@_0CM@BHPAMPN@reservation?5size?5exceeds?5permit@ 000000018004cc88     tbb_misc.obj
 0002:0000ccb8       ??_C@_0M@BEDENHPD@invalid?5key@ 000000018004ccb8     tbb_misc.obj
 0002:0000ccc8       ??_C@_0BI@DEMFIOGM@Illegal?5tagged_msg?5cast@ 000000018004ccc8     tbb_misc.obj
 0002:0000cce0       ??_C@_0BK@MPLHFPGJ@Blocking?5terminate?5failed@ 000000018004cce0     tbb_misc.obj
 0002:0000cd00       ??_C@_0M@MLMCGNOA@TBB?3?5?$CFs?7?$CFs?6@ 000000018004cd00     tbb_misc.obj
 0002:0000cd18       ??_7user_abort@tbb@@6B@    000000018004cd18     tbb_misc.obj
 0002:0000cd30       ??_7invalid_multiple_scheduling@tbb@@6B@ 000000018004cd30     tbb_misc.obj
 0002:0000cd48       ??_7range_error@std@@6B@   000000018004cd48     tbb_misc.obj
 0002:0000cd60       ??_7missing_wait@tbb@@6B@  000000018004cd60     tbb_misc.obj
 0002:0000cd78       ??_7improper_lock@tbb@@6B@ 000000018004cd78     tbb_misc.obj
 0002:0000cd90       ??_7bad_last_alloc@tbb@@6B@ 000000018004cd90     tbb_misc.obj
 0002:0000cda0       ??_C@_0BI@DGHANAAJ@GetActiveProcessorCount@ 000000018004cda0     tbb_misc_ex.obj
 0002:0000cdb8       ??_C@_0BN@LPAFAILO@GetActiveProcessorGroupCount@ 000000018004cdb8     tbb_misc_ex.obj
 0002:0000cdd8       ??_C@_0BH@CJPDKMEB@SetThreadGroupAffinity@ 000000018004cdd8     tbb_misc_ex.obj
 0002:0000cdf0       ??_C@_0BH@CINNILJO@GetThreadGroupAffinity@ 000000018004cdf0     tbb_misc_ex.obj
 0002:0000ce08       ??_C@_02DPKJAMEF@?$CFd@    000000018004ce08     tbb_misc_ex.obj
 0002:0000ce10       ??_C@_0BB@PNFHLMII@Processor?5groups@ 000000018004ce10     tbb_misc_ex.obj
 0002:0000ce28       ??_C@_0M@EBCKCMNJ@?$CFd?3?5size?5?$CFd@ 000000018004ce28     tbb_misc_ex.obj
 0002:0000ce38       ??_C@_0M@KEGADPLK@?9?9?9?9?9?5Group@ 000000018004ce38     tbb_misc_ex.obj
 0002:0000ce48       ??_C@_0BH@IFIKJPDO@Unidentified?5exception@ 000000018004ce48     task_group_context.obj
 0002:0000ce60       ??_C@_03KHICJKCI@?4?4?4@   000000018004ce60     task_group_context.obj
 0002:0000ce70       ??_7tbb_exception@tbb@@6B@ 000000018004ce70     task_group_context.obj
 0002:0000cea8       ??_7captured_exception@tbb@@6B@ 000000018004cea8     task_group_context.obj
 0002:0000ced8       ??_C@_0BG@DMHJAPLO@__cilkrts_watch_stack@ 000000018004ced8     governor.obj
 0002:0000cef0       ??_C@_0O@NKJMJIO@cilkrts20?4dll@ 000000018004cef0     governor.obj
 0002:0000cf00       ??_C@_0CN@HLMBHJIE@TBB?5failed?5to?5initialize?5task?5s@ 000000018004cf00     governor.obj
 0002:0000cf30       ??_C@_0FB@GCHNHICK@rml?3?3tbb_factory?3?3make_server?5f@ 000000018004cf30     governor.obj
 0002:0000cf88       ??_C@_07NMPLPEPB@private@  000000018004cf88     governor.obj
 0002:0000cf90       ??_C@_03JLDBPJFA@RML@      000000018004cf90     governor.obj
 0002:0000cf94       ??_C@_06HBFNPGIC@shared@   000000018004cf94     governor.obj
 0002:0000cf9b       ??_C@_00CNPNBAHC@@         000000018004cf9b     governor.obj
 0002:0000cf9c       ??_C@_04KKJPNPKG@CILK@     000000018004cf9c     governor.obj
 0002:0000cfa8       ??_C@_0BJ@HPBMEPDG@initialize_numa_topology@ 000000018004cfa8     governor.obj
 0002:0000cfc8       ??_C@_0BJ@HGCAFEHO@allocate_binding_handler@ 000000018004cfc8     governor.obj
 0002:0000cfe8       ??_C@_0BL@HMBIHJGD@deallocate_binding_handler@ 000000018004cfe8     governor.obj
 0002:0000d008       ??_C@_0N@OGLFNMEB@bind_to_node@ 000000018004d008     governor.obj
 0002:0000d018       ??_C@_0BB@POCEBDFD@restore_affinity@ 000000018004d018     governor.obj
 0002:0000d030       ??_C@_0M@MJCBPHDH@tbbbind?4dll@ 000000018004d030     governor.obj
 0002:0000d040       ??_C@_0CI@FEEFPDEA@task_scheduler_init?5already?5ini@ 000000018004d040     governor.obj
 0002:0000d068       ??_C@_0O@EHPHBEHA@?$CBmy_scheduler@ 000000018004d068     governor.obj
 0002:0000d078       ??_C@_0DI@DBFLLMKH@C?3?2source?2Fresponze?2modules?2one@ 000000018004d078     governor.obj
 0002:0000d0b0       ??_C@_0EI@FPEPDFNA@number_of_threads?5for?5task_sche@ 000000018004d0b0     governor.obj
 0002:0000d0f8       ??_C@_0DG@OFDAIHDJ@number_of_threads?$DN?$DNautomatic?5?$HM?$HM@ 000000018004d0f8     governor.obj
 0002:0000d130       ??_C@_0DD@OLKEFAFM@deferred?5initialization?5ignores@ 000000018004d130     governor.obj
 0002:0000d168       ??_C@_0BD@HLGLDMJK@?$CBthread_stack_size@ 000000018004d168     governor.obj
 0002:0000d180       ??_C@_0FH@JCMDLEKA@task_scheduler_init?3?3terminate?5@ 000000018004d180     governor.obj
 0002:0000d1d8       ??_C@_01LKDEMHDF@s@        000000018004d1d8     governor.obj
 0002:0000d1e0       ??_C@_0KO@MFJKMICN@The?5number?5of?5workers?5is?5curren@ 000000018004d1e0     market.obj
 0002:0000d290       ??_C@_0GG@IIAMABLO@Thread?5stack?5size?5has?5been?5alre@ 000000018004d290     market.obj
 0002:0000d300       ??_C@_0EE@LMBAAMHN@RML?5might?5limit?5the?5number?5of?5w@ 000000018004d300     market.obj
 0002:0000d348       ??_C@_1CE@NGMICMCB@?$AAT?$AAB?$AAB?$AA?5?$AAW?$AAo?$AAr?$AAk?$AAe?$AAr?$AA?5?$AAT?$AAh?$AAr?$AAe@ 000000018004d348     market.obj
 0002:0000d378       ??_7market@internal@tbb@@6B@ 000000018004d378     market.obj
 0002:0000d3c0       ??_7empty_task@tbb@@6B@    000000018004d3c0     arena.obj
 0002:0000d3e0       ??_7task_scheduler_observer@interface6@tbb@@6B@ 000000018004d3e0     arena.obj
 0002:0000d400       ??_7wait_task@internal@interface7@tbb@@6B@ 000000018004d400     arena.obj
 0002:0000d420       ??_7delegated_task@internal@interface7@tbb@@6B@ 000000018004d420     arena.obj
 0002:0000d440       ??_7numa_binding_observer@internal@tbb@@6B@ 000000018004d440     arena.obj
 0002:0000d460       ??_7?$function_task@Vspawn_functor@graph@interface10@flow@tbb@@@internal@tbb@@6B@ 000000018004d460     arena.obj
 0002:0000d480       ??_7task_scheduler_observer_v3@internal@tbb@@6B@ 000000018004d480     arena.obj
 0002:0000d498       ??_C@_0BC@KBDMBKEH@deque?$DMT?$DO?5too?5long@ 000000018004d498     arena.obj
 0002:0000d4b8       ??_7scheduler@internal@tbb@@6B@ 000000018004d4b8     scheduler.obj
 0002:0000d4e8       ??_7generic_scheduler@internal@tbb@@6B@ 000000018004d4e8     scheduler.obj
 0002:0000d528       ??_7?$custom_scheduler@UIntelSchedulerTraits@internal@tbb@@@internal@tbb@@6B@ 000000018004d528     scheduler.obj
 0002:0000d568       ??_7?$custom_scheduler@UDefaultSchedulerTraits@internal@tbb@@@internal@tbb@@6B@ 000000018004d568     scheduler.obj
 0002:0000d5a0       ??_C@_01CLKCMJKC@?5@       000000018004d5a0     tbb_main.obj
 0002:0000d5a8       ??_C@_0P@BHBHJFKO@broadcast_node@ 000000018004d5a8     tbb_main.obj
 0002:0000d5b8       ??_C@_0M@DAIBLODH@buffer_node@ 000000018004d5b8     tbb_main.obj
 0002:0000d5c8       ??_C@_0O@BDEFFMLJ@continue_node@ 000000018004d5c8     tbb_main.obj
 0002:0000d5d8       ??_C@_0O@MHDODNOI@function_node@ 000000018004d5d8     tbb_main.obj
 0002:0000d5e8       ??_C@_0BF@LOKNJJIN@join_node?5?$CIqueueing?$CJ@ 000000018004d5e8     tbb_main.obj
 0002:0000d600       ??_C@_0BG@CPAJABII@join_node?5?$CIreserving?$CJ@ 000000018004d600     tbb_main.obj
 0002:0000d618       ??_C@_0BJ@JBKOLPMM@join_node?5?$CItag_matching?$CJ@ 000000018004d618     tbb_main.obj
 0002:0000d638       ??_C@_0N@MGPDONIF@limiter_node@ 000000018004d638     tbb_main.obj
 0002:0000d648       ??_C@_0BD@GEFOOAKB@multifunction_node@ 000000018004d648     tbb_main.obj
 0002:0000d660       ??_C@_07HCKDLMG@or_node@   000000018004d660     tbb_main.obj
 0002:0000d668       ??_C@_0P@DMKAEFPE@overwrite_node@ 000000018004d668     tbb_main.obj
 0002:0000d678       ??_C@_0BE@JODHPEKF@priority_queue_node@ 000000018004d678     tbb_main.obj
 0002:0000d690       ??_C@_0L@HPLFNNOE@queue_node@ 000000018004d690     tbb_main.obj
 0002:0000d6a0       ??_C@_0P@GLIMEKCM@sequencer_node@ 000000018004d6a0     tbb_main.obj
 0002:0000d6b0       ??_C@_0M@LCMGABLK@source_node@ 000000018004d6b0     tbb_main.obj
 0002:0000d6c0       ??_C@_0L@IHOOKKCE@split_node@ 000000018004d6c0     tbb_main.obj
 0002:0000d6d0       ??_C@_0BA@EABMGJOO@write_once_node@ 000000018004d6d0     tbb_main.obj
 0002:0000d6e0       ??_C@_04IEJGKNJ@body@      000000018004d6e0     tbb_main.obj
 0002:0000d6e8       ??_C@_05KCJBMLII@graph@    000000018004d6e8     tbb_main.obj
 0002:0000d6f0       ??_C@_04CLMONKIF@node@     000000018004d6f0     tbb_main.obj
 0002:0000d6f8       ??_C@_0L@HJCMHAA@input_port@ 000000018004d6f8     tbb_main.obj
 0002:0000d708       ??_C@_0N@LNKGAPPP@input_port_0@ 000000018004d708     tbb_main.obj
 0002:0000d718       ??_C@_0N@KELNDOLO@input_port_1@ 000000018004d718     tbb_main.obj
 0002:0000d728       ??_C@_0N@IPJAGNHN@input_port_2@ 000000018004d728     tbb_main.obj
 0002:0000d738       ??_C@_0N@JGILFMDM@input_port_3@ 000000018004d738     tbb_main.obj
 0002:0000d748       ??_C@_0N@NJMKMKPL@input_port_4@ 000000018004d748     tbb_main.obj
 0002:0000d758       ??_C@_0N@MANBPLLK@input_port_5@ 000000018004d758     tbb_main.obj
 0002:0000d768       ??_C@_0N@OLPMKIHJ@input_port_6@ 000000018004d768     tbb_main.obj
 0002:0000d778       ??_C@_0N@PCOHJJDI@input_port_7@ 000000018004d778     tbb_main.obj
 0002:0000d788       ??_C@_0N@HFHPIFPH@input_port_8@ 000000018004d788     tbb_main.obj
 0002:0000d798       ??_C@_0N@GMGELELG@input_port_9@ 000000018004d798     tbb_main.obj
 0002:0000d7a8       ??_C@_0M@NJGGAENH@output_port@ 000000018004d7a8     tbb_main.obj
 0002:0000d7b8       ??_C@_0O@HBLCBBNJ@output_port_0@ 000000018004d7b8     tbb_main.obj
 0002:0000d7c8       ??_C@_0O@GIKJCAJI@output_port_1@ 000000018004d7c8     tbb_main.obj
 0002:0000d7d8       ??_C@_0O@EDIEHDFL@output_port_2@ 000000018004d7d8     tbb_main.obj
 0002:0000d7e8       ??_C@_0O@FKJPECBK@output_port_3@ 000000018004d7e8     tbb_main.obj
 0002:0000d7f8       ??_C@_0O@BFNONENN@output_port_4@ 000000018004d7f8     tbb_main.obj
 0002:0000d808       ??_C@_0O@MMFOFJM@output_port_5@ 000000018004d808     tbb_main.obj
 0002:0000d818       ??_C@_0O@CHOILGFP@output_port_6@ 000000018004d818     tbb_main.obj
 0002:0000d828       ??_C@_0O@DOPDIHBO@output_port_7@ 000000018004d828     tbb_main.obj
 0002:0000d838       ??_C@_0O@LJGLJLNB@output_port_8@ 000000018004d838     tbb_main.obj
 0002:0000d848       ??_C@_0O@KAHAKKJA@output_port_9@ 000000018004d848     tbb_main.obj
 0002:0000d858       ??_C@_0M@EAODMCNL@object_name@ 000000018004d858     tbb_main.obj
 0002:0000d864       ??_C@_04MLLLIHIP@null@     000000018004d864     tbb_main.obj
 0002:0000d870       ??_C@_0N@CIABJKAG@indexer_node@ 000000018004d870     tbb_main.obj
 0002:0000d880       ??_C@_0P@PMHOCMHO@composite_node@ 000000018004d880     tbb_main.obj
 0002:0000d890       ??_C@_0L@NEKIMAEK@async_node@ 000000018004d890     tbb_main.obj
 0002:0000d8a0       ??_C@_0M@HOBIOEJE@opencl_node@ 000000018004d8a0     tbb_main.obj
 0002:0000d8b0       ??_C@_0O@BPKHIHBJ@tbb_algorithm@ 000000018004d8b0     tbb_main.obj
 0002:0000d8c0       ??_C@_0BB@PECFBABH@tbb_parallel_for@ 000000018004d8c0     tbb_main.obj
 0002:0000d8d8       ??_C@_0BA@EMCKICGI@tbb_parallel_do@ 000000018004d8d8     tbb_main.obj
 0002:0000d8e8       ??_C@_0BE@OPHGCKON@tbb_parallel_invoke@ 000000018004d8e8     tbb_main.obj
 0002:0000d900       ??_C@_0BE@MLPPDALL@tbb_parallel_reduce@ 000000018004d900     tbb_main.obj
 0002:0000d918       ??_C@_0BC@IEOPFMJN@tbb_parallel_scan@ 000000018004d918     tbb_main.obj
 0002:0000d930       ??_C@_0BC@GAHEAENH@tbb_parallel_sort@ 000000018004d930     tbb_main.obj
 0002:0000d948       ??_C@_0L@NJEEANEO@tbb_custom@ 000000018004d948     tbb_main.obj
 0002:0000d958       ??_C@_0P@IGDLMAMI@tbb_flow_graph@ 000000018004d958     tbb_main.obj
 0002:0000d968       ??_C@_0BG@GOCBLEJB@tbb_parallel_for_task@ 000000018004d968     tbb_main.obj
 0002:0000d980       ??_C@_0P@BAEEGJC@fgt_user_event@ 000000018004d980     tbb_main.obj
 0002:0000d990       ??_C@_0BF@KMKBBPLN@num_resource_strings@ 000000018004d990     tbb_main.obj
 0002:0000d9a8       ??_C@_17GGNECOCF@?$AAt?$AAb?$AAb@ 000000018004d9a8     tbb_main.obj
 0002:0000d9b0       ??_C@_1BC@CMIBHMBD@?$AAt?$AAb?$AAb?$AA?4?$AAf?$AAl?$AAo?$AAw@ 000000018004d9b0     tbb_main.obj
 0002:0000d9c8       ??_C@_1BM@GKEMMKFC@?$AAt?$AAb?$AAb?$AA?4?$AAa?$AAl?$AAg?$AAo?$AAr?$AAi?$AAt?$AAh?$AAm@ 000000018004d9c8     tbb_main.obj
 0002:0000d9e8       ??_C@_0M@EKHIKCEO@TBB_VERSION@ 000000018004d9e8     tbb_main.obj
 0002:0000d9f8       ??_C@_07MHHIKOPA@enabled@  000000018004d9f8     tbb_main.obj
 0002:0000da00       ??_C@_08BEHKFNNO@disabled@ 000000018004da00     tbb_main.obj
 0002:0000da10       ??_C@_0O@LHPLOFAD@Tools?5support@ 000000018004da10     tbb_main.obj
 0002:0000da20       ??_C@_0CJ@HDMCLBIG@my_param?5?$DM?5global_control?3?3para@ 000000018004da20     tbb_main.obj
 0002:0000da50       ??_C@_0DI@HKFKLKDD@C?3?2source?2Fresponze?2modules?2one@ 000000018004da50     tbb_main.obj
 0002:0000da88       ??_C@_0CG@PDFKBMHP@param?5?$DM?5global_control?3?3paramet@ 000000018004da88     tbb_main.obj
 0002:0000dab8       ??_7stack_size_control@internal@tbb@@6B@ 000000018004dab8     tbb_main.obj
 0002:0000dae0       ??_7allowed_parallelism_control@internal@tbb@@6B@ 000000018004dae0     tbb_main.obj
 0002:0000db00       ??_C@_0EN@BNMJDMF@argument?5to?5concurrent_vector?3?3@ 000000018004db00     concurrent_vector_v2.obj
 0002:0000db58       ??_7concurrent_queue_base@internal@tbb@@6B@ 000000018004db58     concurrent_queue_v2.obj
 0002:0000db70       __real@3ff0000000000000    000000018004db70     condition_variable.obj
 0002:0000db78       __real@408f400000000000    000000018004db78     condition_variable.obj
 0002:0000db80       __real@41efffffffe00000    000000018004db80     tbb_thread.obj
 0002:0000db90       __xmm@00000000000000010000000000000001 000000018004db90     scheduler.obj
 0002:0000dba0       __xmm@00000000cdcdcdcd00000000cdcdcdcd 000000018004dba0     concurrent_queue.obj
 0002:0000dbb0       __xmm@ffffffffffffffffffffffffffffffff 000000018004dbb0     scheduler.obj
 0002:0000dc30       _load_config_used          000000018004dc30     LIBCMT:loadcfg.obj
 0002:0000dd60       _tls_used                  000000018004dd60     LIBCMT:tlssup.obj
 0002:0000dd90       ??_R4bad_exception@std@@6B@ 000000018004dd90     libcpmt:excptptr.obj
 0002:0000ddb8       ??_R3bad_exception@std@@8  000000018004ddb8     libcpmt:excptptr.obj
 0002:0000ddd0       ??_R2bad_exception@std@@8  000000018004ddd0     libcpmt:excptptr.obj
 0002:0000dde8       ??_R1A@?0A@EA@bad_exception@std@@8 000000018004dde8     libcpmt:excptptr.obj
 0002:0000de10       ??_R3_Ref_count_base@std@@8 000000018004de10     libcpmt:excptptr.obj
 0002:0000de28       ??_R2_Ref_count_base@std@@8 000000018004de28     libcpmt:excptptr.obj
 0002:0000de38       ??_R1A@?0A@EA@_Ref_count_base@std@@8 000000018004de38     libcpmt:excptptr.obj
 0002:0000dfe0       ??_R4bad_array_new_length@std@@6B@ 000000018004dfe0     libcpmt:xonce.obj
 0002:0000e008       ??_R3bad_array_new_length@std@@8 000000018004e008     libcpmt:xonce.obj
 0002:0000e020       ??_R2bad_array_new_length@std@@8 000000018004e020     libcpmt:xonce.obj
 0002:0000e040       ??_R1A@?0A@EA@bad_array_new_length@std@@8 000000018004e040     libcpmt:xonce.obj
 0002:0000e068       ??_R4type_info@@6B@        000000018004e068     LIBCMT:std_type_info_static.obj
 0002:0000e090       ??_R3type_info@@8          000000018004e090     LIBCMT:std_type_info_static.obj
 0002:0000e0a8       ??_R2type_info@@8          000000018004e0a8     LIBCMT:std_type_info_static.obj
 0002:0000e0b8       ??_R1A@?0A@EA@type_info@@8 000000018004e0b8     LIBCMT:std_type_info_static.obj
 0002:0000e0e0       ??_R4bad_cast@std@@6B@     000000018004e0e0     libvcruntime:rtti.obj
 0002:0000e108       ??_R3bad_cast@std@@8       000000018004e108     libvcruntime:rtti.obj
 0002:0000e120       ??_R2bad_cast@std@@8       000000018004e120     libvcruntime:rtti.obj
 0002:0000e138       ??_R1A@?0A@EA@bad_cast@std@@8 000000018004e138     libvcruntime:rtti.obj
 0002:0000e160       ??_R4bad_typeid@std@@6B@   000000018004e160     libvcruntime:rtti.obj
 0002:0000e188       ??_R3bad_typeid@std@@8     000000018004e188     libvcruntime:rtti.obj
 0002:0000e1a0       ??_R2bad_typeid@std@@8     000000018004e1a0     libvcruntime:rtti.obj
 0002:0000e1b8       ??_R1A@?0A@EA@bad_typeid@std@@8 000000018004e1b8     libvcruntime:rtti.obj
 0002:0000e1e0       ??_R4__non_rtti_object@std@@6B@ 000000018004e1e0     libvcruntime:rtti.obj
 0002:0000e208       ??_R3__non_rtti_object@std@@8 000000018004e208     libvcruntime:rtti.obj
 0002:0000e220       ??_R2__non_rtti_object@std@@8 000000018004e220     libvcruntime:rtti.obj
 0002:0000e240       ??_R1A@?0A@EA@__non_rtti_object@std@@8 000000018004e240     libvcruntime:rtti.obj
 0002:0000e268       ??_R3DNameNode@@8          000000018004e268     libvcruntime:undname.obj
 0002:0000e280       ??_R2DNameNode@@8          000000018004e280     libvcruntime:undname.obj
 0002:0000e290       ??_R1A@?0A@EA@DNameNode@@8 000000018004e290     libvcruntime:undname.obj
 0002:0000e2b8       ??_R4charNode@@6B@         000000018004e2b8     libvcruntime:undname.obj
 0002:0000e2e0       ??_R3charNode@@8           000000018004e2e0     libvcruntime:undname.obj
 0002:0000e2f8       ??_R2charNode@@8           000000018004e2f8     libvcruntime:undname.obj
 0002:0000e310       ??_R1A@?0A@EA@charNode@@8  000000018004e310     libvcruntime:undname.obj
 0002:0000e338       ??_R4pcharNode@@6B@        000000018004e338     libvcruntime:undname.obj
 0002:0000e360       ??_R3pcharNode@@8          000000018004e360     libvcruntime:undname.obj
 0002:0000e378       ??_R2pcharNode@@8          000000018004e378     libvcruntime:undname.obj
 0002:0000e390       ??_R1A@?0A@EA@pcharNode@@8 000000018004e390     libvcruntime:undname.obj
 0002:0000e3b8       ??_R4pDNameNode@@6B@       000000018004e3b8     libvcruntime:undname.obj
 0002:0000e3e0       ??_R3pDNameNode@@8         000000018004e3e0     libvcruntime:undname.obj
 0002:0000e3f8       ??_R2pDNameNode@@8         000000018004e3f8     libvcruntime:undname.obj
 0002:0000e410       ??_R1A@?0A@EA@pDNameNode@@8 000000018004e410     libvcruntime:undname.obj
 0002:0000e438       ??_R4DNameStatusNode@@6B@  000000018004e438     libvcruntime:undname.obj
 0002:0000e460       ??_R3DNameStatusNode@@8    000000018004e460     libvcruntime:undname.obj
 0002:0000e478       ??_R2DNameStatusNode@@8    000000018004e478     libvcruntime:undname.obj
 0002:0000e490       ??_R1A@?0A@EA@DNameStatusNode@@8 000000018004e490     libvcruntime:undname.obj
 0002:0000e4b8       ??_R4pairNode@@6B@         000000018004e4b8     libvcruntime:undname.obj
 0002:0000e4e0       ??_R3pairNode@@8           000000018004e4e0     libvcruntime:undname.obj
 0002:0000e4f8       ??_R2pairNode@@8           000000018004e4f8     libvcruntime:undname.obj
 0002:0000e510       ??_R1A@?0A@EA@pairNode@@8  000000018004e510     libvcruntime:undname.obj
 0002:0000e538       ??_R17?0A@EN@no_copy@internal@tbb@@8 000000018004e538     concurrent_queue.obj
 0002:0000e560       ??_R2no_copy@internal@tbb@@8 000000018004e560     concurrent_queue.obj
 0002:0000e578       ??_R1A@?0A@EA@no_copy@internal@tbb@@8 000000018004e578     concurrent_queue.obj
 0002:0000e5a0       ??_R1A@?0A@EN@no_assign@internal@tbb@@8 000000018004e5a0     concurrent_queue.obj
 0002:0000e5c8       ??_R1A@?0A@EA@no_assign@internal@tbb@@8 000000018004e5c8     concurrent_queue.obj
 0002:0000e5f0       ??_R17?0A@EN@no_assign@internal@tbb@@8 000000018004e5f0     concurrent_queue.obj
 0002:0000e618       ??_R2concurrent_queue_base_v3@internal@tbb@@8 000000018004e618     concurrent_queue.obj
 0002:0000e638       ??_R3concurrent_queue_base_v3@internal@tbb@@8 000000018004e638     concurrent_queue.obj
 0002:0000e650       ??_R3no_copy@internal@tbb@@8 000000018004e650     concurrent_queue.obj
 0002:0000e668       ??_R1A@?0A@EA@concurrent_queue_base_v3@internal@tbb@@8 000000018004e668     concurrent_queue.obj
 0002:0000e690       ??_R2no_assign@internal@tbb@@8 000000018004e690     concurrent_queue.obj
 0002:0000e6a0       ??_R3no_assign@internal@tbb@@8 000000018004e6a0     concurrent_queue.obj
 0002:0000e6b8       ??_R4concurrent_queue_base_v3@internal@tbb@@6B@ 000000018004e6b8     concurrent_queue.obj
 0002:0000e6e0       ??_R1A@?0A@EN@no_copy@internal@tbb@@8 000000018004e6e0     pipeline.obj
 0002:0000e708       ??_R4pipeline@tbb@@6B@     000000018004e708     pipeline.obj
 0002:0000e730       ??_R4stage_task@internal@tbb@@6B@ 000000018004e730     pipeline.obj
 0002:0000e758       ??_R1A@?0A@EA@stage_task@internal@tbb@@8 000000018004e758     pipeline.obj
 0002:0000e780       ??_R2task_info@internal@tbb@@8 000000018004e780     pipeline.obj
 0002:0000e790       ??_R4pipeline_root_task@internal@tbb@@6B@ 000000018004e790     pipeline.obj
 0002:0000e7b8       ??_R2filter@tbb@@8         000000018004e7b8     pipeline.obj
 0002:0000e7d8       ??_R2task_base@internal@interface5@tbb@@8 000000018004e7d8     pipeline.obj
 0002:0000e7f8       ??_R3stage_task@internal@tbb@@8 000000018004e7f8     pipeline.obj
 0002:0000e810       ??_R2pipeline@tbb@@8       000000018004e810     pipeline.obj
 0002:0000e820       ??_R17?0A@EA@task_info@internal@tbb@@8 000000018004e820     pipeline.obj
 0002:0000e848       ??_R1A@?0A@EA@filter@tbb@@8 000000018004e848     pipeline.obj
 0002:0000e870       ??_R2pipeline_root_task@internal@tbb@@8 000000018004e870     pipeline.obj
 0002:0000e8a0       ??_R3filter@tbb@@8         000000018004e8a0     pipeline.obj
 0002:0000e8b8       ??_R1A@?0A@EA@task_base@internal@interface5@tbb@@8 000000018004e8b8     pipeline.obj
 0002:0000e8e0       ??_R3task_info@internal@tbb@@8 000000018004e8e0     pipeline.obj
 0002:0000e8f8       ??_R3pipeline@tbb@@8       000000018004e8f8     pipeline.obj
 0002:0000e910       ??_R17?0A@EA@task_base@internal@interface5@tbb@@8 000000018004e910     pipeline.obj
 0002:0000e938       ??_R2task@tbb@@8           000000018004e938     pipeline.obj
 0002:0000e960       ??_R3pipeline_root_task@internal@tbb@@8 000000018004e960     pipeline.obj
 0002:0000e978       ??_R1A@?0A@EA@pipeline_root_task@internal@tbb@@8 000000018004e978     pipeline.obj
 0002:0000e9a0       ??_R1A@?0A@EA@pipeline@tbb@@8 000000018004e9a0     pipeline.obj
 0002:0000e9c8       ??_R1A@?0A@EA@task@tbb@@8  000000018004e9c8     pipeline.obj
 0002:0000e9f0       ??_R4filter@tbb@@6B@       000000018004e9f0     pipeline.obj
 0002:0000ea18       ??_R4task@tbb@@6B@         000000018004ea18     pipeline.obj
 0002:0000ea40       ??_R3task@tbb@@8           000000018004ea40     pipeline.obj
 0002:0000ea58       ??_R1A@?0A@EA@task_info@internal@tbb@@8 000000018004ea58     pipeline.obj
 0002:0000ea80       ??_R2stage_task@internal@tbb@@8 000000018004ea80     pipeline.obj
 0002:0000eab8       ??_R3task_base@internal@interface5@tbb@@8 000000018004eab8     pipeline.obj
 0002:0000ead0       ??_R3tbb_server@rml@internal@tbb@@8 000000018004ead0     private_server.obj
 0002:0000eae8       ??_R3private_server@rml@internal@tbb@@8 000000018004eae8     private_server.obj
 0002:0000eb00       ??_R2private_server@rml@internal@tbb@@8 000000018004eb00     private_server.obj
 0002:0000eb38       ??_R2tbb_server@rml@internal@tbb@@8 000000018004eb38     private_server.obj
 0002:0000eb58       ??_R1A@?0A@EA@versioned_object@rml@@8 000000018004eb58     private_server.obj
 0002:0000eb80       ??_R3versioned_object@rml@@8 000000018004eb80     private_server.obj
 0002:0000eb98       ??_R2versioned_object@rml@@8 000000018004eb98     private_server.obj
 0002:0000eba8       ??_R1A@?0A@EA@tbb_server@rml@internal@tbb@@8 000000018004eba8     private_server.obj
 0002:0000ebd0       ??_R1A@?0A@EA@server@rml@@8 000000018004ebd0     private_server.obj
 0002:0000ebf8       ??_R2server@rml@@8         000000018004ebf8     private_server.obj
 0002:0000ec10       ??_R3server@rml@@8         000000018004ec10     private_server.obj
 0002:0000ec28       ??_R1A@?0A@EA@private_server@rml@internal@tbb@@8 000000018004ec28     private_server.obj
 0002:0000ec50       ??_R4private_server@rml@internal@tbb@@6B@ 000000018004ec50     private_server.obj
 0002:0000ec78       ??_R1A@?0A@EA@logic_error@std@@8 000000018004ec78     tbb_misc.obj
 0002:0000eca0       ??_R4exception@std@@6B@    000000018004eca0     tbb_misc.obj
 0002:0000ecc8       ??_R2length_error@std@@8   000000018004ecc8     tbb_misc.obj
 0002:0000ece8       ??_R4runtime_error@std@@6B@ 000000018004ece8     tbb_misc.obj
 0002:0000ed10       ??_R1A@?0A@EA@invalid_multiple_scheduling@tbb@@8 000000018004ed10     tbb_misc.obj
 0002:0000ed38       ??_R4improper_lock@tbb@@6B@ 000000018004ed38     tbb_misc.obj
 0002:0000ed60       ??_R2invalid_multiple_scheduling@tbb@@8 000000018004ed60     tbb_misc.obj
 0002:0000ed78       ??_R2bad_alloc@std@@8      000000018004ed78     tbb_misc.obj
 0002:0000ed90       ??_R2improper_lock@tbb@@8  000000018004ed90     tbb_misc.obj
 0002:0000eda8       ??_R1A@?0A@EA@bad_last_alloc@tbb@@8 000000018004eda8     tbb_misc.obj
 0002:0000edd0       ??_R3invalid_argument@std@@8 000000018004edd0     tbb_misc.obj
 0002:0000ede8       ??_R1A@?0A@EA@runtime_error@std@@8 000000018004ede8     tbb_misc.obj
 0002:0000ee10       ??_R1A@?0A@EA@missing_wait@tbb@@8 000000018004ee10     tbb_misc.obj
 0002:0000ee38       ??_R2invalid_argument@std@@8 000000018004ee38     tbb_misc.obj
 0002:0000ee58       ??_R1A@?0A@EA@exception@std@@8 000000018004ee58     tbb_misc.obj
 0002:0000ee80       ??_R1A@?0A@EA@bad_alloc@std@@8 000000018004ee80     tbb_misc.obj
 0002:0000eea8       ??_R2bad_last_alloc@tbb@@8 000000018004eea8     tbb_misc.obj
 0002:0000eec8       ??_R2logic_error@std@@8    000000018004eec8     tbb_misc.obj
 0002:0000eee0       ??_R4length_error@std@@6B@ 000000018004eee0     tbb_misc.obj
 0002:0000ef08       ??_R2range_error@std@@8    000000018004ef08     tbb_misc.obj
 0002:0000ef28       ??_R2exception@std@@8      000000018004ef28     tbb_misc.obj
 0002:0000ef38       ??_R4invalid_argument@std@@6B@ 000000018004ef38     tbb_misc.obj
 0002:0000ef60       ??_R3invalid_multiple_scheduling@tbb@@8 000000018004ef60     tbb_misc.obj
 0002:0000ef78       ??_R1A@?0A@EA@invalid_argument@std@@8 000000018004ef78     tbb_misc.obj
 0002:0000efa0       ??_R4bad_last_alloc@tbb@@6B@ 000000018004efa0     tbb_misc.obj
 0002:0000efc8       ??_R1A@?0A@EA@out_of_range@std@@8 000000018004efc8     tbb_misc.obj
 0002:0000eff0       ??_R3length_error@std@@8   000000018004eff0     tbb_misc.obj
 0002:0000f008       ??_R4out_of_range@std@@6B@ 000000018004f008     tbb_misc.obj
 0002:0000f030       ??_R3bad_last_alloc@tbb@@8 000000018004f030     tbb_misc.obj
 0002:0000f048       ??_R3logic_error@std@@8    000000018004f048     tbb_misc.obj
 0002:0000f060       ??_R1A@?0A@EA@range_error@std@@8 000000018004f060     tbb_misc.obj
 0002:0000f088       ??_R3exception@std@@8      000000018004f088     tbb_misc.obj
 0002:0000f0a0       ??_R3user_abort@tbb@@8     000000018004f0a0     tbb_misc.obj
 0002:0000f0b8       ??_R4logic_error@std@@6B@  000000018004f0b8     tbb_misc.obj
 0002:0000f0e0       ??_R3missing_wait@tbb@@8   000000018004f0e0     tbb_misc.obj
 0002:0000f0f8       ??_R2user_abort@tbb@@8     000000018004f0f8     tbb_misc.obj
 0002:0000f110       ??_R2out_of_range@std@@8   000000018004f110     tbb_misc.obj
 0002:0000f130       ??_R1A@?0A@EA@improper_lock@tbb@@8 000000018004f130     tbb_misc.obj
 0002:0000f158       ??_R4bad_alloc@std@@6B@    000000018004f158     tbb_misc.obj
 0002:0000f180       ??_R3out_of_range@std@@8   000000018004f180     tbb_misc.obj
 0002:0000f198       ??_R4invalid_multiple_scheduling@tbb@@6B@ 000000018004f198     tbb_misc.obj
 0002:0000f1c0       ??_R4user_abort@tbb@@6B@   000000018004f1c0     tbb_misc.obj
 0002:0000f1e8       ??_R1A@?0A@EA@user_abort@tbb@@8 000000018004f1e8     tbb_misc.obj
 0002:0000f210       ??_R3bad_alloc@std@@8      000000018004f210     tbb_misc.obj
 0002:0000f228       ??_R4missing_wait@tbb@@6B@ 000000018004f228     tbb_misc.obj
 0002:0000f250       ??_R2runtime_error@std@@8  000000018004f250     tbb_misc.obj
 0002:0000f268       ??_R2missing_wait@tbb@@8   000000018004f268     tbb_misc.obj
 0002:0000f280       ??_R3range_error@std@@8    000000018004f280     tbb_misc.obj
 0002:0000f298       ??_R1A@?0A@EA@length_error@std@@8 000000018004f298     tbb_misc.obj
 0002:0000f2c0       ??_R4range_error@std@@6B@  000000018004f2c0     tbb_misc.obj
 0002:0000f2e8       ??_R3runtime_error@std@@8  000000018004f2e8     tbb_misc.obj
 0002:0000f300       ??_R3improper_lock@tbb@@8  000000018004f300     tbb_misc.obj
 0002:0000f318       ??_R1A@?0A@EA@tbb_exception@tbb@@8 000000018004f318     task_group_context.obj
 0002:0000f340       ??_R2tbb_exception@tbb@@8  000000018004f340     task_group_context.obj
 0002:0000f358       ??_R4tbb_exception@tbb@@6B@ 000000018004f358     task_group_context.obj
 0002:0000f380       ??_R2captured_exception@tbb@@8 000000018004f380     task_group_context.obj
 0002:0000f3a0       ??_R4captured_exception@tbb@@6B@ 000000018004f3a0     task_group_context.obj
 0002:0000f3c8       ??_R1A@?0A@EA@captured_exception@tbb@@8 000000018004f3c8     task_group_context.obj
 0002:0000f3f0       ??_R3captured_exception@tbb@@8 000000018004f3f0     task_group_context.obj
 0002:0000f408       ??_R3tbb_exception@tbb@@8  000000018004f408     task_group_context.obj
 0002:0000f420       ??_R1A@?0A@EJ@versioned_object@rml@@8 000000018004f420     market.obj
 0002:0000f448       ??_R2client@rml@@8         000000018004f448     market.obj
 0002:0000f460       ??_R1A@?0A@EJ@client@rml@@8 000000018004f460     market.obj
 0002:0000f488       ??_R4market@internal@tbb@@6B@ 000000018004f488     market.obj
 0002:0000f4b0       ??_R3client@rml@@8         000000018004f4b0     market.obj
 0002:0000f4c8       ??_R1A@?0A@EA@tbb_client@rml@internal@tbb@@8 000000018004f4c8     market.obj
 0002:0000f4f0       ??_R1A@?0A@EA@client@rml@@8 000000018004f4f0     market.obj
 0002:0000f518       ??_R1A@?0A@EA@market@internal@tbb@@8 000000018004f518     market.obj
 0002:0000f540       ??_R3market@internal@tbb@@8 000000018004f540     market.obj
 0002:0000f558       ??_R3tbb_client@rml@internal@tbb@@8 000000018004f558     market.obj
 0002:0000f570       ??_R2tbb_client@rml@internal@tbb@@8 000000018004f570     market.obj
 0002:0000f590       ??_R2market@internal@tbb@@8 000000018004f590     market.obj
 0002:0000f5c8       ??_R1A@?0A@EN@tbb_client@rml@internal@tbb@@8 000000018004f5c8     market.obj
 0002:0000f5f0       ??_R2delegated_task@internal@interface7@tbb@@8 000000018004f5f0     arena.obj
 0002:0000f620       ??_R3?$function_task@Vspawn_functor@graph@interface10@flow@tbb@@@internal@tbb@@8 000000018004f620     arena.obj
 0002:0000f638       ??_R2empty_task@tbb@@8     000000018004f638     arena.obj
 0002:0000f668       ??_R3task_scheduler_observer_v3@internal@tbb@@8 000000018004f668     arena.obj
 0002:0000f680       ??_R2wait_task@internal@interface7@tbb@@8 000000018004f680     arena.obj
 0002:0000f6b0       ??_R4numa_binding_observer@internal@tbb@@6B@ 000000018004f6b0     arena.obj
 0002:0000f6d8       ??_R3delegated_task@internal@interface7@tbb@@8 000000018004f6d8     arena.obj
 0002:0000f6f0       ??_R4empty_task@tbb@@6B@   000000018004f6f0     arena.obj
 0002:0000f718       ??_R1A@?0A@EA@?$function_task@Vspawn_functor@graph@interface10@flow@tbb@@@internal@tbb@@8 000000018004f718     arena.obj
 0002:0000f740       ??_R4task_scheduler_observer_v3@internal@tbb@@6B@ 000000018004f740     arena.obj
 0002:0000f768       ??_R3task_scheduler_observer@interface6@tbb@@8 000000018004f768     arena.obj
 0002:0000f780       ??_R4delegated_task@internal@interface7@tbb@@6B@ 000000018004f780     arena.obj
 0002:0000f7a8       ??_R1A@?0A@EA@numa_binding_observer@internal@tbb@@8 000000018004f7a8     arena.obj
 0002:0000f7d0       ??_R1A@?0A@EA@task_scheduler_observer@interface6@tbb@@8 000000018004f7d0     arena.obj
 0002:0000f7f8       ??_R2task_scheduler_observer_v3@internal@tbb@@8 000000018004f7f8     arena.obj
 0002:0000f808       ??_R4?$function_task@Vspawn_functor@graph@interface10@flow@tbb@@@internal@tbb@@6B@ 000000018004f808     arena.obj
 0002:0000f830       ??_R2?$function_task@Vspawn_functor@graph@interface10@flow@tbb@@@internal@tbb@@8 000000018004f830     arena.obj
 0002:0000f860       ??_R2task_scheduler_observer@interface6@tbb@@8 000000018004f860     arena.obj
 0002:0000f878       ??_R1A@?0A@EA@empty_task@tbb@@8 000000018004f878     arena.obj
 0002:0000f8a0       ??_R3empty_task@tbb@@8     000000018004f8a0     arena.obj
 0002:0000f8b8       ??_R4wait_task@internal@interface7@tbb@@6B@ 000000018004f8b8     arena.obj
 0002:0000f8e0       ??_R1A@?0A@EA@task_scheduler_observer_v3@internal@tbb@@8 000000018004f8e0     arena.obj
 0002:0000f908       ??_R4task_scheduler_observer@interface6@tbb@@6B@ 000000018004f908     arena.obj
 0002:0000f930       ??_R2numa_binding_observer@internal@tbb@@8 000000018004f930     arena.obj
 0002:0000f950       ??_R1A@?0A@EA@wait_task@internal@interface7@tbb@@8 000000018004f950     arena.obj
 0002:0000f978       ??_R3wait_task@internal@interface7@tbb@@8 000000018004f978     arena.obj
 0002:0000f990       ??_R1A@?0A@EA@delegated_task@internal@interface7@tbb@@8 000000018004f990     arena.obj
 0002:0000f9b8       ??_R3numa_binding_observer@internal@tbb@@8 000000018004f9b8     arena.obj
 0002:0000f9d0       ??_R1A@?0A@EA@job@rml@@8   000000018004f9d0     scheduler.obj
 0002:0000f9f8       ??_R3scheduler_state@internal@tbb@@8 000000018004f9f8     scheduler.obj
 0002:0000fa10       ??_R3intrusive_list_node@internal@tbb@@8 000000018004fa10     scheduler.obj
 0002:0000fa28       ??_R4generic_scheduler@internal@tbb@@6B@ 000000018004fa28     scheduler.obj
 0002:0000fa50       ??_R2?$custom_scheduler@UDefaultSchedulerTraits@internal@tbb@@@internal@tbb@@8 000000018004fa50     scheduler.obj
 0002:0000fa98       ??_R1BA@?0A@EJ@intrusive_list_node@internal@tbb@@8 000000018004fa98     scheduler.obj
 0002:0000fac0       ??_R1CA@?0A@EJ@scheduler_state@internal@tbb@@8 000000018004fac0     scheduler.obj
 0002:0000fae8       ??_R4?$custom_scheduler@UDefaultSchedulerTraits@internal@tbb@@@internal@tbb@@6B@ 000000018004fae8     scheduler.obj
 0002:0000fb10       ??_R4scheduler@internal@tbb@@6B@ 000000018004fb10     scheduler.obj
 0002:0000fb38       ??_R1A@?0A@EA@?$custom_scheduler@UDefaultSchedulerTraits@internal@tbb@@@internal@tbb@@8 000000018004fb38     scheduler.obj
 0002:0000fb60       ??_R2?$custom_scheduler@UIntelSchedulerTraits@internal@tbb@@@internal@tbb@@8 000000018004fb60     scheduler.obj
 0002:0000fba8       ??_R2intrusive_list_node@internal@tbb@@8 000000018004fba8     scheduler.obj
 0002:0000fbb8       ??_R2generic_scheduler@internal@tbb@@8 000000018004fbb8     scheduler.obj
 0002:0000fbf8       ??_R3generic_scheduler@internal@tbb@@8 000000018004fbf8     scheduler.obj
 0002:0000fc10       ??_R1A@?0A@EN@generic_scheduler@internal@tbb@@8 000000018004fc10     scheduler.obj
 0002:0000fc38       ??_R3?$custom_scheduler@UDefaultSchedulerTraits@internal@tbb@@@internal@tbb@@8 000000018004fc38     scheduler.obj
 0002:0000fc50       ??_R3scheduler@internal@tbb@@8 000000018004fc50     scheduler.obj
 0002:0000fc68       ??_R2scheduler@internal@tbb@@8 000000018004fc68     scheduler.obj
 0002:0000fc88       ??_R1BA@?0A@EA@intrusive_list_node@internal@tbb@@8 000000018004fc88     scheduler.obj
 0002:0000fcb0       ??_R1A@?0A@EJ@scheduler@internal@tbb@@8 000000018004fcb0     scheduler.obj
 0002:0000fcd8       ??_R1A@?0A@EA@generic_scheduler@internal@tbb@@8 000000018004fcd8     scheduler.obj
 0002:0000fd00       ??_R2scheduler_state@internal@tbb@@8 000000018004fd00     scheduler.obj
 0002:0000fd10       ??_R1A@?0A@EA@?$custom_scheduler@UIntelSchedulerTraits@internal@tbb@@@internal@tbb@@8 000000018004fd10     scheduler.obj
 0002:0000fd38       ??_R2job@rml@@8            000000018004fd38     scheduler.obj
 0002:0000fd48       ??_R17?0A@EA@job@rml@@8    000000018004fd48     scheduler.obj
 0002:0000fd70       ??_R17?0A@EJ@job@rml@@8    000000018004fd70     scheduler.obj
 0002:0000fd98       ??_R1A@?0A@EA@intrusive_list_node@internal@tbb@@8 000000018004fd98     scheduler.obj
 0002:0000fdc0       ??_R3job@rml@@8            000000018004fdc0     scheduler.obj
 0002:0000fdd8       ??_R1A@?0A@EA@scheduler_state@internal@tbb@@8 000000018004fdd8     scheduler.obj
 0002:0000fe00       ??_R1CA@?0A@EA@scheduler_state@internal@tbb@@8 000000018004fe00     scheduler.obj
 0002:0000fe28       ??_R1A@?0A@EA@scheduler@internal@tbb@@8 000000018004fe28     scheduler.obj
 0002:0000fe50       ??_R3?$custom_scheduler@UIntelSchedulerTraits@internal@tbb@@@internal@tbb@@8 000000018004fe50     scheduler.obj
 0002:0000fe68       ??_R4?$custom_scheduler@UIntelSchedulerTraits@internal@tbb@@@internal@tbb@@6B@ 000000018004fe68     scheduler.obj
 0002:0000fe90       ??_R3control_storage@internal@tbb@@8 000000018004fe90     tbb_main.obj
 0002:0000fea8       ??_R2?$padded_base@Vcontrol_storage@internal@tbb@@$0IA@$0CA@@internal@tbb@@8 000000018004fea8     tbb_main.obj
 0002:0000fec0       ??_R3?$padded@Vcontrol_storage@internal@tbb@@$0IA@@internal@tbb@@8 000000018004fec0     tbb_main.obj
 0002:0000fed8       ??_R4allowed_parallelism_control@internal@tbb@@6B@ 000000018004fed8     tbb_main.obj
 0002:0000ff00       ??_R1A@?0A@EA@?$padded@Vcontrol_storage@internal@tbb@@$0IA@@internal@tbb@@8 000000018004ff00     tbb_main.obj
 0002:0000ff28       ??_R1A@?0A@EA@control_storage@internal@tbb@@8 000000018004ff28     tbb_main.obj
 0002:0000ff50       ??_R2control_storage@internal@tbb@@8 000000018004ff50     tbb_main.obj
 0002:0000ff60       ??_R2?$padded@Vcontrol_storage@internal@tbb@@$0IA@@internal@tbb@@8 000000018004ff60     tbb_main.obj
 0002:0000ff80       ??_R3?$padded_base@Vcontrol_storage@internal@tbb@@$0IA@$0CA@@internal@tbb@@8 000000018004ff80     tbb_main.obj
 0002:0000ff98       ??_R3stack_size_control@internal@tbb@@8 000000018004ff98     tbb_main.obj
 0002:0000ffb0       ??_R1A@?0A@EA@stack_size_control@internal@tbb@@8 000000018004ffb0     tbb_main.obj
 0002:0000ffd8       ??_R2stack_size_control@internal@tbb@@8 000000018004ffd8     tbb_main.obj
 0002:00010000       ??_R1A@?0A@EA@allowed_parallelism_control@internal@tbb@@8 0000000180050000     tbb_main.obj
 0002:00010028       ??_R1A@?0A@EA@?$padded_base@Vcontrol_storage@internal@tbb@@$0IA@$0CA@@internal@tbb@@8 0000000180050028     tbb_main.obj
 0002:00010050       ??_R3allowed_parallelism_control@internal@tbb@@8 0000000180050050     tbb_main.obj
 0002:00010068       ??_R2allowed_parallelism_control@internal@tbb@@8 0000000180050068     tbb_main.obj
 0002:00010090       ??_R4stack_size_control@internal@tbb@@6B@ 0000000180050090     tbb_main.obj
 0002:000100b8       ??_R4concurrent_queue_base@internal@tbb@@6B@ 00000001800500b8     concurrent_queue_v2.obj
 0002:000100e0       ??_R2concurrent_queue_base@internal@tbb@@8 00000001800500e0     concurrent_queue_v2.obj
 0002:00010100       ??_R1A@?0A@EA@concurrent_queue_base@internal@tbb@@8 0000000180050100     concurrent_queue_v2.obj
 0002:00010128       ??_R3concurrent_queue_base@internal@tbb@@8 0000000180050128     concurrent_queue_v2.obj
 0002:00010510       __rtc_iaa                  0000000180050510     LIBCMT:initsect.obj
 0002:00010518       __rtc_izz                  0000000180050518     LIBCMT:initsect.obj
 0002:00010520       __rtc_taa                  0000000180050520     LIBCMT:initsect.obj
 0002:00010528       __rtc_tzz                  0000000180050528     LIBCMT:initsect.obj
 0002:00010530       _tls_start                 0000000180050530     LIBCMT:tlssup.obj
 0002:00010534       _Init_thread_epoch         0000000180050534     LIBCMT:thread_safe_statics.obj
 0002:00010538       _tls_end                   0000000180050538     LIBCMT:tlssup.obj
 0002:000149e8       _TI2?AVbad_exception@std@@ 00000001800549e8     libcpmt:excptptr.obj
 0002:00014a08       _CTA2?AVbad_exception@std@@ 0000000180054a08     libcpmt:excptptr.obj
 0002:00014a20       _CT??_R0?AVbad_exception@std@@@8??0bad_exception@std@@QEAA@AEBV01@@Z24 0000000180054a20     libcpmt:excptptr.obj
 0002:00014a48       _TI3?AVbad_array_new_length@std@@ 0000000180054a48     libcpmt:xonce.obj
 0002:00014a68       _CTA3?AVbad_array_new_length@std@@ 0000000180054a68     libcpmt:xonce.obj
 0002:00014a88       _CT??_R0?AVbad_array_new_length@std@@@8??0bad_array_new_length@std@@QEAA@AEBV01@@Z24 0000000180054a88     libcpmt:xonce.obj
 0002:00014ab0       _TI3?AV__non_rtti_object@std@@ 0000000180054ab0     libvcruntime:rtti.obj
 0002:00014ad0       _CTA3?AV__non_rtti_object@std@@ 0000000180054ad0     libvcruntime:rtti.obj
 0002:00014af0       _CT??_R0?AV__non_rtti_object@std@@@8??0__non_rtti_object@std@@QEAA@AEBV01@@Z24 0000000180054af0     libvcruntime:rtti.obj
 0002:00014b18       _CT??_R0?AVbad_typeid@std@@@8??0bad_typeid@std@@QEAA@AEBV01@@Z24 0000000180054b18     libvcruntime:rtti.obj
 0002:00014b40       _TI2?AVbad_typeid@std@@    0000000180054b40     libvcruntime:rtti.obj
 0002:00014b60       _CTA2?AVbad_typeid@std@@   0000000180054b60     libvcruntime:rtti.obj
 0002:00014b78       _TI2?AVbad_cast@std@@      0000000180054b78     libvcruntime:rtti.obj
 0002:00014b98       _CTA2?AVbad_cast@std@@     0000000180054b98     libvcruntime:rtti.obj
 0002:00014bb0       _CT??_R0?AVbad_cast@std@@@8??0bad_cast@std@@QEAA@AEBV01@@Z24 0000000180054bb0     libvcruntime:rtti.obj
 0002:00014bd8       _CT??_R0?AVmissing_wait@tbb@@@8??0missing_wait@tbb@@QEAA@AEBV01@@Z24 0000000180054bd8     tbb_misc.obj
 0002:00014c00       _TI2?AVinvalid_multiple_scheduling@tbb@@ 0000000180054c00     tbb_misc.obj
 0002:00014c20       _CTA3?AVinvalid_argument@std@@ 0000000180054c20     tbb_misc.obj
 0002:00014c40       _TI2?AVruntime_error@std@@ 0000000180054c40     tbb_misc.obj
 0002:00014c60       _TI3?AVrange_error@std@@   0000000180054c60     tbb_misc.obj
 0002:00014c80       _CT??_R0?AVlogic_error@std@@@8??0logic_error@std@@QEAA@AEBV01@@Z24 0000000180054c80     tbb_misc.obj
 0002:00014ca8       _CT??_R0?AVinvalid_multiple_scheduling@tbb@@@8??0invalid_multiple_scheduling@tbb@@QEAA@AEBV01@@Z24 0000000180054ca8     tbb_misc.obj
 0002:00014cd0       _CT??_R0?AVbad_last_alloc@tbb@@@8??0bad_last_alloc@tbb@@QEAA@AEBV01@@Z24 0000000180054cd0     tbb_misc.obj
 0002:00014cf8       _TI3?AVout_of_range@std@@  0000000180054cf8     tbb_misc.obj
 0002:00014d18       _CT??_R0?AVimproper_lock@tbb@@@8??0improper_lock@tbb@@QEAA@AEBV01@@Z24 0000000180054d18     tbb_misc.obj
 0002:00014d40       _CTA2?AVruntime_error@std@@ 0000000180054d40     tbb_misc.obj
 0002:00014d58       _CTA3?AVbad_last_alloc@tbb@@ 0000000180054d58     tbb_misc.obj
 0002:00014d78       _CT??_R0?AVout_of_range@std@@@8??0out_of_range@std@@QEAA@AEBV01@@Z24 0000000180054d78     tbb_misc.obj
 0002:00014da0       _CT??_R0?AVinvalid_argument@std@@@8??0invalid_argument@std@@QEAA@AEBV01@@Z24 0000000180054da0     tbb_misc.obj
 0002:00014dc8       _TI3?AVinvalid_argument@std@@ 0000000180054dc8     tbb_misc.obj
 0002:00014de8       _CTA3?AVrange_error@std@@  0000000180054de8     tbb_misc.obj
 0002:00014e08       _CTA2?AVuser_abort@tbb@@   0000000180054e08     tbb_misc.obj
 0002:00014e20       _CTA2?AVmissing_wait@tbb@@ 0000000180054e20     tbb_misc.obj
 0002:00014e38       _CTA2?AVbad_alloc@std@@    0000000180054e38     tbb_misc.obj
 0002:00014e50       _CTA3?AVlength_error@std@@ 0000000180054e50     tbb_misc.obj
 0002:00014e70       _TI3?AVbad_last_alloc@tbb@@ 0000000180054e70     tbb_misc.obj
 0002:00014e90       _CT??_R0?AVuser_abort@tbb@@@8??0user_abort@tbb@@QEAA@AEBV01@@Z24 0000000180054e90     tbb_misc.obj
 0002:00014eb8       _CT??_R0?AVruntime_error@std@@@8??0runtime_error@std@@QEAA@AEBV01@@Z24 0000000180054eb8     tbb_misc.obj
 0002:00014ee0       _CT??_R0?AVlength_error@std@@@8??0length_error@std@@QEAA@AEBV01@@Z24 0000000180054ee0     tbb_misc.obj
 0002:00014f08       _TI2?AVimproper_lock@tbb@@ 0000000180054f08     tbb_misc.obj
 0002:00014f28       _CTA2?AVinvalid_multiple_scheduling@tbb@@ 0000000180054f28     tbb_misc.obj
 0002:00014f40       _CT??_R0?AVbad_alloc@std@@@8??0bad_alloc@std@@QEAA@AEBV01@@Z24 0000000180054f40     tbb_misc.obj
 0002:00014f68       _TI2?AVmissing_wait@tbb@@  0000000180054f68     tbb_misc.obj
 0002:00014f88       _CTA3?AVout_of_range@std@@ 0000000180054f88     tbb_misc.obj
 0002:00014fa8       _TI2?AVuser_abort@tbb@@    0000000180054fa8     tbb_misc.obj
 0002:00014fc8       _TI3?AVlength_error@std@@  0000000180054fc8     tbb_misc.obj
 0002:00014fe8       _CT??_R0?AVexception@std@@@8??0exception@std@@QEAA@AEBV01@@Z24 0000000180054fe8     tbb_misc.obj
 0002:00015010       _CT??_R0?AVrange_error@std@@@8??0range_error@std@@QEAA@AEBV01@@Z24 0000000180055010     tbb_misc.obj
 0002:00015038       _CTA2?AVimproper_lock@tbb@@ 0000000180055038     tbb_misc.obj
 0002:00015050       _TI2?AVbad_alloc@std@@     0000000180055050     tbb_misc.obj
 0002:00015070       _CT??_R0?AVtbb_exception@tbb@@@8??0tbb_exception@tbb@@QEAA@AEBV01@@Z24 0000000180055070     task_group_context.obj
 0002:00015098       _TI3?AVcaptured_exception@tbb@@ 0000000180055098     task_group_context.obj
 0002:000150b8       _CT??_R0?AVcaptured_exception@tbb@@@8??0captured_exception@tbb@@QEAA@AEBV01@@Z48 00000001800550b8     task_group_context.obj
 0002:000150e0       _CTA3?AVcaptured_exception@tbb@@ 00000001800550e0     task_group_context.obj
 0002:00019364       __IMPORT_DESCRIPTOR_KERNEL32 0000000180059364     kernel32:KERNEL32.dll
 0002:00019378       __NULL_IMPORT_DESCRIPTOR   0000000180059378     kernel32:KERNEL32.dll
 0003:00000000       _Init_global_epoch         000000018005a000     LIBCMT:thread_safe_statics.obj
 0003:00000004       __scrt_native_dllmain_reason 000000018005a004     LIBCMT:utility.obj
 0003:00000010       __security_cookie_complement 000000018005a010     LIBCMT:gs_cookie.obj
 0003:00000018       __security_cookie          000000018005a018     LIBCMT:gs_cookie.obj
 0003:00000020       __isa_available            000000018005a020     LIBCMT:cpu_disp.obj
 0003:00000024       __isa_enabled              000000018005a024     LIBCMT:cpu_disp.obj
 0003:00000028       __memcpy_nt_iters          000000018005a028     LIBCMT:cpu_disp.obj
 0003:00000030       __memset_nt_iters          000000018005a030     LIBCMT:cpu_disp.obj
 0003:00000070       _iob                       000000018005a070     libucrt:_file.obj
 0003:00000178       __abort_behavior           000000018005a178     libucrt:abort.obj
 0003:00000190       __badioinfo                000000018005a190     libucrt:ioinit.obj
 0003:000001e0       __acrt_initial_locale_data 000000018005a1e0     libucrt:nlsdata.obj
 0003:00000338       __acrt_initial_locale_pointers 000000018005a338     libucrt:nlsdata.obj
 0003:00000348       __acrt_wide_c_locale_string 000000018005a348     libucrt:nlsdata.obj
 0003:00000350       __acrt_initial_multibyte_data 000000018005a350     libucrt:mbctype.obj
 0003:00000890       __globallocalestatus       000000018005a890     libucrt:glstatus.obj
 0003:000008a0       __acrt_lconv_c             000000018005a8a0     libucrt:localeconv.obj
 0003:00000938       __acrt_lconv_static_decimal 000000018005a938     libucrt:localeconv.obj
 0003:0000093c       __acrt_lconv_static_W_decimal 000000018005a93c     libucrt:localeconv.obj
 0003:00000940       _lookuptrailbytes          000000018005a940     libucrt:read.obj
 0003:00000a54       _fltused                   000000018005aa54     LIBCMT:fltused.obj
 0003:00000a70       __itt_sync_releasing_ptr__3_0 000000018005aa70     itt_notify.obj
 0003:00000a78       __itt_sync_prepare_ptr__3_0 000000018005aa78     itt_notify.obj
 0003:00000a80       __itt_sync_acquired_ptr__3_0 000000018005aa80     itt_notify.obj
 0003:00000a88       __itt_counter_inc_v3_ptr__3_0 000000018005aa88     itt_notify.obj
 0003:00000a90       __itt_counter_dec_delta_ptr__3_0 000000018005aa90     itt_notify.obj
 0003:00000a98       __itt_fsync_acquired_ptr__3_0 000000018005aa98     itt_notify.obj
 0003:00000aa0       __itt_heap_internal_access_begin_ptr__3_0 000000018005aaa0     itt_notify.obj
 0003:00000aa8       __itt_counter_dec_delta_v3_ptr__3_0 000000018005aaa8     itt_notify.obj
 0003:00000ab0       __itt_memory_write_ptr__3_0 000000018005aab0     itt_notify.obj
 0003:00000ab8       __itt_model_iteration_taskW_ptr__3_0 000000018005aab8     itt_notify.obj
 0003:00000ac0       __itt_mark_off_ptr__3_0    000000018005aac0     itt_notify.obj
 0003:00000ac8       __itt_heap_function_createW_ptr__3_0 000000018005aac8     itt_notify.obj
 0003:00000ad0       __itt_id_destroy_ex_ptr__3_0 000000018005aad0     itt_notify.obj
 0003:00000ad8       __itt_memory_read_ptr__3_0 000000018005aad8     itt_notify.obj
 0003:00000ae0       __itt_task_group_ptr__3_0  000000018005aae0     itt_notify.obj
 0003:00000ae8       __itt_mark_createW_ptr__3_0 000000018005aae8     itt_notify.obj
 0003:00000af0       __itt_counter_destroy_ptr__3_0 000000018005aaf0     itt_notify.obj
 0003:00000af8       __itt_heap_reallocate_end_ptr__3_0 000000018005aaf8     itt_notify.obj
 0003:00000b00       __itt_heap_record_memory_growth_begin_ptr__3_0 000000018005ab00     itt_notify.obj
 0003:00000b08       __itt_id_create_ptr__3_0   000000018005ab08     itt_notify.obj
 0003:00000b10       __itt_event_createA_ptr__3_0 000000018005ab10     itt_notify.obj
 0003:00000b18       __itt_module_loadA_ptr__3_0 000000018005ab18     itt_notify.obj
 0003:00000b20       __itt_task_end_overlapped_ex_ptr__3_0 000000018005ab20     itt_notify.obj
 0003:00000b28       __itt_heap_allocate_end_ptr__3_0 000000018005ab28     itt_notify.obj
 0003:00000b30       __itt_model_iteration_taskA_ptr__3_0 000000018005ab30     itt_notify.obj
 0003:00000b38       __itt_av_saveA_ptr__3_0    000000018005ab38     itt_notify.obj
 0003:00000b40       __itt_task_end_ptr__3_0    000000018005ab40     itt_notify.obj
 0003:00000b48       __itt_get_timestamp_ptr__3_0 000000018005ab48     itt_notify.obj
 0003:00000b50       __itt_notify_sync_nameA_ptr__3_0 000000018005ab50     itt_notify.obj
 0003:00000b58       __itt_task_begin_ptr__3_0  000000018005ab58     itt_notify.obj
 0003:00000b60       __itt_mark_globalW_ptr__3_0 000000018005ab60     itt_notify.obj
 0003:00000b68       __itt_task_begin_fn_ex_ptr__3_0 000000018005ab68     itt_notify.obj
 0003:00000b70       __itt_thread_set_nameA_ptr__3_0 000000018005ab70     itt_notify.obj
 0003:00000b78       __itt_pt_region_createA_ptr__3_0 000000018005ab78     itt_notify.obj
 0003:00000b80       __itt_id_create_ex_ptr__3_0 000000018005ab80     itt_notify.obj
 0003:00000b88       __itt_model_observe_uses_ptr__3_0 000000018005ab88     itt_notify.obj
 0003:00000b90       __itt_model_lock_release_ptr__3_0 000000018005ab90     itt_notify.obj
 0003:00000b98       __itt_model_reduction_uses_ptr__3_0 000000018005ab98     itt_notify.obj
 0003:00000ba0       __itt_resume_ptr__3_0      000000018005aba0     itt_notify.obj
 0003:00000ba8       __itt_suppress_push_ptr__3_0 000000018005aba8     itt_notify.obj
 0003:00000bb0       __itt_model_lock_acquire_ptr__3_0 000000018005abb0     itt_notify.obj
 0003:00000bb8       __itt_counter_set_value_ptr__3_0 000000018005abb8     itt_notify.obj
 0003:00000bc0       __itt_id_destroy_ptr__3_0  000000018005abc0     itt_notify.obj
 0003:00000bc8       __itt_task_begin_fn_ptr__3_0 000000018005abc8     itt_notify.obj
 0003:00000bd0       __itt_event_start_ptr__3_0 000000018005abd0     itt_notify.obj
 0003:00000bd8       __itt_string_handle_createA_ptr__3_0 000000018005abd8     itt_notify.obj
 0003:00000be0       __itt_counter_createA_ptr__3_0 000000018005abe0     itt_notify.obj
 0003:00000be8       __itt_sync_createW_ptr__3_0 000000018005abe8     itt_notify.obj
 0003:00000bf0       __itt_marker_ptr__3_0      000000018005abf0     itt_notify.obj
 0003:00000bf8       __itt_model_disable_pop_ptr__3_0 000000018005abf8     itt_notify.obj
 0003:00000c00       __itt_model_site_begin_ptr__3_0 000000018005ac00     itt_notify.obj
 0003:00000c08       __itt_marker_ex_ptr__3_0   000000018005ac08     itt_notify.obj
 0003:00000c10       __itt_heap_function_createA_ptr__3_0 000000018005ac10     itt_notify.obj
 0003:00000c18       __itt_markW_ptr__3_0       000000018005ac18     itt_notify.obj
 0003:00000c20       __itt_track_group_create_ptr__3_0 000000018005ac20     itt_notify.obj
 0003:00000c28       __itt_thr_name_setA_ptr__3_0 000000018005ac28     itt_notify.obj
 0003:00000c30       __itt_model_task_beginAL_ptr__3_0 000000018005ac30     itt_notify.obj
 0003:00000c38       __itt_frame_end_ptr__3_0   000000018005ac38     itt_notify.obj
 0003:00000c40       __itt_heap_internal_access_end_ptr__3_0 000000018005ac40     itt_notify.obj
 0003:00000c48       __itt_region_end_ptr__3_0  000000018005ac48     itt_notify.obj
 0003:00000c50       __itt_notify_sync_releasing_ptr__3_0 000000018005ac50     itt_notify.obj
 0003:00000c58       __itt_frame_begin_v3_ptr__3_0 000000018005ac58     itt_notify.obj
 0003:00000c60       __itt_metadata_add_ptr__3_0 000000018005ac60     itt_notify.obj
 0003:00000c68       __itt_thread_ignore_ptr__3_0 000000018005ac68     itt_notify.obj
 0003:00000c70       __itt_counter_dec_ptr__3_0 000000018005ac70     itt_notify.obj
 0003:00000c78       __itt_heap_allocate_begin_ptr__3_0 000000018005ac78     itt_notify.obj
 0003:00000c80       __itt_heap_reset_detection_ptr__3_0 000000018005ac80     itt_notify.obj
 0003:00000c88       __itt_stack_callee_leave_ptr__3_0 000000018005ac88     itt_notify.obj
 0003:00000c90       __itt_heap_reallocate_begin_ptr__3_0 000000018005ac90     itt_notify.obj
 0003:00000c98       __itt_counter_inc_delta_ptr__3_0 000000018005ac98     itt_notify.obj
 0003:00000ca0       __itt_stack_caller_destroy_ptr__3_0 000000018005aca0     itt_notify.obj
 0003:00000ca8       __itt_model_disable_push_ptr__3_0 000000018005aca8     itt_notify.obj
 0003:00000cb0       __itt_thr_name_setW_ptr__3_0 000000018005acb0     itt_notify.obj
 0003:00000cb8       __itt_model_task_beginW_ptr__3_0 000000018005acb8     itt_notify.obj
 0003:00000cc0       __itt_thr_mode_set_ptr__3_0 000000018005acc0     itt_notify.obj
 0003:00000cc8       __itt_metadata_str_addA_ptr__3_0 000000018005acc8     itt_notify.obj
 0003:00000cd0       __itt_mark_global_off_ptr__3_0 000000018005acd0     itt_notify.obj
 0003:00000cd8       __itt_suppress_clear_range_ptr__3_0 000000018005acd8     itt_notify.obj
 0003:00000ce0       __itt_notify_sync_nameW_ptr__3_0 000000018005ace0     itt_notify.obj
 0003:00000ce8       __itt_sync_set_nameA_ptr__3_0 000000018005ace8     itt_notify.obj
 0003:00000cf0       __itt_metadata_str_addW_ptr__3_0 000000018005acf0     itt_notify.obj
 0003:00000cf8       __itt_model_record_deallocation_ptr__3_0 000000018005acf8     itt_notify.obj
 0003:00000d00       __itt_suppress_pop_ptr__3_0 000000018005ad00     itt_notify.obj
 0003:00000d08       __itt_stack_callee_enter_ptr__3_0 000000018005ad08     itt_notify.obj
 0003:00000d10       __itt_model_site_beginA_ptr__3_0 000000018005ad10     itt_notify.obj
 0003:00000d18       __itt_state_set_ptr__3_0   000000018005ad18     itt_notify.obj
 0003:00000d20       __itt_counter_create_typedW_ptr__3_0 000000018005ad20     itt_notify.obj
 0003:00000d28       __itt_notify_sync_prepare_ptr__3_0 000000018005ad28     itt_notify.obj
 0003:00000d30       __itt_state_get_ptr__3_0   000000018005ad30     itt_notify.obj
 0003:00000d38       __itt_model_lock_release_2_ptr__3_0 000000018005ad38     itt_notify.obj
 0003:00000d40       __itt_domain_createW_ptr__3_0 000000018005ad40     itt_notify.obj
 0003:00000d48       __itt_obj_mode_set_ptr__3_0 000000018005ad48     itt_notify.obj
 0003:00000d50       __itt_heap_free_end_ptr__3_0 000000018005ad50     itt_notify.obj
 0003:00000d58       __itt_sync_set_nameW_ptr__3_0 000000018005ad58     itt_notify.obj
 0003:00000d60       __itt_metadata_str_add_with_scopeA_ptr__3_0 000000018005ad60     itt_notify.obj
 0003:00000d68       __itt_model_record_allocation_ptr__3_0 000000018005ad68     itt_notify.obj
 0003:00000d70       __itt_fsync_releasing_ptr__3_0 000000018005ad70     itt_notify.obj
 0003:00000d78       __itt_notify_sync_acquired_ptr__3_0 000000018005ad78     itt_notify.obj
 0003:00000d80       __itt_frame_createA_ptr__3_0 000000018005ad80     itt_notify.obj
 0003:00000d88       __itt_memory_update_ptr__3_0 000000018005ad88     itt_notify.obj
 0003:00000d90       __itt_counter_createW_ptr__3_0 000000018005ad90     itt_notify.obj
 0003:00000d98       __itt_domain_createA_ptr__3_0 000000018005ad98     itt_notify.obj
 0003:00000da0       __itt_module_loadW_ptr__3_0 000000018005ada0     itt_notify.obj
 0003:00000da8       __itt_pause_ptr__3_0       000000018005ada8     itt_notify.obj
 0003:00000db0       __itt_clock_domain_create_ptr__3_0 000000018005adb0     itt_notify.obj
 0003:00000db8       __itt_notify_sync_cancel_ptr__3_0 000000018005adb8     itt_notify.obj
 0003:00000dc0       __itt_task_begin_overlapped_ptr__3_0 000000018005adc0     itt_notify.obj
 0003:00000dc8       __itt_model_site_end_ptr__3_0 000000018005adc8     itt_notify.obj
 0003:00000dd0       __itt_thread_set_nameW_ptr__3_0 000000018005add0     itt_notify.obj
 0003:00000dd8       __itt_frame_end_v3_ptr__3_0 000000018005add8     itt_notify.obj
 0003:00002848       __itt_task_begin_overlapped_ex_ptr__3_0 000000018005c848     itt_notify.obj
 0003:00002850       __itt_sync_createA_ptr__3_0 000000018005c850     itt_notify.obj
 0003:00002858       __itt_task_end_overlapped_ptr__3_0 000000018005c858     itt_notify.obj
 0003:00002860       __itt_string_handle_createW_ptr__3_0 000000018005c860     itt_notify.obj
 0003:00002868       __itt_stack_caller_create_ptr__3_0 000000018005c868     itt_notify.obj
 0003:00002870       __itt_model_task_begin_ptr__3_0 000000018005c870     itt_notify.obj
 0003:00002878       __itt_fsync_cancel_ptr__3_0 000000018005c878     itt_notify.obj
 0003:00002880       __itt_model_clear_uses_ptr__3_0 000000018005c880     itt_notify.obj
 0003:00002888       __itt_model_iteration_taskAL_ptr__3_0 000000018005c888     itt_notify.obj
 0003:00002890       __itt_frame_createW_ptr__3_0 000000018005c890     itt_notify.obj
 0003:00002898       __itt_set_track_ptr__3_0   000000018005c898     itt_notify.obj
 0003:000028a0       __itt_sync_renameW_ptr__3_0 000000018005c8a0     itt_notify.obj
 0003:000028a8       __itt_model_task_end_ptr__3_0 000000018005c8a8     itt_notify.obj
 0003:000028b0       __itt_counter_dec_v3_ptr__3_0 000000018005c8b0     itt_notify.obj
 0003:000028b8       __itt_counter_set_value_ex_ptr__3_0 000000018005c8b8     itt_notify.obj
 0003:000028c0       __itt_counter_create_typedA_ptr__3_0 000000018005c8c0     itt_notify.obj
 0003:000028c8       __itt_frame_begin_ptr__3_0 000000018005c8c8     itt_notify.obj
 0003:000028d0       __itt_fsync_prepare_ptr__3_0 000000018005c8d0     itt_notify.obj
 0003:000028d8       __itt_mark_createA_ptr__3_0 000000018005c8d8     itt_notify.obj
 0003:000028e0       __itt_model_induction_uses_ptr__3_0 000000018005c8e0     itt_notify.obj
 0003:000028e8       __itt_clock_domain_reset_ptr__3_0 000000018005c8e8     itt_notify.obj
 0003:000028f0       __itt_pt_region_createW_ptr__3_0 000000018005c8f0     itt_notify.obj
 0003:000028f8       __itt_heap_record_ptr__3_0 000000018005c8f8     itt_notify.obj
 0003:00002900       __itt_sync_destroy_ptr__3_0 000000018005c900     itt_notify.obj
 0003:00002908       __itt_model_task_end_2_ptr__3_0 000000018005c908     itt_notify.obj
 0003:00002910       __itt_sync_cancel_ptr__3_0 000000018005c910     itt_notify.obj
 0003:00002918       __itt_enable_attach_ptr__3_0 000000018005c918     itt_notify.obj
 0003:00002920       __itt_model_lock_acquire_2_ptr__3_0 000000018005c920     itt_notify.obj
 0003:00002928       __itt_track_create_ptr__3_0 000000018005c928     itt_notify.obj
 0003:00002930       __itt_model_site_beginAL_ptr__3_0 000000018005c930     itt_notify.obj
 0003:00002938       __itt_relation_add_ex_ptr__3_0 000000018005c938     itt_notify.obj
 0003:00002940       __itt_task_end_ex_ptr__3_0 000000018005c940     itt_notify.obj
 0003:00002948       __itt_mark_globalA_ptr__3_0 000000018005c948     itt_notify.obj
 0003:00002950       __itt_model_aggregate_task_ptr__3_0 000000018005c950     itt_notify.obj
 0003:00002958       __itt_api_version_ptr__3_0 000000018005c958     itt_notify.obj
 0003:00002960       ?__itt__ittapi_global@@3U___itt_global@@A 000000018005c960     itt_notify.obj
 0003:00002a00       __itt_heap_record_memory_growth_end_ptr__3_0 000000018005ca00     itt_notify.obj
 0003:00002a08       __itt_region_begin_ptr__3_0 000000018005ca08     itt_notify.obj
 0003:00002a10       __itt_model_site_beginW_ptr__3_0 000000018005ca10     itt_notify.obj
 0003:00002a18       __itt_event_createW_ptr__3_0 000000018005ca18     itt_notify.obj
 0003:00002a20       __itt_event_end_ptr__3_0   000000018005ca20     itt_notify.obj
 0003:00002a28       __itt_task_begin_ex_ptr__3_0 000000018005ca28     itt_notify.obj
 0003:00002a30       __itt_relation_add_to_current_ex_ptr__3_0 000000018005ca30     itt_notify.obj
 0003:00002a38       __itt_counter_inc_delta_v3_ptr__3_0 000000018005ca38     itt_notify.obj
 0003:00002a40       __itt_av_saveW_ptr__3_0    000000018005ca40     itt_notify.obj
 0003:00002a48       __itt_metadata_str_add_with_scopeW_ptr__3_0 000000018005ca48     itt_notify.obj
 0003:00002a50       __itt_heap_free_begin_ptr__3_0 000000018005ca50     itt_notify.obj
 0003:00002a58       __itt_markA_ptr__3_0       000000018005ca58     itt_notify.obj
 0003:00002a60       __itt_model_task_beginA_ptr__3_0 000000018005ca60     itt_notify.obj
 0003:00002a68       __itt_suppress_mark_range_ptr__3_0 000000018005ca68     itt_notify.obj
 0003:00002a70       __itt_detach_ptr__3_0      000000018005ca70     itt_notify.obj
 0003:00002a78       __itt_relation_add_to_current_ptr__3_0 000000018005ca78     itt_notify.obj
 0003:00002a80       __itt_thr_ignore_ptr__3_0  000000018005ca80     itt_notify.obj
 0003:00002a88       __itt_counter_inc_ptr__3_0 000000018005ca88     itt_notify.obj
 0003:00002a90       __itt_frame_submit_v3_ptr__3_0 000000018005ca90     itt_notify.obj
 0003:00002a98       __itt_metadata_add_with_scope_ptr__3_0 000000018005ca98     itt_notify.obj
 0003:00002aa0       __itt_model_site_end_2_ptr__3_0 000000018005caa0     itt_notify.obj
 0003:00002aa8       __itt_relation_add_ptr__3_0 000000018005caa8     itt_notify.obj
 0003:00002ab0       __itt_sync_renameA_ptr__3_0 000000018005cab0     itt_notify.obj
 0003:00002af8       ?NumGroups@ProcessorGroupInfo@internal@tbb@@2HA 000000018005caf8     tbb_misc_ex.obj
 0003:00003120       ??_R0?AVbad_exception@std@@@8 000000018005d120     libcpmt:excptptr.obj
 0003:00003148       ??_R0?AV_Ref_count_base@std@@@8 000000018005d148     libcpmt:excptptr.obj
 0003:00003250       ??_R0?AVbad_array_new_length@std@@@8 000000018005d250     libcpmt:xonce.obj
 0003:00003280       ??_R0?AVtype_info@@@8      000000018005d280     LIBCMT:std_type_info_static.obj
 0003:000032a0       ??_R0?AV__non_rtti_object@std@@@8 000000018005d2a0     libvcruntime:rtti.obj
 0003:000032d0       ??_R0?AVbad_typeid@std@@@8 000000018005d2d0     libvcruntime:rtti.obj
 0003:000032f8       ??_R0?AVbad_cast@std@@@8   000000018005d2f8     libvcruntime:rtti.obj
 0003:00003320       ??_R0?AVDNameNode@@@8      000000018005d320     libvcruntime:undname.obj
 0003:00003340       ??_R0?AVcharNode@@@8       000000018005d340     libvcruntime:undname.obj
 0003:00003360       ??_R0?AVpcharNode@@@8      000000018005d360     libvcruntime:undname.obj
 0003:00003380       ??_R0?AVpDNameNode@@@8     000000018005d380     libvcruntime:undname.obj
 0003:000033a8       ??_R0?AVDNameStatusNode@@@8 000000018005d3a8     libvcruntime:undname.obj
 0003:000033d0       ??_R0?AVpairNode@@@8       000000018005d3d0     libvcruntime:undname.obj
 0003:000033f0       ??_R0?AVuser_abort@tbb@@@8 000000018005d3f0     concurrent_queue.obj
 0003:00003418       ??_R0?AVconcurrent_queue_base_v3@internal@tbb@@@8 000000018005d418     concurrent_queue.obj
 0003:00003458       ??_R0?AVno_assign@internal@tbb@@@8 000000018005d458     concurrent_queue.obj
 0003:00003488       ??_R0?AVno_copy@internal@tbb@@@8 000000018005d488     concurrent_queue.obj
 0003:000034b8       ??_R0?AUtask_info@internal@tbb@@@8 000000018005d4b8     pipeline.obj
 0003:000034e8       ??_R0?AVpipeline_root_task@internal@tbb@@@8 000000018005d4e8     pipeline.obj
 0003:00003520       ??_R0?AVtask_base@internal@interface5@tbb@@@8 000000018005d520     pipeline.obj
 0003:00003558       ??_R0?AVfilter@tbb@@@8     000000018005d558     pipeline.obj
 0003:00003580       ??_R0?AVtask@tbb@@@8       000000018005d580     pipeline.obj
 0003:000035a0       ??_R0?AVpipeline@tbb@@@8   000000018005d5a0     pipeline.obj
 0003:000035c8       ??_R0?AVstage_task@internal@tbb@@@8 000000018005d5c8     pipeline.obj
 0003:000035f8       ??_R0?AVversioned_object@rml@@@8 000000018005d5f8     private_server.obj
 0003:00003628       ??_R0?AVserver@rml@@@8     000000018005d628     private_server.obj
 0003:00003650       ??_R0?AVtbb_server@rml@internal@tbb@@@8 000000018005d650     private_server.obj
 0003:00003688       ??_R0?AVprivate_server@rml@internal@tbb@@@8 000000018005d688     private_server.obj
 0003:000036c0       ??_R0?AVruntime_error@std@@@8 000000018005d6c0     tbb_misc.obj
 0003:000036e8       ??_R0?AVbad_alloc@std@@@8  000000018005d6e8     tbb_misc.obj
 0003:00003710       ??_R0?AVinvalid_multiple_scheduling@tbb@@@8 000000018005d710     tbb_misc.obj
 0003:00003748       ??_R0?AVmissing_wait@tbb@@@8 000000018005d748     tbb_misc.obj
 0003:00003770       ??_R0?AVrange_error@std@@@8 000000018005d770     tbb_misc.obj
 0003:00003798       ??_R0?AVlength_error@std@@@8 000000018005d798     tbb_misc.obj
 0003:000037c0       ??_R0?AVimproper_lock@tbb@@@8 000000018005d7c0     tbb_misc.obj
 0003:000037e8       ??_R0?AVlogic_error@std@@@8 000000018005d7e8     tbb_misc.obj
 0003:00003810       ??_R0?AVbad_last_alloc@tbb@@@8 000000018005d810     tbb_misc.obj
 0003:00003840       ??_R0?AVout_of_range@std@@@8 000000018005d840     tbb_misc.obj
 0003:00003868       ??_R0?AVinvalid_argument@std@@@8 000000018005d868     tbb_misc.obj
 0003:00003898       ??_R0?AVexception@std@@@8  000000018005d898     tbb_misc.obj
 0003:000038c0       ??_R0?AVtbb_exception@tbb@@@8 000000018005d8c0     task_group_context.obj
 0003:000038e8       ??_R0?AVcaptured_exception@tbb@@@8 000000018005d8e8     task_group_context.obj
 0003:00003918       ??_R0?AVtbb_client@rml@internal@tbb@@@8 000000018005d918     market.obj
 0003:00003950       ??_R0?AVclient@rml@@@8     000000018005d950     market.obj
 0003:00003978       ??_R0?AVmarket@internal@tbb@@@8 000000018005d978     market.obj
 0003:000039a8       ??_R0?AVempty_task@tbb@@@8 000000018005d9a8     arena.obj
 0003:000039d0       ??_R0?AVtask_scheduler_observer_v3@internal@tbb@@@8 000000018005d9d0     arena.obj
 0003:00003a10       ??_R0?AVdelegated_task@internal@interface7@tbb@@@8 000000018005da10     arena.obj
 0003:00003a50       ??_R0?AV?$function_task@Vspawn_functor@graph@interface10@flow@tbb@@@internal@tbb@@@8 000000018005da50     arena.obj
 0003:00003ab0       ??_R0?AV?$delegated_function@Vspawn_functor@graph@interface10@flow@tbb@@X@internal@interface7@tbb@@@8 000000018005dab0     arena.obj
 0003:00003b20       ??_R0?AVwait_task@internal@interface7@tbb@@@8 000000018005db20     arena.obj
 0003:00003b58       ??_R0?AVdelegate_base@internal@interface7@tbb@@@8 000000018005db58     arena.obj
 0003:00003b98       ??_R0?AVtask_scheduler_observer@interface6@tbb@@@8 000000018005db98     arena.obj
 0003:00003bd8       ??_R0?AVnuma_binding_observer@internal@tbb@@@8 000000018005dbd8     arena.obj
 0003:00003c18       ??_R0?AVjob@rml@@@8        000000018005dc18     scheduler.obj
 0003:00003c38       ??_R0?AVscheduler@internal@tbb@@@8 000000018005dc38     scheduler.obj
 0003:00003c70       ??_R0?AV?$custom_scheduler@UDefaultSchedulerTraits@internal@tbb@@@internal@tbb@@@8 000000018005dc70     scheduler.obj
 0003:00003cd0       ??_R0?AUscheduler_state@internal@tbb@@@8 000000018005dcd0     scheduler.obj
 0003:00003d10       ??_R0?AV?$custom_scheduler@UIntelSchedulerTraits@internal@tbb@@@internal@tbb@@@8 000000018005dd10     scheduler.obj
 0003:00003d70       ??_R0?AVgeneric_scheduler@internal@tbb@@@8 000000018005dd70     scheduler.obj
 0003:00003da8       ??_R0?AUintrusive_list_node@internal@tbb@@@8 000000018005dda8     scheduler.obj
 0003:00003de0       ??_R0?AU?$padded@Vcontrol_storage@internal@tbb@@$0IA@@internal@tbb@@@8 000000018005dde0     tbb_main.obj
 0003:00003e38       ??_R0?AVcontrol_storage@internal@tbb@@@8 000000018005de38     tbb_main.obj
 0003:00003e70       ??_R0?AVstack_size_control@internal@tbb@@@8 000000018005de70     tbb_main.obj
 0003:00003ea8       ??_R0?AVallowed_parallelism_control@internal@tbb@@@8 000000018005dea8     tbb_main.obj
 0003:00003ef0       ??_R0?AU?$padded_base@Vcontrol_storage@internal@tbb@@$0IA@$0CA@@internal@tbb@@@8 000000018005def0     tbb_main.obj
 0003:00003f50       ??_R0?AVconcurrent_queue_base@internal@tbb@@@8 000000018005df50     concurrent_queue_v2.obj
 0003:00003f90       ?_Flag@?1???$_Immortalize@V?$_ExceptionPtr_static@Vbad_exception@std@@@?A0x13fc80ab@@@std@@YAAEAV?$_ExceptionPtr_static@Vbad_exception@std@@@?A0x13fc80ab@@XZ@4PEAXEA 000000018005df90     libcpmt:excptptr.obj
 0003:00003fa0       ?_Storage@?1???$_Immortalize@V?$_ExceptionPtr_static@Vbad_exception@std@@@?A0x13fc80ab@@@std@@YAAEAV?$_ExceptionPtr_static@Vbad_exception@std@@@?A0x13fc80ab@@XZ@4T?$_Align_type@N$0MA@@1@A 000000018005dfa0     libcpmt:excptptr.obj
 0003:00004060       ?_Flag@?1???$_Immortalize@V?$_ExceptionPtr_static@Vbad_alloc@std@@@?A0x13fc80ab@@@std@@YAAEAV?$_ExceptionPtr_static@Vbad_alloc@std@@@?A0x13fc80ab@@XZ@4PEAXEA 000000018005e060     libcpmt:excptptr.obj
 0003:00004070       ?_Storage@?1???$_Immortalize@V?$_ExceptionPtr_static@Vbad_alloc@std@@@?A0x13fc80ab@@@std@@YAAEAV?$_ExceptionPtr_static@Vbad_alloc@std@@@?A0x13fc80ab@@XZ@4T?$_Align_type@N$0MA@@1@A 000000018005e070     libcpmt:excptptr.obj
 0003:00004130       __KERNEL32Functions        000000018005e130     libcpmt:winapisupp.obj
 0003:000047e0       ?__type_info_root_node@@3U__type_info_node@@A 000000018005e7e0     LIBCMT:tncleanup.obj
 0003:00004838       __scrt_current_native_startup_state 000000018005e838     LIBCMT:utility.obj
 0003:00004840       __scrt_native_startup_lock 000000018005e840     LIBCMT:utility.obj
 0003:00004884       __scrt_debugger_hook_flag  000000018005e884     LIBCMT:utility_desktop.obj
 0003:00004888       _tls_index                 000000018005e888     LIBCMT:tlssup.obj
 0003:0000488c       __favor                    000000018005e88c     LIBCMT:cpu_disp.obj
 0003:00004890       ?_OptionsStorage@?1??__local_stdio_scanf_options@@9@4_KA 000000018005e890     LIBCMT:default_local_stdio_options.obj
 0003:00004898       ?__WinRTOutOfMemoryExceptionCallback@@3P6APEAXXZEA 000000018005e898     libvcruntime:ehhelpers.obj
 0003:00004920       __pPurecall                000000018005e920     libvcruntime:purevirt_data.obj
 0003:00004928       ?pArgList@UnDecorator@@0PEAVReplicator@@EA 000000018005e928     libvcruntime:undname.obj
 0003:00004930       ?pZNameList@UnDecorator@@0PEAVReplicator@@EA 000000018005e930     libvcruntime:undname.obj
 0003:00004938       ?pTemplateArgList@UnDecorator@@0PEAVReplicator@@EA 000000018005e938     libvcruntime:undname.obj
 0003:00004940       ?gName@UnDecorator@@0PEBDEB 000000018005e940     libvcruntime:undname.obj
 0003:00004948       ?name@UnDecorator@@0PEBDEB 000000018005e948     libvcruntime:undname.obj
 0003:00004950       ?disableFlags@UnDecorator@@0KA 000000018005e950     libvcruntime:undname.obj
 0003:00004954       ?fExplicitTemplateParams@UnDecorator@@0_NA 000000018005e954     libvcruntime:undname.obj
 0003:00004955       ?fGetTemplateArgumentList@UnDecorator@@0_NA 000000018005e955     libvcruntime:undname.obj
 0003:00004958       ?m_pGetParameter@UnDecorator@@0P6APEADJ@ZEA 000000018005e958     libvcruntime:undname.obj
 0003:00004960       ?m_CHPENameOffset@UnDecorator@@0KA 000000018005e960     libvcruntime:undname.obj
 0003:00004964       ?m_recursionLevel@UnDecorator@@0KA 000000018005e964     libvcruntime:undname.obj
 0003:00004a10       ?c_exit_complete@?1???R<lambda_6e4b09c48022b2350581041d5f6b0c4c>@@QEBA@XZ@4_NA 000000018005ea10     libucrt:exit.obj
 0003:00004a18       _nstream                   000000018005ea18     libucrt:_file.obj
 0003:00004a20       __piob                     000000018005ea20     libucrt:_file.obj
 0003:00004a28       _cflush                    000000018005ea28     libucrt:_file.obj
 0003:00004b48       _environ_table             000000018005eb48     libucrt:environment_initialization.obj
 0003:00004b50       _wenviron_table            000000018005eb50     libucrt:environment_initialization.obj
 0003:00004b58       __dcrt_initial_wide_environment 000000018005eb58     libucrt:environment_initialization.obj
 0003:00004b60       __dcrt_initial_narrow_environment 000000018005eb60     libucrt:environment_initialization.obj
 0003:00004b68       __acrt_atexit_table        000000018005eb68     libucrt:onexit.obj
 0003:00004b80       __acrt_at_quick_exit_table 000000018005eb80     libucrt:onexit.obj
 0003:00004fa0       __pioinfo                  000000018005efa0     libucrt:ioinit.obj
 0003:000053a0       _nhandle                   000000018005f3a0     libucrt:ioinit.obj
 0003:000053b8       __acrt_stdout_buffer       000000018005f3b8     libucrt:_sftbuf.obj
 0003:000053c0       __acrt_stderr_buffer       000000018005f3c0     libucrt:_sftbuf.obj
 0003:000053c8       __acrt_locale_changed_data 000000018005f3c8     libucrt:wsetlocale.obj
 0003:000053d0       __acrt_current_locale_data 000000018005f3d0     libucrt:nlsdata.obj
 0003:000053f8       _mbctype                   000000018005f3f8     libucrt:mbctype.obj
 0003:00005400       _mbcasemap                 000000018005f400     libucrt:mbctype.obj
 0003:00005408       __acrt_current_multibyte_data 000000018005f408     libucrt:mbctype.obj
 0003:00005418       _pgmptr                    000000018005f418     libucrt:argv_data.obj
 0003:00005420       __argc                     000000018005f420     libucrt:argv_data.obj
 0003:00005428       __argv                     000000018005f428     libucrt:argv_data.obj
 0003:00005430       __wargv                    000000018005f430     libucrt:argv_data.obj
 0003:00005438       _acmdln                    000000018005f438     libucrt:argv_data.obj
 0003:00005440       _wcmdln                    000000018005f440     libucrt:argv_data.obj
 0003:00005448       __acrt_heap                000000018005f448     libucrt:heap_handle.obj
 0003:0000545c       __acrt_lconv_static_null   000000018005f45c     libucrt:localeconv.obj
 0003:00005460       __acrt_lconv_static_W_null 000000018005f460     libucrt:localeconv.obj
 0003:00005470       __fma3_is_available        000000018005f470     libucrt:fma3_available.obj
 0003:00005474       __use_fma3_lib             000000018005f474     libucrt:fma3_available.obj
 0003:00005480       ?init_dl_data_state@internal@tbb@@3U?$atomic@W4do_once_state@internal@tbb@@@2@A 000000018005f480     dynamic_link.obj
 0003:00005484       ?HoleIndex@ProcessorGroupInfo@internal@tbb@@2HA 000000018005f484     tbb_misc_ex.obj
 0003:00005488       ?handles@internal@tbb@@3Uhandles_t@12@A 000000018005f488     dynamic_link.obj
 0003:000054e0       ?theProcessorGroups@internal@tbb@@3PAUProcessorGroupInfo@12@A 000000018005f4e0     tbb_misc_ex.obj
 0003:00005920       ?the_context_state_propagation_epoch@internal@tbb@@3_KA 000000018005f920     scheduler.obj
 0003:00005928       ?is_speculation_enabled@governor@internal@tbb@@0_NA 000000018005f928     tbb_main.obj
 0003:00005929       ?InitializationDone@__TBB_InitOnce@internal@tbb@@0_NA 000000018005f929     tbb_main.obj
 0003:0000592a       ?UsePrivateRML@governor@internal@tbb@@0_NA 000000018005f92a     tbb_main.obj
 0003:0000592b       ?is_rethrow_broken@governor@internal@tbb@@0_NA 000000018005f92b     tbb_main.obj
 0003:0000592c       ?theTLS@governor@internal@tbb@@0V?$basic_tls@_K@23@A 000000018005f92c     tbb_main.obj
 0003:00005930       ?AllocateSchedulerPtr@internal@tbb@@3P6APEAVgeneric_scheduler@12@AEAVmarket@12@_N@ZEA 000000018005f930     tbb_main.obj
 0003:00005938       ?theRMLServerFactory@governor@internal@tbb@@0Vtbb_factory@rml@23@A 000000018005f938     tbb_main.obj
 0003:00005960       ?DefaultPageSize@governor@internal@tbb@@0_KA 000000018005f960     tbb_main.obj
 0003:00005968       ?InitializationLock@__TBB_InitOnce@internal@tbb@@0EA 000000018005f968     tbb_main.obj
 0003:0000596c       ?count@__TBB_InitOnce@internal@tbb@@0U?$atomic@H@3@A 000000018005f96c     tbb_main.obj
 0003:00005970       ?theMarket@market@internal@tbb@@0PEAV123@EA 000000018005f970     tbb_main.obj
 0003:00005978       ?DefaultNumberOfThreads@governor@internal@tbb@@0IA 000000018005f978     tbb_main.obj
 0003:0000597d       ?the_context_state_propagation_mutex@internal@tbb@@3Vspin_mutex@2@A 000000018005f97d     scheduler.obj
 0003:0000597e       ?theMarketMutex@market@internal@tbb@@0Vspin_mutex@3@A 000000018005f97e     tbb_main.obj
 0003:00005a80       ?the_global_observer_list@internal@tbb@@3U?$padded@Vobserver_list@internal@tbb@@$0IA@@12@A 000000018005fa80     observer_proxy.obj
 0003:00006c70       ?_OptionsStorage@?1??__local_stdio_printf_options@@9@4_KA 0000000180060c70     private_server.obj
 0003:00006c88       __dyn_tls_init_callback    0000000180060c88     <common>
 0003:00006c90       __scrt_ucrt_dll_is_in_use  0000000180060c90     <common>

 entry point at        0001:0002000c

 Static symbols

 0000:fff96000       .debug$S                   0000000180000000     tbb.exp
 0000:fff96000       .debug$S                   0000000180000000     kernel32:KERNEL32.dll
 0000:fff96000       .debug$S                   0000000180000000     kernel32:KERNEL32.dll
 0000:fff96000       .debug$S                   0000000180000000     kernel32:KERNEL32.dll
 0000:fff96000       .debug$S                   0000000180000000     kernel32:KERNEL32.dll
 0000:fff96000       .debug$S                   0000000180000000     kernel32:KERNEL32.dll
 0000:fff96000       .debug$S                   0000000180000000     kernel32:KERNEL32.dll
 0000:fff96000       .debug$S                   0000000180000000     kernel32:KERNEL32.dll
 0000:fff96000       .debug$S                   0000000180000000     kernel32:KERNEL32.dll
 0000:fff96000       .debug$S                   0000000180000000     kernel32:KERNEL32.dll
 0000:fff96000       .debug$S                   0000000180000000     kernel32:KERNEL32.dll
 0000:fff96000       .debug$S                   0000000180000000     kernel32:KERNEL32.dll
 0000:fff96000       .debug$S                   0000000180000000     kernel32:KERNEL32.dll
 0000:fff96000       .debug$S                   0000000180000000     kernel32:KERNEL32.dll
 0000:fff96000       .debug$S                   0000000180000000     kernel32:KERNEL32.dll
 0000:fff96000       .debug$S                   0000000180000000     kernel32:KERNEL32.dll
 0000:fff96000       .debug$S                   0000000180000000     kernel32:KERNEL32.dll
 0000:fff96000       .debug$S                   0000000180000000     kernel32:KERNEL32.dll
 0000:fff96000       .debug$S                   0000000180000000     kernel32:KERNEL32.dll
 0000:fff96000       .debug$S                   0000000180000000     kernel32:KERNEL32.dll
 0000:fff96000       .debug$S                   0000000180000000     kernel32:KERNEL32.dll
 0000:fff96000       .debug$S                   0000000180000000     kernel32:KERNEL32.dll
 0000:fff96000       .debug$S                   0000000180000000     kernel32:KERNEL32.dll
 0000:fff96000       .debug$S                   0000000180000000     kernel32:KERNEL32.dll
 0000:fff96000       .debug$S                   0000000180000000     kernel32:KERNEL32.dll
 0000:fff96000       .debug$S                   0000000180000000     kernel32:KERNEL32.dll
 0000:fff96000       .debug$S                   0000000180000000     kernel32:KERNEL32.dll
 0000:fff96000       .debug$S                   0000000180000000     kernel32:KERNEL32.dll
 0000:fff96000       .debug$S                   0000000180000000     kernel32:KERNEL32.dll
 0000:fff96000       .debug$S                   0000000180000000     kernel32:KERNEL32.dll
 0000:fff96000       .debug$S                   0000000180000000     kernel32:KERNEL32.dll
 0000:fff96000       .debug$S                   0000000180000000     kernel32:KERNEL32.dll
 0000:fff96000       .debug$S                   0000000180000000     kernel32:KERNEL32.dll
 0000:fff96000       .debug$S                   0000000180000000     kernel32:KERNEL32.dll
 0000:fff96000       .debug$S                   0000000180000000     kernel32:KERNEL32.dll
 0000:fff96000       .debug$S                   0000000180000000     kernel32:KERNEL32.dll
 0000:fff96000       .debug$S                   0000000180000000     kernel32:KERNEL32.dll
 0000:fff96000       .debug$S                   0000000180000000     kernel32:KERNEL32.dll
 0000:fff96000       .debug$S                   0000000180000000     kernel32:KERNEL32.dll
 0000:fff96000       .debug$S                   0000000180000000     kernel32:KERNEL32.dll
 0000:fff96000       .debug$S                   0000000180000000     kernel32:KERNEL32.dll
 0000:fff96000       .debug$S                   0000000180000000     kernel32:KERNEL32.dll
 0000:fff96000       .debug$S                   0000000180000000     kernel32:KERNEL32.dll
 0000:fff96000       .debug$S                   0000000180000000     kernel32:KERNEL32.dll
 0000:fff96000       .debug$S                   0000000180000000     kernel32:KERNEL32.dll
 0000:fff96000       .debug$S                   0000000180000000     kernel32:KERNEL32.dll
 0000:fff96000       .debug$S                   0000000180000000     kernel32:KERNEL32.dll
 0000:fff96000       .debug$S                   0000000180000000     kernel32:KERNEL32.dll
 0000:fff96000       .debug$S                   0000000180000000     kernel32:KERNEL32.dll
 0000:fff96000       .debug$S                   0000000180000000     kernel32:KERNEL32.dll
 0000:fff96000       .debug$S                   0000000180000000     kernel32:KERNEL32.dll
 0000:fff96000       .debug$S                   0000000180000000     kernel32:KERNEL32.dll
 0000:fff96000       .debug$S                   0000000180000000     kernel32:KERNEL32.dll
 0000:fff96000       .debug$S                   0000000180000000     kernel32:KERNEL32.dll
 0000:fff96000       .debug$S                   0000000180000000     kernel32:KERNEL32.dll
 0000:fff96000       .debug$S                   0000000180000000     kernel32:KERNEL32.dll
 0000:fff96000       .debug$S                   0000000180000000     kernel32:KERNEL32.dll
 0000:fff96000       .debug$S                   0000000180000000     kernel32:KERNEL32.dll
 0000:fff96000       .debug$S                   0000000180000000     kernel32:KERNEL32.dll
 0000:fff96000       .debug$S                   0000000180000000     kernel32:KERNEL32.dll
 0000:fff96000       .debug$S                   0000000180000000     kernel32:KERNEL32.dll
 0000:fff96000       .debug$S                   0000000180000000     kernel32:KERNEL32.dll
 0000:fff96000       .debug$S                   0000000180000000     kernel32:KERNEL32.dll
 0000:fff96000       .debug$S                   0000000180000000     kernel32:KERNEL32.dll
 0000:fff96000       .debug$S                   0000000180000000     kernel32:KERNEL32.dll
 0000:fff96000       .debug$S                   0000000180000000     kernel32:KERNEL32.dll
 0000:fff96000       .debug$S                   0000000180000000     kernel32:KERNEL32.dll
 0000:fff96000       .debug$S                   0000000180000000     kernel32:KERNEL32.dll
 0000:fff96000       .debug$S                   0000000180000000     kernel32:KERNEL32.dll
 0000:fff96000       .debug$S                   0000000180000000     kernel32:KERNEL32.dll
 0000:fff96000       .debug$S                   0000000180000000     kernel32:KERNEL32.dll
 0000:fff96000       .debug$S                   0000000180000000     kernel32:KERNEL32.dll
 0000:fff96000       .debug$S                   0000000180000000     kernel32:KERNEL32.dll
 0000:fff96000       .debug$S                   0000000180000000     kernel32:KERNEL32.dll
 0000:fff96000       .debug$S                   0000000180000000     kernel32:KERNEL32.dll
 0000:fff96000       .debug$S                   0000000180000000     kernel32:KERNEL32.dll
 0000:fff96000       .debug$S                   0000000180000000     kernel32:KERNEL32.dll
 0000:fff96000       .debug$S                   0000000180000000     kernel32:KERNEL32.dll
 0000:fff96000       .debug$S                   0000000180000000     kernel32:KERNEL32.dll
 0000:fff96000       .debug$S                   0000000180000000     kernel32:KERNEL32.dll
 0000:fff96000       .debug$S                   0000000180000000     kernel32:KERNEL32.dll
 0000:fff96000       .debug$S                   0000000180000000     kernel32:KERNEL32.dll
 0000:fff96000       .debug$S                   0000000180000000     kernel32:KERNEL32.dll
 0000:fff96000       .debug$S                   0000000180000000     kernel32:KERNEL32.dll
 0000:fff96000       .debug$S                   0000000180000000     kernel32:KERNEL32.dll
 0000:fff96000       .debug$S                   0000000180000000     kernel32:KERNEL32.dll
 0000:fff96000       .debug$S                   0000000180000000     kernel32:KERNEL32.dll
 0000:fff96000       .debug$S                   0000000180000000     kernel32:KERNEL32.dll
 0000:fff96000       .debug$S                   0000000180000000     kernel32:KERNEL32.dll
 0000:fff96000       .debug$S                   0000000180000000     kernel32:KERNEL32.dll
 0000:fff96000       .debug$S                   0000000180000000     kernel32:KERNEL32.dll
 0000:fff96000       .debug$S                   0000000180000000     kernel32:KERNEL32.dll
 0000:fff96000       .debug$S                   0000000180000000     kernel32:KERNEL32.dll
 0000:fff96000       .debug$S                   0000000180000000     kernel32:KERNEL32.dll
 0000:fff96000       .debug$S                   0000000180000000     kernel32:KERNEL32.dll
 0000:fff96000       .debug$S                   0000000180000000     kernel32:KERNEL32.dll
 0000:fff96000       .debug$S                   0000000180000000     kernel32:KERNEL32.dll
 0000:fff96000       .debug$S                   0000000180000000     kernel32:KERNEL32.dll
 0000:fff96000       .debug$S                   0000000180000000     kernel32:KERNEL32.dll
 0000:fff96000       .debug$S                   0000000180000000     kernel32:KERNEL32.dll
 0000:fff96000       .debug$S                   0000000180000000     kernel32:KERNEL32.dll
 0000:fff96000       .debug$S                   0000000180000000     kernel32:KERNEL32.dll
 0000:fff96000       .debug$S                   0000000180000000     kernel32:KERNEL32.dll
 0000:fff96000       .debug$S                   0000000180000000     kernel32:KERNEL32.dll
 0000:fff96000       .debug$S                   0000000180000000     kernel32:KERNEL32.dll
 0000:fff96000       .debug$S                   0000000180000000     kernel32:KERNEL32.dll
 0000:fff96000       .debug$S                   0000000180000000     kernel32:KERNEL32.dll
 0000:fff96000       .debug$S                   0000000180000000     kernel32:KERNEL32.dll
 0000:fff96000       .debug$S                   0000000180000000     kernel32:KERNEL32.dll
 0000:fff96000       .debug$S                   0000000180000000     kernel32:KERNEL32.dll
 0000:fff96000       .debug$S                   0000000180000000     kernel32:KERNEL32.dll
 0000:fff96000       .debug$S                   0000000180000000     kernel32:KERNEL32.dll
 0000:fff96000       .debug$S                   0000000180000000     kernel32:KERNEL32.dll
 0001:00000000       ??__Estatic_init_dl_data@internal@tbb@@YAXXZ 0000000180001000 f   dynamic_link.obj
 0001:00000010       ??__Ethe_dummy_context@internal@tbb@@YAXXZ 0000000180001010 f   scheduler.obj
 0001:00000070       ?dummy_bind_to_node@internal@tbb@@YAXPEAVbinding_handler@12@HH@Z 0000000180001070 f i governor.obj
 0001:00000070       ?dummy_deallocate_binding_handler@internal@tbb@@YAXPEAVbinding_handler@12@@Z 0000000180001070 f i governor.obj
 0001:00000070       ?dummy_restore_affinity@internal@tbb@@YAXPEAVbinding_handler@12@H@Z 0000000180001070 f i governor.obj
 0001:00000070       ?__itt_enable_attach_init_3_0@@YAXXZ 0000000180001070 f i itt_notify.obj
 0001:00000070       ?_Delete_this@?$_ExceptionPtr_static@Vbad_alloc@std@@@?A0x13fc80ab@@EEAAXXZ 0000000180001070 f i libcpmt:excptptr.obj
 0001:00000070       ?_Delete_this@?$_ExceptionPtr_static@Vbad_exception@std@@@?A0x13fc80ab@@EEAAXXZ 0000000180001070 f i libcpmt:excptptr.obj
 0001:00000070       ?_Destroy@?$_ExceptionPtr_static@Vbad_alloc@std@@@?A0x13fc80ab@@EEAAXXZ 0000000180001070 f i libcpmt:excptptr.obj
 0001:00000070       ?_Destroy@?$_ExceptionPtr_static@Vbad_exception@std@@@?A0x13fc80ab@@EEAAXXZ 0000000180001070 f i libcpmt:excptptr.obj
 0001:00002060       ??1segment_scope_guard@?1??enable_segment@helper@concurrent_vector_base_v3@internal@tbb@@SA_KAEAV345@_K1_N@Z@QEAA@XZ 0000000180003060 f   concurrent_vector.obj
 0001:000036a0       ?dynamic_link_warning@internal@tbb@@YAXW4dynamic_link_error_t@12@ZZ 00000001800046a0 f   dynamic_link.obj
 0001:000036b0       ?resolve_symbols@internal@tbb@@YA_NPEAUHINSTANCE__@@QEBUdynamic_link_descriptor@12@_K@Z 00000001800046b0 f   dynamic_link.obj
 0001:00003780       ?init_dl_data@internal@tbb@@YAXXZ 0000000180004780 f   dynamic_link.obj
 0001:00003a60       ?__itt_detach_init_3_0@@YAXXZ 0000000180004a60 f   itt_notify.obj
 0001:00003ab0       ?__itt_sync_createA_init_3_0@@YAXPEAXPEBD1H@Z 0000000180004ab0 f   itt_notify.obj
 0001:00003b30       ?__itt_sync_createW_init_3_0@@YAXPEAXPEB_W1H@Z 0000000180004b30 f   itt_notify.obj
 0001:00003bb0       ?__itt_sync_renameA_init_3_0@@YAXPEAXPEBD@Z 0000000180004bb0 f   itt_notify.obj
 0001:00003c10       ?__itt_sync_renameW_init_3_0@@YAXPEAXPEB_W@Z 0000000180004c10 f   itt_notify.obj
 0001:00003c70       ?__itt_sync_destroy_init_3_0@@YAXPEAX@Z 0000000180004c70 f   itt_notify.obj
 0001:00003cc0       ?__itt_sync_prepare_init_3_0@@YAXPEAX@Z 0000000180004cc0 f   itt_notify.obj
 0001:00003d10       ?__itt_sync_cancel_init_3_0@@YAXPEAX@Z 0000000180004d10 f   itt_notify.obj
 0001:00003d60       ?__itt_sync_acquired_init_3_0@@YAXPEAX@Z 0000000180004d60 f   itt_notify.obj
 0001:00003db0       ?__itt_sync_releasing_init_3_0@@YAXPEAX@Z 0000000180004db0 f   itt_notify.obj
 0001:00003e00       ?__itt_suppress_push_init_3_0@@YAXI@Z 0000000180004e00 f   itt_notify.obj
 0001:00003e50       ?__itt_suppress_pop_init_3_0@@YAXXZ 0000000180004e50 f   itt_notify.obj
 0001:00003ea0       ?__itt_suppress_mark_range_init_3_0@@YAXW4__itt_suppress_mode@@IPEAX_K@Z 0000000180004ea0 f   itt_notify.obj
 0001:00003f10       ?__itt_suppress_clear_range_init_3_0@@YAXW4__itt_suppress_mode@@IPEAX_K@Z 0000000180004f10 f   itt_notify.obj
 0001:00003f80       ?__itt_fsync_prepare_init_3_0@@YAXPEAX@Z 0000000180004f80 f   itt_notify.obj
 0001:00003fd0       ?__itt_fsync_cancel_init_3_0@@YAXPEAX@Z 0000000180004fd0 f   itt_notify.obj
 0001:00004020       ?__itt_fsync_acquired_init_3_0@@YAXPEAX@Z 0000000180005020 f   itt_notify.obj
 0001:00004070       ?__itt_fsync_releasing_init_3_0@@YAXPEAX@Z 0000000180005070 f   itt_notify.obj
 0001:000040c0       ?__itt_model_site_begin_init_3_0@@YAXPEAPEAX0PEBD@Z 00000001800050c0 f   itt_notify.obj
 0001:00004130       ?__itt_model_site_end_init_3_0@@YAXPEAPEAX0@Z 0000000180005130 f   itt_notify.obj
 0001:00004190       ?__itt_model_task_begin_init_3_0@@YAXPEAPEAX0PEBD@Z 0000000180005190 f   itt_notify.obj
 0001:00004200       ?__itt_model_task_end_init_3_0@@YAXPEAPEAX0@Z 0000000180005200 f   itt_notify.obj
 0001:00004260       ?__itt_model_lock_acquire_init_3_0@@YAXPEAX@Z 0000000180005260 f   itt_notify.obj
 0001:000042b0       ?__itt_model_lock_release_init_3_0@@YAXPEAX@Z 00000001800052b0 f   itt_notify.obj
 0001:00004300       ?__itt_model_record_allocation_init_3_0@@YAXPEAX_K@Z 0000000180005300 f   itt_notify.obj
 0001:00004360       ?__itt_model_record_deallocation_init_3_0@@YAXPEAX@Z 0000000180005360 f   itt_notify.obj
 0001:000043b0       ?__itt_model_induction_uses_init_3_0@@YAXPEAX_K@Z 00000001800053b0 f   itt_notify.obj
 0001:00004410       ?__itt_model_reduction_uses_init_3_0@@YAXPEAX_K@Z 0000000180005410 f   itt_notify.obj
 0001:00004470       ?__itt_model_observe_uses_init_3_0@@YAXPEAX_K@Z 0000000180005470 f   itt_notify.obj
 0001:000044d0       ?__itt_model_clear_uses_init_3_0@@YAXPEAX@Z 00000001800054d0 f   itt_notify.obj
 0001:00004520       ?__itt_model_site_beginW_init_3_0@@YAXPEB_W@Z 0000000180005520 f   itt_notify.obj
 0001:00004570       ?__itt_model_task_beginW_init_3_0@@YAXPEB_W@Z 0000000180005570 f   itt_notify.obj
 0001:000045c0       ?__itt_model_iteration_taskW_init_3_0@@YAXPEB_W@Z 00000001800055c0 f   itt_notify.obj
 0001:00004610       ?__itt_model_site_beginA_init_3_0@@YAXPEBD@Z 0000000180005610 f   itt_notify.obj
 0001:00004660       ?__itt_model_site_beginAL_init_3_0@@YAXPEBD_K@Z 0000000180005660 f   itt_notify.obj
 0001:000046c0       ?__itt_model_task_beginA_init_3_0@@YAXPEBD@Z 00000001800056c0 f   itt_notify.obj
 0001:00004710       ?__itt_model_task_beginAL_init_3_0@@YAXPEBD_K@Z 0000000180005710 f   itt_notify.obj
 0001:00004770       ?__itt_model_iteration_taskA_init_3_0@@YAXPEBD@Z 0000000180005770 f   itt_notify.obj
 0001:000047c0       ?__itt_model_iteration_taskAL_init_3_0@@YAXPEBD_K@Z 00000001800057c0 f   itt_notify.obj
 0001:00004820       ?__itt_model_site_end_2_init_3_0@@YAXXZ 0000000180005820 f   itt_notify.obj
 0001:00004870       ?__itt_model_task_end_2_init_3_0@@YAXXZ 0000000180005870 f   itt_notify.obj
 0001:000048c0       ?__itt_model_lock_acquire_2_init_3_0@@YAXPEAX@Z 00000001800058c0 f   itt_notify.obj
 0001:00004910       ?__itt_model_lock_release_2_init_3_0@@YAXPEAX@Z 0000000180005910 f   itt_notify.obj
 0001:00004960       ?__itt_model_aggregate_task_init_3_0@@YAX_K@Z 0000000180005960 f   itt_notify.obj
 0001:000049b0       ?__itt_model_disable_push_init_3_0@@YAXW4__itt_model_disable@@@Z 00000001800059b0 f   itt_notify.obj
 0001:00004a00       ?__itt_model_disable_pop_init_3_0@@YAXXZ 0000000180005a00 f   itt_notify.obj
 0001:00004a50       ?__itt_heap_function_createA_init_3_0@@YAPEAXPEBD0@Z 0000000180005a50 f   itt_notify.obj
 0001:00004ac0       ?__itt_heap_function_createW_init_3_0@@YAPEAXPEB_W0@Z 0000000180005ac0 f   itt_notify.obj
 0001:00004b30       ?__itt_heap_allocate_begin_init_3_0@@YAXPEAX_KH@Z 0000000180005b30 f   itt_notify.obj
 0001:00004ba0       ?__itt_heap_allocate_end_init_3_0@@YAXPEAXPEAPEAX_KH@Z 0000000180005ba0 f   itt_notify.obj
 0001:00004c20       ?__itt_heap_free_begin_init_3_0@@YAXPEAX0@Z 0000000180005c20 f   itt_notify.obj
 0001:00004c80       ?__itt_heap_free_end_init_3_0@@YAXPEAX0@Z 0000000180005c80 f   itt_notify.obj
 0001:00004ce0       ?__itt_heap_reallocate_begin_init_3_0@@YAXPEAX0_KH@Z 0000000180005ce0 f   itt_notify.obj
 0001:00004d60       ?__itt_heap_reallocate_end_init_3_0@@YAXPEAX0PEAPEAX_KH@Z 0000000180005d60 f   itt_notify.obj
 0001:00004de0       ?__itt_heap_internal_access_begin_init_3_0@@YAXXZ 0000000180005de0 f   itt_notify.obj
 0001:00004e30       ?__itt_heap_internal_access_end_init_3_0@@YAXXZ 0000000180005e30 f   itt_notify.obj
 0001:00004e80       ?__itt_heap_record_memory_growth_begin_init_3_0@@YAXXZ 0000000180005e80 f   itt_notify.obj
 0001:00004ed0       ?__itt_heap_record_memory_growth_end_init_3_0@@YAXXZ 0000000180005ed0 f   itt_notify.obj
 0001:00004f20       ?__itt_heap_reset_detection_init_3_0@@YAXI@Z 0000000180005f20 f   itt_notify.obj
 0001:00004f70       ?__itt_heap_record_init_3_0@@YAXI@Z 0000000180005f70 f   itt_notify.obj
 0001:00004fc0       ?__itt_id_create_init_3_0@@YAXPEBU___itt_domain@@U___itt_id@@@Z 0000000180005fc0 f   itt_notify.obj
 0001:00005030       ?__itt_id_destroy_init_3_0@@YAXPEBU___itt_domain@@U___itt_id@@@Z 0000000180006030 f   itt_notify.obj
 0001:000050a0       ?__itt_get_timestamp_init_3_0@@YA_KXZ 00000001800060a0 f   itt_notify.obj
 0001:000050f0       ?__itt_region_begin_init_3_0@@YAXPEBU___itt_domain@@U___itt_id@@1PEAU___itt_string_handle@@@Z 00000001800060f0 f   itt_notify.obj
 0001:000051a0       ?__itt_region_end_init_3_0@@YAXPEBU___itt_domain@@U___itt_id@@@Z 00000001800061a0 f   itt_notify.obj
 0001:00005210       ?__itt_frame_begin_v3_init_3_0@@YAXPEBU___itt_domain@@PEAU___itt_id@@@Z 0000000180006210 f   itt_notify.obj
 0001:00005270       ?__itt_frame_end_v3_init_3_0@@YAXPEBU___itt_domain@@PEAU___itt_id@@@Z 0000000180006270 f   itt_notify.obj
 0001:000052d0       ?__itt_frame_submit_v3_init_3_0@@YAXPEBU___itt_domain@@PEAU___itt_id@@_K2@Z 00000001800062d0 f   itt_notify.obj
 0001:00005350       ?__itt_task_group_init_3_0@@YAXPEBU___itt_domain@@U___itt_id@@1PEAU___itt_string_handle@@@Z 0000000180006350 f   itt_notify.obj
 0001:00005400       ?__itt_task_begin_init_3_0@@YAXPEBU___itt_domain@@U___itt_id@@1PEAU___itt_string_handle@@@Z 0000000180006400 f   itt_notify.obj
 0001:000054b0       ?__itt_task_begin_fn_init_3_0@@YAXPEBU___itt_domain@@U___itt_id@@1PEAX@Z 00000001800064b0 f   itt_notify.obj
 0001:00005560       ?__itt_task_end_init_3_0@@YAXPEBU___itt_domain@@@Z 0000000180006560 f   itt_notify.obj
 0001:000055b0       ?__itt_counter_inc_v3_init_3_0@@YAXPEBU___itt_domain@@PEAU___itt_string_handle@@@Z 00000001800065b0 f   itt_notify.obj
 0001:00005610       ?__itt_counter_inc_delta_v3_init_3_0@@YAXPEBU___itt_domain@@PEAU___itt_string_handle@@_K@Z 0000000180006610 f   itt_notify.obj
 0001:00005680       ?__itt_counter_dec_v3_init_3_0@@YAXPEBU___itt_domain@@PEAU___itt_string_handle@@@Z 0000000180006680 f   itt_notify.obj
 0001:000056e0       ?__itt_counter_dec_delta_v3_init_3_0@@YAXPEBU___itt_domain@@PEAU___itt_string_handle@@_K@Z 00000001800066e0 f   itt_notify.obj
 0001:00005750       ?__itt_marker_init_3_0@@YAXPEBU___itt_domain@@U___itt_id@@PEAU___itt_string_handle@@W4__itt_scope@@@Z 0000000180006750 f   itt_notify.obj
 0001:000057e0       ?__itt_metadata_add_init_3_0@@YAXPEBU___itt_domain@@U___itt_id@@PEAU___itt_string_handle@@W4__itt_metadata_type@@_KPEAX@Z 00000001800067e0 f   itt_notify.obj
 0001:00005890       ?__itt_metadata_str_addA_init_3_0@@YAXPEBU___itt_domain@@U___itt_id@@PEAU___itt_string_handle@@PEBD_K@Z 0000000180006890 f   itt_notify.obj
 0001:00005930       ?__itt_metadata_str_addW_init_3_0@@YAXPEBU___itt_domain@@U___itt_id@@PEAU___itt_string_handle@@PEB_W_K@Z 0000000180006930 f   itt_notify.obj
 0001:000059d0       ?__itt_relation_add_to_current_init_3_0@@YAXPEBU___itt_domain@@W4__itt_relation@@U___itt_id@@@Z 00000001800069d0 f   itt_notify.obj
 0001:00005a50       ?__itt_relation_add_init_3_0@@YAXPEBU___itt_domain@@U___itt_id@@W4__itt_relation@@1@Z 0000000180006a50 f   itt_notify.obj
 0001:00005b00       ?__itt_event_createA_init_3_0@@YAHPEBDH@Z 0000000180006b00 f   itt_notify.obj
 0001:00005b60       ?__itt_event_createW_init_3_0@@YAHPEB_WH@Z 0000000180006b60 f   itt_notify.obj
 0001:00005bc0       ?__itt_event_start_init_3_0@@YAHH@Z 0000000180006bc0 f   itt_notify.obj
 0001:00005c10       ?__itt_event_end_init_3_0@@YAHH@Z 0000000180006c10 f   itt_notify.obj
 0001:00005c60       ?__itt_sync_set_nameA_init_3_0@@YAXPEAXPEBD1H@Z 0000000180006c60 f   itt_notify.obj
 0001:00005ce0       ?__itt_sync_set_nameW_init_3_0@@YAXPEAXPEB_W1H@Z 0000000180006ce0 f   itt_notify.obj
 0001:00005d60       ?__itt_notify_sync_nameA_init_3_0@@YAHPEAXPEBDH1HH@Z 0000000180006d60 f   itt_notify.obj
 0001:00005df0       ?__itt_notify_sync_nameW_init_3_0@@YAHPEAXPEB_WH1HH@Z 0000000180006df0 f   itt_notify.obj
 0001:00005e80       ?__itt_notify_sync_prepare_init_3_0@@YAXPEAX@Z 0000000180006e80 f   itt_notify.obj
 0001:00005ed0       ?__itt_notify_sync_cancel_init_3_0@@YAXPEAX@Z 0000000180006ed0 f   itt_notify.obj
 0001:00005f20       ?__itt_notify_sync_acquired_init_3_0@@YAXPEAX@Z 0000000180006f20 f   itt_notify.obj
 0001:00005f70       ?__itt_notify_sync_releasing_init_3_0@@YAXPEAX@Z 0000000180006f70 f   itt_notify.obj
 0001:00005fc0       ?__itt_memory_read_init_3_0@@YAXPEAX_K@Z 0000000180006fc0 f   itt_notify.obj
 0001:00006020       ?__itt_memory_write_init_3_0@@YAXPEAX_K@Z 0000000180007020 f   itt_notify.obj
 0001:00006080       ?__itt_memory_update_init_3_0@@YAXPEAX_K@Z 0000000180007080 f   itt_notify.obj
 0001:000060e0       ?__itt_state_get_init_3_0@@YAHXZ 00000001800070e0 f   itt_notify.obj
 0001:00006130       ?__itt_state_set_init_3_0@@YAHH@Z 0000000180007130 f   itt_notify.obj
 0001:00006180       ?__itt_obj_mode_set_init_3_0@@YA?AW4__itt_obj_state@@W4__itt_obj_prop@@W41@@Z 0000000180007180 f   itt_notify.obj
 0001:000061e0       ?__itt_thr_mode_set_init_3_0@@YA?AW4__itt_thr_state@@W4__itt_thr_prop@@W41@@Z 00000001800071e0 f   itt_notify.obj
 0001:00006240       ?__itt_frame_createA_init_3_0@@YAPEAU__itt_frame_t@@PEBD@Z 0000000180007240 f   itt_notify.obj
 0001:00006290       ?__itt_frame_createW_init_3_0@@YAPEAU__itt_frame_t@@PEB_W@Z 0000000180007290 f   itt_notify.obj
 0001:000062e0       ?__itt_pt_region_createA_init_3_0@@YAEPEBD@Z 00000001800072e0 f   itt_notify.obj
 0001:00006330       ?__itt_pt_region_createW_init_3_0@@YAEPEB_W@Z 0000000180007330 f   itt_notify.obj
 0001:00006380       ?__itt_frame_begin_init_3_0@@YAXPEAU__itt_frame_t@@@Z 0000000180007380 f   itt_notify.obj
 0001:000063d0       ?__itt_frame_end_init_3_0@@YAXPEAU__itt_frame_t@@@Z 00000001800073d0 f   itt_notify.obj
 0001:00006420       ?__itt_counter_destroy_init_3_0@@YAXPEAU___itt_counter@@@Z 0000000180007420 f   itt_notify.obj
 0001:00006470       ?__itt_counter_inc_init_3_0@@YAXPEAU___itt_counter@@@Z 0000000180007470 f   itt_notify.obj
 0001:000064c0       ?__itt_counter_inc_delta_init_3_0@@YAXPEAU___itt_counter@@_K@Z 00000001800074c0 f   itt_notify.obj
 0001:00006520       ?__itt_counter_dec_init_3_0@@YAXPEAU___itt_counter@@@Z 0000000180007520 f   itt_notify.obj
 0001:00006570       ?__itt_counter_dec_delta_init_3_0@@YAXPEAU___itt_counter@@_K@Z 0000000180007570 f   itt_notify.obj
 0001:000065d0       ?__itt_counter_set_value_init_3_0@@YAXPEAU___itt_counter@@PEAX@Z 00000001800075d0 f   itt_notify.obj
 0001:00006630       ?__itt_counter_set_value_ex_init_3_0@@YAXPEAU___itt_counter@@PEAU___itt_clock_domain@@_KPEAX@Z 0000000180007630 f   itt_notify.obj
 0001:000066b0       ?__itt_mark_createA_init_3_0@@YAHPEBD@Z 00000001800076b0 f   itt_notify.obj
 0001:00006700       ?__itt_mark_createW_init_3_0@@YAHPEB_W@Z 0000000180007700 f   itt_notify.obj
 0001:00006750       ?__itt_markA_init_3_0@@YAHHPEBD@Z 0000000180007750 f   itt_notify.obj
 0001:000067b0       ?__itt_markW_init_3_0@@YAHHPEB_W@Z 00000001800077b0 f   itt_notify.obj
 0001:00006810       ?__itt_mark_off_init_3_0@@YAHH@Z 0000000180007810 f   itt_notify.obj
 0001:00006860       ?__itt_mark_globalA_init_3_0@@YAHHPEBD@Z 0000000180007860 f   itt_notify.obj
 0001:000068c0       ?__itt_mark_globalW_init_3_0@@YAHHPEB_W@Z 00000001800078c0 f   itt_notify.obj
 0001:00006920       ?__itt_mark_global_off_init_3_0@@YAHH@Z 0000000180007920 f   itt_notify.obj
 0001:00006970       ?__itt_stack_caller_create_init_3_0@@YAPEAU___itt_caller@@XZ 0000000180007970 f   itt_notify.obj
 0001:000069c0       ?__itt_stack_caller_destroy_init_3_0@@YAXPEAU___itt_caller@@@Z 00000001800079c0 f   itt_notify.obj
 0001:00006a10       ?__itt_stack_callee_enter_init_3_0@@YAXPEAU___itt_caller@@@Z 0000000180007a10 f   itt_notify.obj
 0001:00006a60       ?__itt_stack_callee_leave_init_3_0@@YAXPEAU___itt_caller@@@Z 0000000180007a60 f   itt_notify.obj
 0001:00006ab0       ?__itt_clock_domain_create_init_3_0@@YAPEAU___itt_clock_domain@@P6AXPEAU___itt_clock_info@@PEAX@Z1@Z 0000000180007ab0 f   itt_notify.obj
 0001:00006b20       ?__itt_clock_domain_reset_init_3_0@@YAXXZ 0000000180007b20 f   itt_notify.obj
 0001:00006b70       ?__itt_id_create_ex_init_3_0@@YAXPEBU___itt_domain@@PEAU___itt_clock_domain@@_KU___itt_id@@@Z 0000000180007b70 f   itt_notify.obj
 0001:00006c00       ?__itt_id_destroy_ex_init_3_0@@YAXPEBU___itt_domain@@PEAU___itt_clock_domain@@_KU___itt_id@@@Z 0000000180007c00 f   itt_notify.obj
 0001:00006c90       ?__itt_task_begin_ex_init_3_0@@YAXPEBU___itt_domain@@PEAU___itt_clock_domain@@_KU___itt_id@@3PEAU___itt_string_handle@@@Z 0000000180007c90 f   itt_notify.obj
 0001:00006d50       ?__itt_task_begin_fn_ex_init_3_0@@YAXPEBU___itt_domain@@PEAU___itt_clock_domain@@_KU___itt_id@@3PEAX@Z 0000000180007d50 f   itt_notify.obj
 0001:00006e10       ?__itt_task_end_ex_init_3_0@@YAXPEBU___itt_domain@@PEAU___itt_clock_domain@@_K@Z 0000000180007e10 f   itt_notify.obj
 0001:00006e80       ?__itt_task_begin_overlapped_init_3_0@@YAXPEBU___itt_domain@@U___itt_id@@1PEAU___itt_string_handle@@@Z 0000000180007e80 f   itt_notify.obj
 0001:00006f30       ?__itt_task_begin_overlapped_ex_init_3_0@@YAXPEBU___itt_domain@@PEAU___itt_clock_domain@@_KU___itt_id@@3PEAU___itt_string_handle@@@Z 0000000180007f30 f   itt_notify.obj
 0001:00006ff0       ?__itt_task_end_overlapped_init_3_0@@YAXPEBU___itt_domain@@U___itt_id@@@Z 0000000180007ff0 f   itt_notify.obj
 0001:00007060       ?__itt_task_end_overlapped_ex_init_3_0@@YAXPEBU___itt_domain@@PEAU___itt_clock_domain@@_KU___itt_id@@@Z 0000000180008060 f   itt_notify.obj
 0001:000070f0       ?__itt_marker_ex_init_3_0@@YAXPEBU___itt_domain@@PEAU___itt_clock_domain@@_KU___itt_id@@PEAU___itt_string_handle@@W4__itt_scope@@@Z 00000001800080f0 f   itt_notify.obj
 0001:000071a0       ?__itt_metadata_add_with_scope_init_3_0@@YAXPEBU___itt_domain@@W4__itt_scope@@PEAU___itt_string_handle@@W4__itt_metadata_type@@_KPEAX@Z 00000001800081a0 f   itt_notify.obj
 0001:00007230       ?__itt_metadata_str_add_with_scopeA_init_3_0@@YAXPEBU___itt_domain@@W4__itt_scope@@PEAU___itt_string_handle@@PEBD_K@Z 0000000180008230 f   itt_notify.obj
 0001:000072b0       ?__itt_metadata_str_add_with_scopeW_init_3_0@@YAXPEBU___itt_domain@@W4__itt_scope@@PEAU___itt_string_handle@@PEB_W_K@Z 00000001800082b0 f   itt_notify.obj
 0001:00007330       ?__itt_relation_add_to_current_ex_init_3_0@@YAXPEBU___itt_domain@@PEAU___itt_clock_domain@@_KW4__itt_relation@@U___itt_id@@@Z 0000000180008330 f   itt_notify.obj
 0001:000073d0       ?__itt_relation_add_ex_init_3_0@@YAXPEBU___itt_domain@@PEAU___itt_clock_domain@@_KU___itt_id@@W4__itt_relation@@3@Z 00000001800083d0 f   itt_notify.obj
 0001:00007490       ?__itt_track_group_create_init_3_0@@YAPEAU___itt_track_group@@PEAU___itt_string_handle@@W4___itt_track_group_type@@@Z 0000000180008490 f   itt_notify.obj
 0001:000074f0       ?__itt_track_create_init_3_0@@YAPEAU___itt_track@@PEAU___itt_track_group@@PEAU___itt_string_handle@@W4___itt_track_type@@@Z 00000001800084f0 f   itt_notify.obj
 0001:00007570       ?__itt_set_track_init_3_0@@YAXPEAU___itt_track@@@Z 0000000180008570 f   itt_notify.obj
 0001:000075c0       ?__itt_api_version_init_3_0@@YAPEBDXZ 00000001800085c0 f   itt_notify.obj
 0001:00007610       ?__itt_av_saveA_init_3_0@@YAHPEAXHPEBHHPEBDH@Z 0000000180008610 f   itt_notify.obj
 0001:000076a0       ?__itt_av_saveW_init_3_0@@YAHPEAXHPEBHHPEB_WH@Z 00000001800086a0 f   itt_notify.obj
 0001:00007730       ?__itt_module_loadA_init_3_0@@YAXPEAX0PEBD@Z 0000000180008730 f   itt_notify.obj
 0001:000077a0       ?__itt_module_loadW_init_3_0@@YAXPEAX0PEB_W@Z 00000001800087a0 f   itt_notify.obj
 0001:00007810       ?__itt_report_error_impl@@YAXHZZ 0000000180008810 f   itt_notify.obj
 0001:00007840       ?__itt_domain_createW_init_3_0@@YAPEAU___itt_domain@@PEB_W@Z 0000000180008840 f   itt_notify.obj
 0001:000079b0       ?__itt_domain_createA_init_3_0@@YAPEAU___itt_domain@@PEBD@Z 00000001800089b0 f   itt_notify.obj
 0001:00007b10       ?__itt_string_handle_createW_init_3_0@@YAPEAU___itt_string_handle@@PEB_W@Z 0000000180008b10 f   itt_notify.obj
 0001:00007c80       ?__itt_string_handle_createA_init_3_0@@YAPEAU___itt_string_handle@@PEBD@Z 0000000180008c80 f   itt_notify.obj
 0001:00007de0       ?__itt_counter_createW_init_3_0@@YAPEAU___itt_counter@@PEB_W0@Z 0000000180008de0 f   itt_notify.obj
 0001:00007fb0       ?__itt_counter_createA_init_3_0@@YAPEAU___itt_counter@@PEBD0@Z 0000000180008fb0 f   itt_notify.obj
 0001:00008170       ?__itt_counter_create_typedW_init_3_0@@YAPEAU___itt_counter@@PEB_W0W4__itt_metadata_type@@@Z 0000000180009170 f   itt_notify.obj
 0001:00008350       ?__itt_counter_create_typedA_init_3_0@@YAPEAU___itt_counter@@PEBD0W4__itt_metadata_type@@@Z 0000000180009350 f   itt_notify.obj
 0001:00008500       ?__itt_pause_init_3_0@@YAXXZ 0000000180009500 f   itt_notify.obj
 0001:00008550       ?__itt_resume_init_3_0@@YAXXZ 0000000180009550 f   itt_notify.obj
 0001:000085a0       ?__itt_thread_set_nameW_init_3_0@@YAXPEB_W@Z 00000001800095a0 f   itt_notify.obj
 0001:000085f0       ?__itt_thr_name_setW_init_3_0@@YAHPEB_WH@Z 00000001800095f0 f   itt_notify.obj
 0001:00008640       ?__itt_thread_set_nameA_init_3_0@@YAXPEBD@Z 0000000180009640 f   itt_notify.obj
 0001:00008690       ?__itt_thr_name_setA_init_3_0@@YAHPEBDH@Z 0000000180009690 f   itt_notify.obj
 0001:000086e0       ?__itt_thr_ignore_init_3_0@@YAXXZ 00000001800096e0 f   itt_notify.obj
 0001:000086e0       ?__itt_thread_ignore_init_3_0@@YAXXZ 00000001800096e0 f   itt_notify.obj
 0001:00008730       ?__itt_get_env_var@@YAPEBDPEBD@Z 0000000180009730 f   itt_notify.obj
 0001:000087f0       ?__itt_get_groups@@YA?AW4___itt_group_id@@XZ 00000001800097f0 f   itt_notify.obj
 0001:00009200       ?DummyMalloc@internal@tbb@@YAPEAX_K@Z 000000018000a200 f   cache_aligned_allocator.obj
 0001:00009220       ?DummyFree@internal@tbb@@YAXPEAX@Z 000000018000a220 f   cache_aligned_allocator.obj
 0001:00009240       ?dummy_padded_allocate@internal@tbb@@YAPEAX_K0@Z 000000018000a240 f   cache_aligned_allocator.obj
 0001:00009270       ?dummy_padded_free@internal@tbb@@YAXPEAX@Z 000000018000a270 f   cache_aligned_allocator.obj
 0001:00009310       ?padded_allocate@internal@tbb@@YAPEAX_K0@Z 000000018000a310 f   cache_aligned_allocator.obj
 0001:00009350       ?padded_free@internal@tbb@@YAXPEAX@Z 000000018000a350 f   cache_aligned_allocator.obj
 0001:0000e2f0       ?dummy_allocate_binding_handler@internal@tbb@@YAPEAVbinding_handler@12@H@Z 000000018000f2f0 f i governor.obj
 0001:0000f3c8       $LN26                      00000001800103c8     tbb_misc.obj
 0001:0000f800       ?initialize_hardware_concurrency_info@internal@tbb@@YAXXZ 0000000180010800 f   tbb_misc_ex.obj
 0001:00010260       initialize_environment     0000000180011260 f   libucrt:initialization.obj
 0001:00010260       initialize_global_state_isolation 0000000180011260 f   libucrt:initialization.obj
 0001:00010260       report_memory_leaks        0000000180011260 f   libucrt:initialization.obj
 0001:00010260       uninitialize_c             0000000180011260 f   libucrt:initialization.obj
 0001:00010260       uninitialize_global_state_isolation 0000000180011260 f   libucrt:initialization.obj
 0001:0001e0b0       $$000000                   000000018001f0b0     atomic_support.obj
 0001:0001e100       $$000000                   000000018001f100     intel64_misc.obj
 0001:0001e110       $$000000                   000000018001f110     itsx.obj
 0001:0001e3b8       ??_G?$_ExceptionPtr_static@Vbad_alloc@std@@@?A0x13fc80ab@@UEAAPEAXI@Z 000000018001f3b8 f   libcpmt:excptptr.obj
 0001:0001e40c       ??_G?$_ExceptionPtr_static@Vbad_exception@std@@@?A0x13fc80ab@@UEAAPEAXI@Z 000000018001f40c f   libcpmt:excptptr.obj
 0001:0001e4dc       ??_G_ExceptionPtr_normal@?A0x13fc80ab@@UEAAPEAXI@Z 000000018001f4dc f   libcpmt:excptptr.obj
 0001:0001e548       ?_Assign_cpp_exception_ptr_from_record@?A0x13fc80ab@@YAXAEAV?$shared_ptr@$$CBU_EXCEPTION_RECORD@@@std@@AEBUEHExceptionRecord@@@Z 000000018001f548 f   libcpmt:excptptr.obj
 0001:0001e744       ?_Assign_seh_exception_ptr_from_record@?A0x13fc80ab@@YAXAEAV?$shared_ptr@$$CBU_EXCEPTION_RECORD@@@std@@AEBU_EXCEPTION_RECORD@@QEAX@Z 000000018001f744 f   libcpmt:excptptr.obj
 0001:0001e8e0       ?_CopyExceptionObject@?A0x13fc80ab@@YAXPEAXPEBXQEBU_s_CatchableType@@_K@Z 000000018001f8e0 f   libcpmt:excptptr.obj
 0001:0001e978       ?_Delete_this@_ExceptionPtr_normal@?A0x13fc80ab@@EEAAXXZ 000000018001f978 f   libcpmt:excptptr.obj
 0001:0001e988       ?_Destroy@_ExceptionPtr_normal@?A0x13fc80ab@@EEAAXXZ 000000018001f988 f   libcpmt:excptptr.obj
 0001:0001ea10       ?_PopulateCppExceptionRecord@?A0x13fc80ab@@YAXAEAU_EXCEPTION_RECORD@@QEBXPEBU_s_ThrowInfo@@@Z 000000018001fa10 f   libcpmt:excptptr.obj
 0001:0001ed94       ?initialize_pointers@@YAHXZ 000000018001fd94 f   libcpmt:winapisupp.obj
 0001:0001f220       $$000000                   0000000180020220     LIBCMT:amdsecgs.obj
 0001:0001f440       capture_current_context    0000000180020440 f   LIBCMT:gs_report.obj
 0001:0001f4b0       capture_previous_context   00000001800204b0 f   LIBCMT:gs_report.obj
 0001:0001f57c       ?__scrt_initialize_thread_safe_statics@@YAHXZ 000000018002057c f   LIBCMT:thread_safe_statics.obj
 0001:0001f64c       ?__scrt_uninitialize_thread_safe_statics@@YAXXZ 000000018002064c f   LIBCMT:thread_safe_statics.obj
 0001:0001fce4       ?<lambda_invoker_cdecl>@_Closure_wrapper_2b2123a0_2@@CAXQEAX@Z 0000000180020ce4 f   libvcruntime:std_type_info.obj
 0001:0001fcec       ?dllmain_crt_dispatch@@YAHQEAUHINSTANCE__@@KQEAX@Z 0000000180020cec f   LIBCMT:dll_dllmain.obj
 0001:0001fd3c       ?dllmain_crt_process_attach@@YAHQEAUHINSTANCE__@@QEAX@Z 0000000180020d3c f   LIBCMT:dll_dllmain.obj
 0001:0001fe54       ?dllmain_crt_process_detach@@YAH_N@Z 0000000180020e54 f   LIBCMT:dll_dllmain.obj
 0001:0001fed8       ?dllmain_dispatch@@YAHQEAUHINSTANCE__@@KQEAX@Z 0000000180020ed8 f   LIBCMT:dll_dllmain.obj
 0001:000200d0       $$000000                   00000001800210d0     LIBCMT:chkstk.obj
 0001:0002117c       ?<lambda_invoker_cdecl>@_Closure_wrapper_2b2123a0_1@@CAPEAX_K@Z 000000018002217c f   libvcruntime:std_type_info.obj
 0001:000213a4       ?FindMITargetTypeInstance@@YAPEBU_s_RTTIBaseClassDescriptor@@PEAXPEBU_s_RTTICompleteObjectLocator@@PEAUTypeDescriptor@@_J2_K@Z 00000001800223a4 f   libvcruntime:rtti.obj
 0001:0002152c       ?FindSITargetTypeInstance@@YAPEBU_s_RTTIBaseClassDescriptor@@PEBU_s_RTTICompleteObjectLocator@@PEAUTypeDescriptor@@1_K@Z 000000018002252c f   libvcruntime:rtti.obj
 0001:00021664       ?FindVITargetTypeInstance@@YAPEBU_s_RTTIBaseClassDescriptor@@PEAXPEBU_s_RTTICompleteObjectLocator@@PEAUTypeDescriptor@@_J2_K@Z 0000000180022664 f   libvcruntime:rtti.obj
 0001:00021b80       $$000000                   0000000180022b80     libvcruntime:memcpy.obj
 0001:00021f90       $$000000                   0000000180022f90     libvcruntime:memset.obj
 0001:00022680       ??$BuildCatchObjectHelperInternal@V__FrameHandler4@@@@YAHPEAUEHExceptionRecord@@PEAXPEAUHandlerType4@FH4@@PEBU_s_CatchableType@@@Z 0000000180023680 f   libvcruntime:frame.obj
 0001:00022884       ??$BuildCatchObjectInternal@V__FrameHandler4@@@@YAXPEAUEHExceptionRecord@@PEAXPEAUHandlerType4@FH4@@PEBU_s_CatchableType@@@Z 0000000180023884 f   libvcruntime:frame.obj
 0001:00022948       ??$CatchIt@V__FrameHandler4@@@@YAXPEAUEHExceptionRecord@@PEA_KPEAU_CONTEXT@@PEAU_xDISPATCHER_CONTEXT@@PEAUFuncInfo4@FH4@@PEAUHandlerType4@4@PEBU_s_CatchableType@@PEAUTryBlockMapEntry4@4@H1EE@Z 0000000180023948 f   libvcruntime:frame.obj
 0001:00022a1c       ??$FindHandler@V__FrameHandler4@@@@YAXPEAUEHExceptionRecord@@PEA_KPEAU_CONTEXT@@PEAU_xDISPATCHER_CONTEXT@@PEAUFuncInfo4@FH4@@EH1@Z 0000000180023a1c f   libvcruntime:frame.obj
 0001:00022f2c       ??$FindHandlerForForeignException@V__FrameHandler4@@@@YAXPEAUEHExceptionRecord@@PEA_KPEAU_CONTEXT@@PEAU_xDISPATCHER_CONTEXT@@PEAUFuncInfo4@FH4@@HH1@Z 0000000180023f2c f   libvcruntime:frame.obj
 0001:00023c60       ?ExFilterRethrow@@YAHPEAU_EXCEPTION_POINTERS@@PEAUEHExceptionRecord@@PEAH@Z 0000000180024c60 f   libvcruntime:frame.obj
 0001:00023ce8       ?ExFilterRethrowFH4@@YAHPEAU_EXCEPTION_POINTERS@@PEAUEHExceptionRecord@@HPEAH@Z 0000000180024ce8 f   libvcruntime:frame.obj
 0001:00024000       ?IsInExceptionSpec@@YAEPEAUEHExceptionRecord@@PEBU_s_ESTypeList@@@Z 0000000180025000 f   libvcruntime:frame.obj
 0001:000240ec       ?Is_bad_exception_allowed@@YAEPEBU_s_ESTypeList@@@Z 00000001800250ec f   libvcruntime:frame.obj
 0001:000248d4       ??1TrackRecursion@?1??getDecoratedName@UnDecorator@@CA?AVDName@@XZ@QEAA@XZ 00000001800258d4 f   libvcruntime:undname.obj
 0001:0002b9e0       $$000000                   000000018002c9e0     libvcruntime:notify.obj
 0001:0002bb00       ?try_get_function@@YAPEAXW4function_id@?A0x5302d918@@QEBDQEBW4module_id@2@2@Z 000000018002cb00 f   libvcruntime:winapi_downlevel.obj
 0001:0002bde0       $$000000                   000000018002cde0     libvcruntime:handlers.obj
 0001:0002c0d4       ??$thread_start@P6AIPEAX@Z$00@@YAKQEAX@Z 000000018002d0d4 f   libucrt:thread.obj
 0001:0002c13c       ?common_end_thread@@YAXI@Z 000000018002d13c f   libucrt:thread.obj
 0001:0002c1a0       ?create_thread_parameter@@YAPEAU__acrt_thread_parameter@@QEAX0@Z 000000018002d1a0 f   libucrt:thread.obj
 0001:0002c3b8       ??$?RV<lambda_d80eeec6fff315bfe5c115232f3240e3>@@AEAV<lambda_6e4b09c48022b2350581041d5f6b0c4c>@@V<lambda_2358e3775559c9db80273638284d5e45>@@@?$__crt_seh_guarded_call@X@@QEAAX$$QEAV<lambda_d80eeec6fff315bfe5c115232f3240e3>@@AEAV<lambda_6e4b09c48022b2350581041d5f6b0c4c>@@$$QEAV<lambda_2358e3775559c9db80273638284d5e45>@@@Z 000000018002d3b8 f   libucrt:exit.obj
 0001:0002c3f0       ??R<lambda_6e4b09c48022b2350581041d5f6b0c4c>@@QEBA@XZ 000000018002d3f0 f   libucrt:exit.obj
 0001:0002c4b4       ?atexit_exception_filter@@YAHK@Z 000000018002d4b4 f   libucrt:exit.obj
 0001:0002c4c0       ?common_exit@@YAXHW4_crt_exit_cleanup_mode@@W4_crt_exit_return_mode@@@Z 000000018002d4c0 f   libucrt:exit.obj
 0001:0002c57c       ?exit_or_terminate_process@@YAXI@Z 000000018002d57c f   libucrt:exit.obj
 0001:0002c5c8       ?try_cor_exit_process@@YAXI@Z 000000018002d5c8 f   libucrt:exit.obj
 0001:0002c804       ??$?RV<lambda_fe5404e9642edbb7c8ae71e1dcfa4018>@@AEAV<lambda_36eeb330e99a4f0bf8a7da86d0894cb9>@@V<lambda_2fa474834de80dc12f7a3c6eddd7a366>@@@?$__crt_seh_guarded_call@H@@QEAAH$$QEAV<lambda_fe5404e9642edbb7c8ae71e1dcfa4018>@@AEAV<lambda_36eeb330e99a4f0bf8a7da86d0894cb9>@@$$QEAV<lambda_2fa474834de80dc12f7a3c6eddd7a366>@@@Z 000000018002d804 f   libucrt:output.obj
 0001:0002c844       ??$common_vsprintf@Vformat_validation_base@__crt_stdio_output@@D@@YAH_KQEAD0QEBDQEAU__crt_locale_pointers@@1@Z 000000018002d844 f   libucrt:output.obj
 0001:0002ca10       ??$common_vsprintf@Vstandard_base@__crt_stdio_output@@D@@YAH_KQEAD0QEBDQEAU__crt_locale_pointers@@1@Z 000000018002da10 f   libucrt:output.obj
 0001:0002cf3c       ??R<lambda_36eeb330e99a4f0bf8a7da86d0894cb9>@@QEBAHXZ 000000018002df3c f   libucrt:output.obj
 0001:0002e298       $LN17                      000000018002f298     libucrt:output.obj
 0001:0002ede8       ??$?RV<lambda_842d9ff0dc9ef11c61343bbaebe7f885>@@AEAV<lambda_c5860995281e5c4ce005b3de8f5874ee>@@V<lambda_d90129c13df834fdcbf8d2b88dafcf2d>@@@?$__crt_seh_guarded_call@X@@QEAAX$$QEAV<lambda_842d9ff0dc9ef11c61343bbaebe7f885>@@AEAV<lambda_c5860995281e5c4ce005b3de8f5874ee>@@$$QEAV<lambda_d90129c13df834fdcbf8d2b88dafcf2d>@@@Z 000000018002fde8 f   libucrt:fflush.obj
 0001:0002ee84       ??$?RV<lambda_886d6c58226a84441f68b9f2b8217b83>@@AEAV<lambda_ab61a845afdef5b7c387490eaf3616ee>@@V<lambda_f7f22ab5edc0698d5f6905b0d3f44752>@@@?$__crt_seh_guarded_call@X@@QEAAX$$QEAV<lambda_886d6c58226a84441f68b9f2b8217b83>@@AEAV<lambda_ab61a845afdef5b7c387490eaf3616ee>@@$$QEAV<lambda_f7f22ab5edc0698d5f6905b0d3f44752>@@@Z 000000018002fe84 f   libucrt:fflush.obj
 0001:0002ef64       ??$?RV<lambda_c376a267cfb53b6959b3b692ec76b120>@@AEAV<lambda_9a32fed5bf61b6b509b2d3f6003082a1>@@V<lambda_572fbb9fa0ab338edf41edfd4b5fcc8d>@@@?$__crt_seh_guarded_call@H@@QEAAH$$QEAV<lambda_c376a267cfb53b6959b3b692ec76b120>@@AEAV<lambda_9a32fed5bf61b6b509b2d3f6003082a1>@@$$QEAV<lambda_572fbb9fa0ab338edf41edfd4b5fcc8d>@@@Z 000000018002ff64 f   libucrt:fflush.obj
 0001:0002efa4       ?common_flush_all@@YAH_N@Z 000000018002ffa4 f   libucrt:fflush.obj
 0001:0002f13c       ??$?RV<lambda_450d90ce9489cb83d667727298b1f467>@@AEAV<lambda_0bd0bd1e46f8138169959d81163ebf0c>@@V<lambda_e9ecde663af5bbd3dec5792d9ab5b194>@@@?$__crt_seh_guarded_call@H@@QEAAH$$QEAV<lambda_450d90ce9489cb83d667727298b1f467>@@AEAV<lambda_0bd0bd1e46f8138169959d81163ebf0c>@@$$QEAV<lambda_e9ecde663af5bbd3dec5792d9ab5b194>@@@Z 000000018003013c f   libucrt:fputs.obj
 0001:0002f17c       ??R<lambda_0bd0bd1e46f8138169959d81163ebf0c>@@QEBAHXZ 000000018003017c f   libucrt:fputs.obj
 0001:0002f3d0       $$000000                   00000001800303d0     libucrt:strncpy.obj
 0001:0002f544       fallbackMethod             0000000180030544 f   libucrt:strspn.obj
 0001:0002f924       $LN78                      0000000180030924     libucrt:strspn.obj
 0001:0002f960       $LN77                      0000000180030960     libucrt:strspn.obj
 0001:0002f9a0       $LN76                      00000001800309a0     libucrt:strspn.obj
 0001:0002f9e0       ??$common_getenv@D@@YAPEADQEBD@Z 00000001800309e0 f   libucrt:getenv.obj
 0001:0002fa40       ??$common_getenv_nolock@D@@YAPEADQEBD@Z 0000000180030a40 f   libucrt:getenv.obj
 0001:0002ff74       ??$parse_command_line@D@@YAXPEADPEAPEAD0PEA_K2@Z 0000000180030f74 f   libucrt:argv_parsing.obj
 0001:0003031c       ??$common_initialize_environment_nolock@D@@YAHXZ 000000018003131c f   libucrt:environment_initialization.obj
 0001:00030388       ??$create_environment@D@@YAQEAPEADQEAD@Z 0000000180031388 f   libucrt:environment_initialization.obj
 0001:00030490       ??$free_environment@D@@YAXQEAPEAD@Z 0000000180031490 f   libucrt:environment_initialization.obj
 0001:00030490       ??$free_environment@_W@@YAXQEAPEA_W@Z 0000000180031490 f   libucrt:environment_initialization.obj
 0001:000304d4       ??$initialize_environment_by_cloning_nolock@D@@YAHXZ 00000001800314d4 f   libucrt:environment_initialization.obj
 0001:000305a8       ??$uninitialize_environment_internal@D@@YAXAEAPEAPEAD@Z 00000001800315a8 f   libucrt:environment_initialization.obj
 0001:000305c4       ??$uninitialize_environment_internal@_W@@YAXAEAPEAPEA_W@Z 00000001800315c4 f   libucrt:environment_initialization.obj
 0001:0003065c       ??$?RV<lambda_638799b9deba96c50f710eeac98168cd>@@AEAV<lambda_22ebabd17bc4fa466a2aca6d8deb888d>@@V<lambda_a6f7d7db0129f75315ebf26d50c089f1>@@@?$__crt_seh_guarded_call@H@@QEAAH$$QEAV<lambda_638799b9deba96c50f710eeac98168cd>@@AEAV<lambda_22ebabd17bc4fa466a2aca6d8deb888d>@@$$QEAV<lambda_a6f7d7db0129f75315ebf26d50c089f1>@@@Z 000000018003165c f   libucrt:onexit.obj
 0001:00030698       ??$?RV<lambda_7777bce6b2f8c936911f934f8298dc43>@@AEAV<lambda_f03950bc5685219e0bcd2087efbe011e>@@V<lambda_3883c3dff614d5e0c5f61bb1ac94921c>@@@?$__crt_seh_guarded_call@H@@QEAAH$$QEAV<lambda_7777bce6b2f8c936911f934f8298dc43>@@AEAV<lambda_f03950bc5685219e0bcd2087efbe011e>@@$$QEAV<lambda_3883c3dff614d5e0c5f61bb1ac94921c>@@@Z 0000000180031698 f   libucrt:onexit.obj
 0001:000306d4       ??R<lambda_22ebabd17bc4fa466a2aca6d8deb888d>@@QEBAHXZ 00000001800316d4 f   libucrt:onexit.obj
 0001:00030884       ??R<lambda_f03950bc5685219e0bcd2087efbe011e>@@QEBAHXZ 0000000180031884 f   libucrt:onexit.obj
 0001:00030a58       initialize_global_variables 0000000180031a58 f   libucrt:initialization.obj
 0001:00030a6c       initialize_c               0000000180031a6c f   libucrt:initialization.obj
 0001:00030a90       uninitialize_environment   0000000180031a90 f   libucrt:initialization.obj
 0001:00030aa0       initialize_pointers        0000000180031aa0 f   libucrt:initialization.obj
 0001:00030ae0       uninitialize_vcruntime     0000000180031ae0 f   libucrt:initialization.obj
 0001:00030ae8       uninitialize_allocated_memory 0000000180031ae8 f   libucrt:initialization.obj
 0001:00030b28       uninitialize_allocated_io_buffers 0000000180031b28 f   libucrt:initialization.obj
 0001:000310c0       $$000000                   00000001800320c0     libucrt:strncmp.obj
 0001:000312fc       ??$?RV<lambda_0ae27a3a962d80f24befdcbee591983d>@@AEAV<lambda_8d0ee55de4b1038c4002e0adecdf1839>@@V<lambda_dc504788e8f1664fe9b84e20bfb512f2>@@@?$__crt_seh_guarded_call@X@@QEAAX$$QEAV<lambda_0ae27a3a962d80f24befdcbee591983d>@@AEAV<lambda_8d0ee55de4b1038c4002e0adecdf1839>@@$$QEAV<lambda_dc504788e8f1664fe9b84e20bfb512f2>@@@Z 00000001800322fc f   libucrt:per_thread_data.obj
 0001:0003133c       ??$?RV<lambda_2d41944a1d46af3157314b8a01080d33>@@AEAV<lambda_8f455de75cd7d7f24b4096f044d8b9e6>@@V<lambda_aa500f224e6afead328df44964fe2772>@@@?$__crt_seh_guarded_call@X@@QEAAX$$QEAV<lambda_2d41944a1d46af3157314b8a01080d33>@@AEAV<lambda_8f455de75cd7d7f24b4096f044d8b9e6>@@$$QEAV<lambda_aa500f224e6afead328df44964fe2772>@@@Z 000000018003233c f   libucrt:per_thread_data.obj
 0001:0003137c       ??$?RV<lambda_aa87e3671a710a21b5dc78c0bdf72e11>@@AEAV<lambda_92619d2358a28f41a33ba319515a20b9>@@V<lambda_6992ecaafeb10aed2b74cb1fae11a551>@@@?$__crt_seh_guarded_call@X@@QEAAX$$QEAV<lambda_aa87e3671a710a21b5dc78c0bdf72e11>@@AEAV<lambda_92619d2358a28f41a33ba319515a20b9>@@$$QEAV<lambda_6992ecaafeb10aed2b74cb1fae11a551>@@@Z 000000018003237c f   libucrt:per_thread_data.obj
 0001:000313c4       ??$?RV<lambda_f2e299630e499de9f9a165e60fcd3db5>@@AEAV<lambda_2ae9d31cdba2644fcbeaf08da7c24588>@@V<lambda_40d01ff24d0e7b3814fdbdcee8eab3c7>@@@?$__crt_seh_guarded_call@X@@QEAAX$$QEAV<lambda_f2e299630e499de9f9a165e60fcd3db5>@@AEAV<lambda_2ae9d31cdba2644fcbeaf08da7c24588>@@$$QEAV<lambda_40d01ff24d0e7b3814fdbdcee8eab3c7>@@@Z 00000001800323c4 f   libucrt:per_thread_data.obj
 0001:00031424       ?construct_ptd_array@@YAXQEAU__acrt_ptd@@@Z 0000000180032424 f   libucrt:per_thread_data.obj
 0001:000314f4       ?destroy_fls@@YAXPEAX@Z    00000001800324f4 f   libucrt:per_thread_data.obj
 0001:00031514       ?destroy_ptd_array@@YAXQEAU__acrt_ptd@@@Z 0000000180032514 f   libucrt:per_thread_data.obj
 0001:0003160c       ?replace_current_thread_locale_nolock@@YAXQEAU__acrt_ptd@@QEAU__crt_locale_data@@@Z 000000018003260c f   libucrt:per_thread_data.obj
 0001:00031960       ?try_get_function@@YAPEAXW4function_id@?A0x391cf84c@@QEBDQEBW4module_id@2@2@Z 0000000180032960 f   libucrt:winapi_thunks.obj
 0001:000322d4       ?initialize_inherited_file_handles_nolock@@YAXXZ 00000001800332d4 f   libucrt:ioinit.obj
 0001:000323c4       ?initialize_stdio_handles_nolock@@YAXXZ 00000001800333c4 f   libucrt:ioinit.obj
 0001:00032c2c       ?fp_format_a@@YAHQEBNPEAD_KQEAD2H_NIQEAU__crt_locale_pointers@@W4__acrt_rounding_mode@@@Z 0000000180033c2c f   libucrt:cvt.obj
 0001:00032fac       ?fp_format_e@@YAHQEBNQEAD_K12H_NIQEAU__crt_locale_pointers@@W4__acrt_rounding_mode@@@Z 0000000180033fac f   libucrt:cvt.obj
 0001:0003309c       ?fp_format_e_internal@@YAHQEAD_KH_NIQEAU_strflt@@2QEAU__crt_locale_pointers@@@Z 000000018003409c f   libucrt:cvt.obj
 0001:00033270       ?fp_format_f_internal@@YAHQEAD_KHQEAU_strflt@@_NQEAU__crt_locale_pointers@@@Z 0000000180034270 f   libucrt:cvt.obj
 0001:000333d8       ?fp_format_g@@YAHQEBNQEAD_K12H_NIQEAU__crt_locale_pointers@@@Z 00000001800343d8 f   libucrt:cvt.obj
 0001:00033518       ?should_round_up@@YA_NQEBN_KFW4__acrt_rounding_mode@@@Z 0000000180034518 f   libucrt:cvt.obj
 0001:00033b0c       ??$?RV<lambda_410d79af7f07d98d83a3f525b3859a53>@@AEAV<lambda_3e16ef9562a7dcce91392c22ab16ea36>@@V<lambda_38119f0e861e05405d8a144b9b982f0a>@@@?$__crt_seh_guarded_call@X@@QEAAX$$QEAV<lambda_410d79af7f07d98d83a3f525b3859a53>@@AEAV<lambda_3e16ef9562a7dcce91392c22ab16ea36>@@$$QEAV<lambda_38119f0e861e05405d8a144b9b982f0a>@@@Z 0000000180034b0c f   libucrt:wsetlocale.obj
 0001:00033bb8       ??$?RV<lambda_450d765d439847d4c735a33c368b5fc0>@@AEAV<lambda_44731a7d0e6d81c3e6aa82d741081786>@@V<lambda_601a2a7da3b7a96e9554ac7215c4b07c>@@@?$__crt_seh_guarded_call@P6AXH@Z@@QEAAP6AXH@Z$$QEAV<lambda_450d765d439847d4c735a33c368b5fc0>@@AEAV<lambda_44731a7d0e6d81c3e6aa82d741081786>@@$$QEAV<lambda_601a2a7da3b7a96e9554ac7215c4b07c>@@@Z 0000000180034bb8 f   libucrt:signal.obj
 0001:00033ebc       ??$?RV<lambda_a37b2b86f63e897a80ea819b0eb08c01>@@AEAV<lambda_38ce7e780aa69e748d6df282ebc68efe>@@V<lambda_99fb1378e971ab6e7edea83e3a7a83a2>@@@?$__crt_seh_guarded_call@H@@QEAAH$$QEAV<lambda_a37b2b86f63e897a80ea819b0eb08c01>@@AEAV<lambda_38ce7e780aa69e748d6df282ebc68efe>@@$$QEAV<lambda_99fb1378e971ab6e7edea83e3a7a83a2>@@@Z 0000000180034ebc f   libucrt:commit.obj
 0001:00033fdc       ?write_double_translated_ansi_nolock@@YA?AUwrite_result@?A0x17268360@@HQEBDI@Z 0000000180034fdc f   libucrt:write.obj
 0001:000344c8       ?write_text_ansi_nolock@@YA?AUwrite_result@?A0x17268360@@HQEBDI@Z 00000001800354c8 f   libucrt:write.obj
 0001:000345cc       ?write_text_utf16le_nolock@@YA?AUwrite_result@?A0x17268360@@HQEBDI@Z 00000001800355cc f   libucrt:write.obj
 0001:000346e8       ?write_text_utf8_nolock@@YA?AUwrite_result@?A0x17268360@@HQEBDI@Z 00000001800356e8 f   libucrt:write.obj
 0001:00034efc       ?<lambda_invoker_cdecl>@<lambda_a1ce4c8ae42411fd470c77163914f50e>@@CAHPEBX0@Z 0000000180035efc f   libucrt:argv_wildcards.obj
 0001:00035214       ??$common_expand_argv_wildcards@D@@YAHQEAPEADQEAPEAPEAD@Z 0000000180036214 f   libucrt:argv_wildcards.obj
 0001:00035420       ??$copy_and_add_argument_to_buffer@D@@YAHQEBD0_KAEAV?$argument_list@D@?A0x5f5c8891@@@Z 0000000180036420 f   libucrt:argv_wildcards.obj
 0001:000355a8       ??$expand_argument_wildcards@D@@YAHQEAD0AEAV?$argument_list@D@?A0x5f5c8891@@@Z 00000001800365a8 f   libucrt:argv_wildcards.obj
 0001:00035af4       ??$?RV<lambda_efdfa57d1f175319df784efa44bb7b81>@@AEAV<lambda_5f0a4c1567f8adc6734073e5d1e1b35c>@@V<lambda_2e8a7d3640ea6ccb4c2413664c2db6fd>@@@?$__crt_seh_guarded_call@X@@QEAAX$$QEAV<lambda_efdfa57d1f175319df784efa44bb7b81>@@AEAV<lambda_5f0a4c1567f8adc6734073e5d1e1b35c>@@$$QEAV<lambda_2e8a7d3640ea6ccb4c2413664c2db6fd>@@@Z 0000000180036af4 f   libucrt:mbctype.obj
 0001:00035cb0       ?getSystemCP@@YAHH@Z       0000000180036cb0 f   libucrt:mbctype.obj
 0001:00035d30       ?setSBCS@@YAXPEAU__crt_multibyte_data@@@Z 0000000180036d30 f   libucrt:mbctype.obj
 0001:00035dc0       ?setSBUpLow@@YAXPEAU__crt_multibyte_data@@@Z 0000000180036dc0 f   libucrt:mbctype.obj
 0001:00035fa4       ?setmbcp_internal@@YAHH_NQEAU__acrt_ptd@@QEAPEAU__crt_multibyte_data@@@Z 0000000180036fa4 f   libucrt:mbctype.obj
 0001:00036164       ?update_thread_multibyte_data_internal@@YAPEAU__crt_multibyte_data@@QEAU__acrt_ptd@@QEAPEAU1@@Z 0000000180037164 f   libucrt:mbctype.obj
 0001:00036554       ?x_ismbbtype_l@@YAHPEAU__crt_locale_pointers@@IHH@Z 0000000180037554 f   libucrt:ismbbyte.obj
 0001:00036818       ??$common_set_variable_in_environment_nolock@D@@YAHQEADH@Z 0000000180037818 f   libucrt:setenv.obj
 0001:00036b38       ??$copy_environment@D@@YAPEAPEADQEAPEAD@Z 0000000180037b38 f   libucrt:setenv.obj
 0001:00039270       memcpy_s                   000000018003a270 f   libucrt:cfout.obj
 0001:0003930c       ??$write_buffer_nolock@D@@YA_NDV__crt_stdio_stream@@@Z 000000018003a30c f   libucrt:_flsbuf.obj
 0001:000393f0       ?stream_is_at_end_of_file_nolock@@YA_NV__crt_stdio_stream@@@Z 000000018003a3f0 f   libucrt:_flsbuf.obj
 0001:000396fc       ?free_crt_array_internal@@YAXQEAPEBX_K@Z 000000018003a6fc f   libucrt:inittime.obj
 0001:000399ec       ??$common_lseek@_J@@YA_JH_JH@Z 000000018003a9ec f   libucrt:lseek.obj
 0001:00039adc       ??$common_lseek_nolock@_J@@YA_JH_JH@Z 000000018003aadc f   libucrt:lseek.obj
 0001:00039d5c       ?InternalCompareStringA@@YAHPEAU__crt_locale_pointers@@PEB_WKPEBDH2HH@Z 000000018003ad5c f   libucrt:comparestringa.obj
 0001:0003a4f0       fallbackMethod             000000018003b4f0 f   libucrt:strpbrk.obj
 0001:0003a89c       $LN78                      000000018003b89c     libucrt:strpbrk.obj
 0001:0003a8d8       $LN77                      000000018003b8d8     libucrt:strpbrk.obj
 0001:0003a918       $LN76                      000000018003b918     libucrt:strpbrk.obj
 0001:0003a9f4       ?__acrt_LCMapStringA_stat@@YAHPEAU__crt_locale_pointers@@PEB_WKPEBDHPEADHHH@Z 000000018003b9f4 f   libucrt:lcmapstringa.obj
 0001:0003ada4       ?initialize_multibyte@@YAHXZ 000000018003bda4 f   libucrt:multibyte_initializer.obj
 0001:0003b00c       ??$?RV<lambda_751a882b2c74d4b022dec766aa51a29a>@@AEAV<lambda_628dfdc04ba53c8bfc02c9951375f3f5>@@V<lambda_f6c7be5f7998530c34de24c7437d6b54>@@@?$__crt_seh_guarded_call@H@@QEAAH$$QEAV<lambda_751a882b2c74d4b022dec766aa51a29a>@@AEAV<lambda_628dfdc04ba53c8bfc02c9951375f3f5>@@$$QEAV<lambda_f6c7be5f7998530c34de24c7437d6b54>@@@Z 000000018003c00c f   libucrt:close.obj
 0001:0003b5d0       $$000000                   000000018003c5d0     libucrt:log10.obj
 0001:0003c0c8       common_control87           000000018003d0c8 f   libucrt:ieee.obj
 0001:0003c388       _call_matherr              000000018003d388 f   libucrt:libm_error.obj
 0001:0003c3f0       _exception_enabled         000000018003d3f0 f   libucrt:libm_error.obj
 0001:0003c680       _log_special_common        000000018003d680 f   libucrt:log_special.obj
 0001:0003c720       $$000000                   000000018003d720     libucrt:fpsr.obj
 0001:0003cd20       $$000000                   000000018003dd20     libvcruntime:memcmp.obj
 0001:0003ce80       $$000000                   000000018003de80     LIBCMT:guard_dispatch.obj
 0001:0003cea0       $$000000                   000000018003dea0     LIBCMT:guard_xfg_dispatch.obj
 0001:0003cec0       ?catch$1@?0??push@micro_queue@internal@tbb@@QEAAXPEBX_KAEAVconcurrent_queue_base_v3@23@W4copy_specifics@423@@Z@4HA 000000018003dec0 f   concurrent_queue.obj
 0001:0003cecd       __catch$?push@micro_queue@internal@tbb@@QEAAXPEBX_KAEAVconcurrent_queue_base_v3@23@W4copy_specifics@423@@Z$0 000000018003decd f   concurrent_queue.obj
 0001:0003cef5       ?catch$2@?0??push@micro_queue@internal@tbb@@QEAAXPEBX_KAEAVconcurrent_queue_base_v3@23@W4copy_specifics@423@@Z@4HA 000000018003def5 f   concurrent_queue.obj
 0001:0003cf02       __catch$?push@micro_queue@internal@tbb@@QEAAXPEBX_KAEAVconcurrent_queue_base_v3@23@W4copy_specifics@423@@Z$2 000000018003df02 f   concurrent_queue.obj
 0001:0003cf30       ?dtor$0@?0??pop@micro_queue@internal@tbb@@QEAA_NPEAX_KAEAVconcurrent_queue_base_v3@23@@Z@4HA 000000018003df30 f   concurrent_queue.obj
 0001:0003cf40       ?catch$0@?0??assign@micro_queue@internal@tbb@@QEAAAEAU123@AEBU123@AEAVconcurrent_queue_base_v3@23@W4copy_specifics@423@@Z@4HA 000000018003df40 f   concurrent_queue.obj
 0001:0003cf4d       __catch$?assign@micro_queue@internal@tbb@@QEAAAEAU123@AEBU123@AEAVconcurrent_queue_base_v3@23@W4copy_specifics@423@@Z$0 000000018003df4d f   concurrent_queue.obj
 0001:0003cf70       ?dtor$0@?0??internal_insert_item@concurrent_queue_base_v3@internal@tbb@@IEAAXPEBXW4copy_specifics@123@@Z@4HA 000000018003df70 f   concurrent_queue.obj
 0001:0003cf7c       ?catch$1@?0??internal_insert_item@concurrent_queue_base_v3@internal@tbb@@IEAAXPEBXW4copy_specifics@123@@Z@4HA 000000018003df7c f   concurrent_queue.obj
 0001:0003cf89       __catch$?internal_insert_item@concurrent_queue_base_v3@internal@tbb@@IEAAXPEBXW4copy_specifics@123@@Z$0 000000018003df89 f   concurrent_queue.obj
 0001:0003cfac       ?catch$2@?0??internal_insert_item@concurrent_queue_base_v3@internal@tbb@@IEAAXPEBXW4copy_specifics@123@@Z@4HA 000000018003dfac f   concurrent_queue.obj
 0001:0003cfb9       __catch$?internal_insert_item@concurrent_queue_base_v3@internal@tbb@@IEAAXPEBXW4copy_specifics@123@@Z$1 000000018003dfb9 f   concurrent_queue.obj
 0001:0003cfd0       ?dtor$0@?0??internal_pop@concurrent_queue_base_v3@internal@tbb@@IEAAXPEAX@Z@4HA 000000018003dfd0 f   concurrent_queue.obj
 0001:0003cfdc       ?catch$1@?0??internal_pop@concurrent_queue_base_v3@internal@tbb@@IEAAXPEAX@Z@4HA 000000018003dfdc f   concurrent_queue.obj
 0001:0003cfe9       __catch$?internal_pop@concurrent_queue_base_v3@internal@tbb@@IEAAXPEAX@Z$0 000000018003dfe9 f   concurrent_queue.obj
 0001:0003cffc       ?catch$2@?0??internal_pop@concurrent_queue_base_v3@internal@tbb@@IEAAXPEAX@Z@4HA 000000018003dffc f   concurrent_queue.obj
 0001:0003d009       __catch$?internal_pop@concurrent_queue_base_v3@internal@tbb@@IEAAXPEAX@Z$1 000000018003e009 f   concurrent_queue.obj
 0001:0003d020       ?dtor$0@?0??enable_segment@helper@concurrent_vector_base_v3@internal@tbb@@SA_KAEAV234@_K1_N@Z@4HA 000000018003e020 f   concurrent_vector.obj
 0001:0003d02c       ?dtor$1@?0??enable_segment@helper@concurrent_vector_base_v3@internal@tbb@@SA_KAEAV234@_K1_N@Z@4HA 000000018003e02c f   concurrent_vector.obj
 0001:0003d040       ?dtor$0@?0??internal_clear@concurrent_vector_base_v3@internal@tbb@@IEAA_KP6AXPEAX_K@Z@Z@4HA 000000018003e040 f   concurrent_vector.obj
 0001:0003d040       ?dtor$0@?0??internal_grow@concurrent_vector_base_v3@internal@tbb@@IEAAX_K00P6AXPEAXPEBX0@Z2@Z@4HA 000000018003e040 f   concurrent_vector.obj
 0001:0003d050       ?dtor$0@?0??internal_resize@concurrent_vector_base_v3@internal@tbb@@IEAAX_K00PEBXP6AXPEAX0@ZP6AX210@Z@Z@4HA 000000018003e050 f   concurrent_vector.obj
 0001:0003d05c       ?dtor$1@?0??internal_resize@concurrent_vector_base_v3@internal@tbb@@IEAAX_K00PEBXP6AXPEAX0@ZP6AX210@Z@Z@4HA 000000018003e05c f   concurrent_vector.obj
 0001:0003d070       ?catch$2@?0??internal_compact@concurrent_vector_base_v3@internal@tbb@@IEAAPEAX_KPEAXP6AX10@ZP6AX1PEBX0@Z@Z@4HA 000000018003e070 f   concurrent_vector.obj
 0001:0003d07d       __catch$?internal_compact@concurrent_vector_base_v3@internal@tbb@@IEAAPEAX_KPEAXP6AX10@ZP6AX1PEBX0@Z@Z$0 000000018003e07d f   concurrent_vector.obj
 0001:0003d0ec       ?dtor$0@?0??internal_compact@concurrent_vector_base_v3@internal@tbb@@IEAAPEAX_KPEAXP6AX10@ZP6AX1PEBX0@Z@Z@4HA 000000018003e0ec f   concurrent_vector.obj
 0001:0003d100       ?dtor$0@?0??push@?$task_stream@$02@internal@tbb@@QEAAXPEAVtask@3@HAEAVFastRandom@23@@Z@4HA 000000018003e100 f   arena.obj
 0001:0003d100       ?dtor$0@?0??global_market@market@internal@tbb@@CAAEAV123@_NI_K@Z@4HA 000000018003e100 f   market.obj
 0001:0003d100       ?dtor$0@?0??put_token@input_buffer@internal@tbb@@QEAA_NAEAUtask_info@23@_N@Z@4HA 000000018003e100 f   pipeline.obj
 0001:0003d100       ?dtor$0@?0??return_item@input_buffer@internal@tbb@@QEAA_NAEAUtask_info@23@_N@Z@4HA 000000018003e100 f   pipeline.obj
 0001:0003d100       ?dtor$0@?0??cleanup_master@generic_scheduler@internal@tbb@@QEAA_N_N@Z@4HA 000000018003e100 f   scheduler.obj
 0001:0003d100       ?dtor$0@?0??create_master@generic_scheduler@internal@tbb@@SAPEAV123@PEAVarena@23@@Z@4HA 000000018003e100 f   scheduler.obj
 0001:0003d110       ?dtor$0@?0??internal_process_item@thread_bound_filter@tbb@@AEAA?AW4result_type@12@_N@Z@4HA 000000018003e110 f   pipeline.obj
 0001:0003d110       ?dtor$2@?0??execute@pipeline_root_task@internal@tbb@@EEAAPEAVtask@3@XZ@4HA 000000018003e110 f   pipeline.obj
 0001:0003d110       ?dtor$0@?0??internal_create@global_control@interface9@tbb@@AEAAXXZ@4HA 000000018003e110 f   tbb_main.obj
 0001:0003d110       ?dtor$0@?0??internal_destroy@global_control@interface9@tbb@@AEAAXXZ@4HA 000000018003e110 f   tbb_main.obj
 0001:0003d120       ?dtor$0@?0??add_filter@pipeline@tbb@@QEAAXAEAVfilter@2@@Z@4HA 000000018003e120 f   pipeline.obj
 0001:0003d13d       ?dtor$1@?0??add_filter@pipeline@tbb@@QEAAXAEAVfilter@2@@Z@4HA 000000018003e13d f   pipeline.obj
 0001:0003d15a       ?dtor$2@?0??add_filter@pipeline@tbb@@QEAAXAEAVfilter@2@@Z@4HA 000000018003e15a f   pipeline.obj
 0001:0003d177       ?dtor$3@?0??add_filter@pipeline@tbb@@QEAAXAEAVfilter@2@@Z@4HA 000000018003e177 f   pipeline.obj
 0001:0003d1a0       ?dtor$0@?0??run@pipeline@tbb@@QEAAX_KAEAVtask_group_context@2@@Z@4HA 000000018003e1a0 f   pipeline.obj
 0001:0003d1b0       ?dtor$0@?0??run@pipeline@tbb@@QEAAX_K@Z@4HA 000000018003e1b0 f   pipeline.obj
 0001:0003d1c0       ?dtor$0@?0???$note_done@Vstage_task@internal@tbb@@@input_buffer@internal@tbb@@QEAAXKAEAVstage_task@12@@Z@4HA 000000018003e1c0 f   pipeline.obj
 0001:0003d1d0       ?dtor$0@?0??lock_read@reader_writer_lock@interface5@tbb@@QEAAXXZ@4HA 000000018003e1d0 f   reader_writer_lock.obj
 0001:0003d1e0       ?dtor$2@?0???0private_server@rml@internal@tbb@@QEAA@AEAVtbb_client@123@@Z@4HA 000000018003e1e0 f   private_server.obj
 0001:0003d1f0       ?catch$14@?0??register_pending_exception@task_group_context@tbb@@QEAAXXZ@4HA 000000018003e1f0 f   task_group_context.obj
 0001:0003d1ff       __catch$?register_pending_exception@task_group_context@tbb@@QEAAXXZ$0 000000018003e1ff f   task_group_context.obj
 0001:0003d2bb       ?dtor$0@?0??register_pending_exception@task_group_context@tbb@@QEAAXXZ@4HA 000000018003e2bb f   task_group_context.obj
 0001:0003d2c7       ?dtor$3@?0??register_pending_exception@task_group_context@tbb@@QEAAXXZ@4HA 000000018003e2c7 f   task_group_context.obj
 0001:0003d2d3       ?catch$15@?0??register_pending_exception@task_group_context@tbb@@QEAAXXZ@4HA 000000018003e2d3 f   task_group_context.obj
 0001:0003d2e5       __catch$?register_pending_exception@task_group_context@tbb@@QEAAXXZ$1 000000018003e2e5 f   task_group_context.obj
 0001:0003d3f2       ?dtor$6@?0??register_pending_exception@task_group_context@tbb@@QEAAXXZ@4HA 000000018003e3f2 f   task_group_context.obj
 0001:0003d3fe       ?catch$16@?0??register_pending_exception@task_group_context@tbb@@QEAAXXZ@4HA 000000018003e3fe f   task_group_context.obj
 0001:0003d40d       __catch$?register_pending_exception@task_group_context@tbb@@QEAAXXZ$2 000000018003e40d f   task_group_context.obj
 0001:0003d4f1       ?dtor$10@?0??register_pending_exception@task_group_context@tbb@@QEAAXXZ@4HA 000000018003e4f1 f   task_group_context.obj
 0001:0003d500       ?dtor$0@?0??initialization_impl@numa_topology@internal@tbb@@YAXXZ@4HA 000000018003e500 f   governor.obj
 0001:0003d510       ?dtor$0@?0??rethrow_exception@std@@YAXVexception_ptr@1@@Z@4HA 000000018003e510 f   arena.obj
 0001:0003d520       ?dtor$0@?0??notify_entry_observers@observer_list@internal@tbb@@QEAAXAEAPEAVobserver_proxy@23@_N@Z@4HA 000000018003e520 f   arena.obj
 0001:0003d520       ?dtor$0@?0??notify_exit_observers@observer_list@internal@tbb@@QEAAXAEAPEAVobserver_proxy@23@_N@Z@4HA 000000018003e520 f   arena.obj
 0001:0003d530       ?dtor$0@?0???0arena@internal@tbb@@QEAA@AEAVmarket@12@II@Z@4HA 000000018003e530 f   arena.obj
 0001:0003d53c       ?dtor$1@?0???0arena@internal@tbb@@QEAA@AEAVmarket@12@II@Z@4HA 000000018003e53c f   arena.obj
 0001:0003d580       ?dtor$1@?0??internal_initialize@task_arena_base@internal@interface7@tbb@@IEAAXXZ@4HA 000000018003e580 f   arena.obj
 0001:0003d59d       ?dtor$2@?0??internal_initialize@task_arena_base@internal@interface7@tbb@@IEAAXXZ@4HA 000000018003e59d f   arena.obj
 0001:0003d5b0       ?dtor$0@?0??execute@delegated_task@internal@interface7@tbb@@EEAAPEAVtask@4@XZ@4HA 000000018003e5b0 f   arena.obj
 0001:0003d5c0       ?dtor$1@?0??internal_execute@task_arena_base@internal@interface7@tbb@@IEBAXAEAVdelegate_base@234@@Z@4HA 000000018003e5c0 f   arena.obj
 0001:0003d5cc       ?dtor$2@?0??internal_execute@task_arena_base@internal@interface7@tbb@@IEBAXAEAVdelegate_base@234@@Z@4HA 000000018003e5cc f   arena.obj
 0001:0003d5d8       ?dtor$3@?0??internal_execute@task_arena_base@internal@interface7@tbb@@IEBAXAEAVdelegate_base@234@@Z@4HA 000000018003e5d8 f   arena.obj
 0001:0003d5e4       ?dtor$5@?0??internal_execute@task_arena_base@internal@interface7@tbb@@IEBAXAEAVdelegate_base@234@@Z@4HA 000000018003e5e4 f   arena.obj
 0001:0003d5f0       ?dtor$6@?0??internal_execute@task_arena_base@internal@interface7@tbb@@IEBAXAEAVdelegate_base@234@@Z@4HA 000000018003e5f0 f   arena.obj
 0001:0003d5fc       ?dtor$7@?0??internal_execute@task_arena_base@internal@interface7@tbb@@IEBAXAEAVdelegate_base@234@@Z@4HA 000000018003e5fc f   arena.obj
 0001:0003d608       ?catch$11@?0??internal_execute@task_arena_base@internal@interface7@tbb@@IEBAXAEAVdelegate_base@234@@Z@4HA 000000018003e608 f   arena.obj
 0001:0003d615       __catch$?internal_execute@task_arena_base@internal@interface7@tbb@@IEBAXAEAVdelegate_base@234@@Z$0 000000018003e615 f   arena.obj
 0001:0003d686       ?dtor$8@?0??internal_execute@task_arena_base@internal@interface7@tbb@@IEBAXAEAVdelegate_base@234@@Z@4HA 000000018003e686 f   arena.obj
 0001:0003d6a0       ?dtor$0@?0??internal_wait@task_arena_base@internal@interface7@tbb@@IEBAXXZ@4HA 000000018003e6a0 f   arena.obj
 0001:0003d6ac       ?dtor$1@?0??internal_wait@task_arena_base@internal@interface7@tbb@@IEBAXXZ@4HA 000000018003e6ac f   arena.obj
 0001:0003d6c0       ?dtor$0@?0??isolate_within_arena@internal@interface7@tbb@@YAXAEAVdelegate_base@123@_J@Z@4HA 000000018003e6c0 f   arena.obj
 0001:0003d6d0       ?dtor$0@?0???0generic_scheduler@internal@tbb@@IEAA@AEAVmarket@12@_N@Z@4HA 000000018003e6d0 f   scheduler.obj
 0001:0003d6e0       ?dtor$0@?0??local_spawn@generic_scheduler@internal@tbb@@QEAAXPEAVtask@3@AEAPEAV43@@Z@4HA 000000018003e6e0 f   scheduler.obj
 0001:0003d6f0       ?dtor$0@?0??spawn_root_and_wait@generic_scheduler@internal@tbb@@UEAAXAEAVtask@3@AEAPEAV43@@Z@4HA 000000018003e6f0 f   scheduler.obj
 0001:0003d700       ?dtor$0@?0??winnow_task_pool@generic_scheduler@internal@tbb@@QEAAPEAVtask@3@_J@Z@4HA 000000018003e700 f   scheduler.obj
 0001:0003d710       ?dtor$0@?0??reload_tasks@generic_scheduler@internal@tbb@@QEAAPEAVtask@3@AEAPEAV43@AEAPEAPEAV43@_J2@Z@4HA 000000018003e710 f   scheduler.obj
 0001:0003d720       ?dtor$0@?0??local_wait_for_all@?$custom_scheduler@UDefaultSchedulerTraits@internal@tbb@@@internal@tbb@@EEAAXAEAVtask@3@PEAV43@@Z@4HA 000000018003e720 f   scheduler.obj
 0001:0003d72c       ?catch$19@?0??local_wait_for_all@?$custom_scheduler@UDefaultSchedulerTraits@internal@tbb@@@internal@tbb@@EEAAXAEAVtask@3@PEAV43@@Z@4HA 000000018003e72c f   scheduler.obj
 0001:0003d73b       __catch$?local_wait_for_all@?$custom_scheduler@UDefaultSchedulerTraits@internal@tbb@@@internal@tbb@@EEAAXAEAVtask@3@PEAV43@@Z$2 000000018003e73b f   scheduler.obj
 0001:0003d817       ?dtor$3@?0??local_wait_for_all@?$custom_scheduler@UDefaultSchedulerTraits@internal@tbb@@@internal@tbb@@EEAAXAEAVtask@3@PEAV43@@Z@4HA 000000018003e817 f   scheduler.obj
 0001:0003d823       ?dtor$6@?0??local_wait_for_all@?$custom_scheduler@UDefaultSchedulerTraits@internal@tbb@@@internal@tbb@@EEAAXAEAVtask@3@PEAV43@@Z@4HA 000000018003e823 f   scheduler.obj
 0001:0003d82f       ?catch$20@?0??local_wait_for_all@?$custom_scheduler@UDefaultSchedulerTraits@internal@tbb@@@internal@tbb@@EEAAXAEAVtask@3@PEAV43@@Z@4HA 000000018003e82f f   scheduler.obj
 0001:0003d841       __catch$?local_wait_for_all@?$custom_scheduler@UDefaultSchedulerTraits@internal@tbb@@@internal@tbb@@EEAAXAEAVtask@3@PEAV43@@Z$3 000000018003e841 f   scheduler.obj
 0001:0003d969       ?dtor$9@?0??local_wait_for_all@?$custom_scheduler@UDefaultSchedulerTraits@internal@tbb@@@internal@tbb@@EEAAXAEAVtask@3@PEAV43@@Z@4HA 000000018003e969 f   scheduler.obj
 0001:0003d975       ?catch$21@?0??local_wait_for_all@?$custom_scheduler@UDefaultSchedulerTraits@internal@tbb@@@internal@tbb@@EEAAXAEAVtask@3@PEAV43@@Z@4HA 000000018003e975 f   scheduler.obj
 0001:0003d984       __catch$?local_wait_for_all@?$custom_scheduler@UDefaultSchedulerTraits@internal@tbb@@@internal@tbb@@EEAAXAEAVtask@3@PEAV43@@Z$4 000000018003e984 f   scheduler.obj
 0001:0003da8c       ?dtor$13@?0??local_wait_for_all@?$custom_scheduler@UDefaultSchedulerTraits@internal@tbb@@@internal@tbb@@EEAAXAEAVtask@3@PEAV43@@Z@4HA 000000018003ea8c f   scheduler.obj
 0001:0003daa0       ?dtor$0@?0??local_wait_for_all@?$custom_scheduler@UIntelSchedulerTraits@internal@tbb@@@internal@tbb@@EEAAXAEAVtask@3@PEAV43@@Z@4HA 000000018003eaa0 f   scheduler.obj
 0001:0003daac       ?catch$19@?0??local_wait_for_all@?$custom_scheduler@UIntelSchedulerTraits@internal@tbb@@@internal@tbb@@EEAAXAEAVtask@3@PEAV43@@Z@4HA 000000018003eaac f   scheduler.obj
 0001:0003dabb       __catch$?local_wait_for_all@?$custom_scheduler@UIntelSchedulerTraits@internal@tbb@@@internal@tbb@@EEAAXAEAVtask@3@PEAV43@@Z$2 000000018003eabb f   scheduler.obj
 0001:0003db97       ?dtor$3@?0??local_wait_for_all@?$custom_scheduler@UIntelSchedulerTraits@internal@tbb@@@internal@tbb@@EEAAXAEAVtask@3@PEAV43@@Z@4HA 000000018003eb97 f   scheduler.obj
 0001:0003dba3       ?dtor$6@?0??local_wait_for_all@?$custom_scheduler@UIntelSchedulerTraits@internal@tbb@@@internal@tbb@@EEAAXAEAVtask@3@PEAV43@@Z@4HA 000000018003eba3 f   scheduler.obj
 0001:0003dbaf       ?catch$20@?0??local_wait_for_all@?$custom_scheduler@UIntelSchedulerTraits@internal@tbb@@@internal@tbb@@EEAAXAEAVtask@3@PEAV43@@Z@4HA 000000018003ebaf f   scheduler.obj
 0001:0003dbc1       __catch$?local_wait_for_all@?$custom_scheduler@UIntelSchedulerTraits@internal@tbb@@@internal@tbb@@EEAAXAEAVtask@3@PEAV43@@Z$3 000000018003ebc1 f   scheduler.obj
 0001:0003dce9       ?dtor$9@?0??local_wait_for_all@?$custom_scheduler@UIntelSchedulerTraits@internal@tbb@@@internal@tbb@@EEAAXAEAVtask@3@PEAV43@@Z@4HA 000000018003ece9 f   scheduler.obj
 0001:0003dcf5       ?catch$21@?0??local_wait_for_all@?$custom_scheduler@UIntelSchedulerTraits@internal@tbb@@@internal@tbb@@EEAAXAEAVtask@3@PEAV43@@Z@4HA 000000018003ecf5 f   scheduler.obj
 0001:0003dd04       __catch$?local_wait_for_all@?$custom_scheduler@UIntelSchedulerTraits@internal@tbb@@@internal@tbb@@EEAAXAEAVtask@3@PEAV43@@Z$4 000000018003ed04 f   scheduler.obj
 0001:0003de0c       ?dtor$13@?0??local_wait_for_all@?$custom_scheduler@UIntelSchedulerTraits@internal@tbb@@@internal@tbb@@EEAAXAEAVtask@3@PEAV43@@Z@4HA 000000018003ee0c f   scheduler.obj
 0001:0003de20       ?dtor$0@?0??push@micro_queue@internal@tbb@@QEAAXPEBX_KAEAVconcurrent_queue_base@23@@Z@4HA 000000018003ee20 f   concurrent_queue_v2.obj
 0001:0003de30       ?dtor$0@?0??pop@micro_queue@internal@tbb@@QEAA_NPEAX_KAEAVconcurrent_queue_base@23@@Z@4HA 000000018003ee30 f   concurrent_queue_v2.obj
 0001:0003de3c       ?dtor$0@?0???$_Immortalize_impl@V?$_ExceptionPtr_static@Vbad_alloc@std@@@?A0x13fc80ab@@@std@@YAHPEAX0PEAPEAX@Z@4HA 000000018003ee3c f   libcpmt:excptptr.obj
 0001:0003de4f       ?dtor$1@?0???$_Immortalize_impl@V?$_ExceptionPtr_static@Vbad_alloc@std@@@?A0x13fc80ab@@@std@@YAHPEAX0PEAPEAX@Z@4HA 000000018003ee4f f   libcpmt:excptptr.obj
 0001:0003de4f       ?dtor$1@?0???$_Immortalize_impl@V?$_ExceptionPtr_static@Vbad_exception@std@@@?A0x13fc80ab@@@std@@YAHPEAX0PEAPEAX@Z@4HA 000000018003ee4f f   libcpmt:excptptr.obj
 0001:0003de5b       ?dtor$0@?0???$_Immortalize_impl@V?$_ExceptionPtr_static@Vbad_exception@std@@@?A0x13fc80ab@@@std@@YAHPEAX0PEAPEAX@Z@4HA 000000018003ee5b f   libcpmt:excptptr.obj
 0001:0003de6e       ?dtor$0@?0???0bad_exception@std@@QEAA@AEBV01@@Z@4HA 000000018003ee6e f   libcpmt:excptptr.obj
 0001:0003de6e       ?dtor$0@?0???1bad_exception@std@@UEAA@XZ@4HA 000000018003ee6e f   libcpmt:excptptr.obj
 0001:0003de6e       ?dtor$0@?0???_Gbad_exception@std@@UEAAPEAXI@Z@4HA 000000018003ee6e f   libcpmt:excptptr.obj
 0001:0003de6e       ?dtor$1@?0???_G?$_ExceptionPtr_static@Vbad_alloc@std@@@?A0x13fc80ab@@UEAAPEAXI@Z@4HA 000000018003ee6e f   libcpmt:excptptr.obj
 0001:0003de6e       ?dtor$1@?0???_G?$_ExceptionPtr_static@Vbad_exception@std@@@?A0x13fc80ab@@UEAAPEAXI@Z@4HA 000000018003ee6e f   libcpmt:excptptr.obj
 0001:0003de7a       ?dtor$0@?0???0bad_exception@std@@QEAA@XZ@4HA 000000018003ee7a f   libcpmt:excptptr.obj
 0001:0003de86       ?dtor$0@?0???4?$shared_ptr@$$CBU_EXCEPTION_RECORD@@@std@@QEAAAEAV01@$$QEAV01@@Z@4HA 000000018003ee86 f   libcpmt:excptptr.obj
 0001:0003de92       ?dtor$0@?0???_G?$_ExceptionPtr_static@Vbad_alloc@std@@@?A0x13fc80ab@@UEAAPEAXI@Z@4HA 000000018003ee92 f   libcpmt:excptptr.obj
 0001:0003dea5       ?dtor$0@?0???_G?$_ExceptionPtr_static@Vbad_exception@std@@@?A0x13fc80ab@@UEAAPEAXI@Z@4HA 000000018003eea5 f   libcpmt:excptptr.obj
 0001:0003deb8       ?dtor$4@?0??_Assign_cpp_exception_ptr_from_record@?A0x13fc80ab@@YAXAEAV?$shared_ptr@$$CBU_EXCEPTION_RECORD@@@std@@AEBUEHExceptionRecord@@@Z@4HA 000000018003eeb8 f   libcpmt:excptptr.obj
 0001:0003dede       ?dtor$5@?0??_Assign_cpp_exception_ptr_from_record@?A0x13fc80ab@@YAXAEAV?$shared_ptr@$$CBU_EXCEPTION_RECORD@@@std@@AEBUEHExceptionRecord@@@Z@4HA 000000018003eede f   libcpmt:excptptr.obj
 0001:0003df04       ?dtor$6@?0??_Assign_cpp_exception_ptr_from_record@?A0x13fc80ab@@YAXAEAV?$shared_ptr@$$CBU_EXCEPTION_RECORD@@@std@@AEBUEHExceptionRecord@@@Z@4HA 000000018003ef04 f   libcpmt:excptptr.obj
 0001:0003df2a       ?dtor$7@?0??_Assign_cpp_exception_ptr_from_record@?A0x13fc80ab@@YAXAEAV?$shared_ptr@$$CBU_EXCEPTION_RECORD@@@std@@AEBUEHExceptionRecord@@@Z@4HA 000000018003ef2a f   libcpmt:excptptr.obj
 0001:0003df50       ?catch$8@?0??_Assign_cpp_exception_ptr_from_record@?A0x13fc80ab@@YAXAEAV?$shared_ptr@$$CBU_EXCEPTION_RECORD@@@std@@AEBUEHExceptionRecord@@@Z@4HA 000000018003ef50 f   libcpmt:excptptr.obj
 0001:0003df5e       __catch$?_Assign_cpp_exception_ptr_from_record@?A0x13fc80ab@@YAXAEAV?$shared_ptr@$$CBU_EXCEPTION_RECORD@@@std@@AEBUEHExceptionRecord@@@Z$1 000000018003ef5e f   libcpmt:excptptr.obj
 0001:0003e02d       ?catch$9@?0??_Assign_cpp_exception_ptr_from_record@?A0x13fc80ab@@YAXAEAV?$shared_ptr@$$CBU_EXCEPTION_RECORD@@@std@@AEBUEHExceptionRecord@@@Z@4HA 000000018003f02d f   libcpmt:excptptr.obj
 0001:0003e043       __catch$?_Assign_cpp_exception_ptr_from_record@?A0x13fc80ab@@YAXAEAV?$shared_ptr@$$CBU_EXCEPTION_RECORD@@@std@@AEBUEHExceptionRecord@@@Z$0 000000018003f043 f   libcpmt:excptptr.obj
 0001:0003e376       ?dtor$1@?0??_Assign_seh_exception_ptr_from_record@?A0x13fc80ab@@YAXAEAV?$shared_ptr@$$CBU_EXCEPTION_RECORD@@@std@@AEBU_EXCEPTION_RECORD@@QEAX@Z@4HA 000000018003f376 f   libcpmt:excptptr.obj
 0001:0003e39c       ?fin$0@?0???_M@YAXPEAX_K1P6AX0@Z@Z@4HA 000000018003f39c f   LIBCMT:ehvecdtr.obj
 0001:0003e3c8       ?filt$0@?0??__ArrayUnwind@@YAXPEAX_K1P6AX0@Z@Z@4HA 000000018003f3c8 f   LIBCMT:ehvecdtr.obj
 0001:0003e427       ?fin$0@?0???_L@YAXPEAX_K1P6AX0@Z2@Z@4HA 000000018003f427 f   LIBCMT:ehvecctr.obj
 0001:0003e453       __scrt_is_nonwritable_in_current_image$filt$0 000000018003f453 f   LIBCMT:utility.obj
 0001:0003e46b       ?fin$0@?0??dllmain_crt_process_attach@@YAHQEAUHINSTANCE__@@QEAX@Z@4HA 000000018003f46b f   LIBCMT:dll_dllmain.obj
 0001:0003e482       ?fin$0@?0??dllmain_crt_process_detach@@YAH_N@Z@4HA 000000018003f482 f   LIBCMT:dll_dllmain.obj
 0001:0003e49b       ?fin$1@?0??dllmain_crt_process_detach@@YAH_N@Z@4HA 000000018003f49b f   LIBCMT:dll_dllmain.obj
 0001:0003e4af       ?filt$0@?0??dllmain_dispatch@@YAHQEAUHINSTANCE__@@KQEAX@Z@4HA 000000018003f4af f   LIBCMT:dll_dllmain.obj
 0001:0003e4e5       ?filt$0@?0???$_CallSETranslator@V__FrameHandler4@@@@YAHPEAUEHExceptionRecord@@PEA_KPEAU_CONTEXT@@PEAU_xDISPATCHER_CONTEXT@@PEAUFuncInfo4@FH4@@K1H@Z@4HA 000000018003f4e5 f   libvcruntime:risctrnsctrl.obj
 0001:0003e584       __DestructExceptionObject$filt$0 000000018003f584 f   libvcruntime:ehhelpers.obj
 0001:0003e61a       __RTDynamicCast$filt$0     000000018003f61a f   libvcruntime:rtti.obj
 0001:0003e640       _IsNonwritableInCurrentImage$filt$0 000000018003f640 f   LIBCMT:pesect.obj
 0001:0003e640       __RTtypeid$filt$0          000000018003f640 f   libvcruntime:rtti.obj
 0001:0003e660       ?filt$0@?0??CxxCallCatchBlock@__FrameHandler4@@SAPEAXPEAU_EXCEPTION_RECORD@@@Z@4HA 000000018003f660 f   libvcruntime:frame.obj
 0001:0003e68f       ?fin$1@?0??CxxCallCatchBlock@__FrameHandler4@@SAPEAXPEAU_EXCEPTION_RECORD@@@Z@4HA 000000018003f68f f   libvcruntime:frame.obj
 0001:0003e712       ?filt$0@?0??FrameUnwindToState@__FrameHandler4@@SAXPEA_KPEAU_xDISPATCHER_CONTEXT@@PEAUFuncInfo4@FH4@@H@Z@4HA 000000018003f712 f   libvcruntime:frame.obj
 0001:0003e728       ?fin$1@?0??FrameUnwindToState@__FrameHandler4@@SAXPEA_KPEAU_xDISPATCHER_CONTEXT@@PEAUFuncInfo4@FH4@@H@Z@4HA 000000018003f728 f   libvcruntime:frame.obj
 0001:0003e74b       ?dtor$0@?0??getDecoratedName@UnDecorator@@CA?AVDName@@XZ@4HA 000000018003f74b f   libvcruntime:undname.obj
 0001:0003e757       __unDNameEx$fin$0          000000018003f757 f   libvcruntime:undname.obj
 0001:0003e76d       ?filt$0@?0???$thread_start@P6AIPEAX@Z$00@@YAKQEAX@Z@4HA 000000018003f76d f   libucrt:thread.obj
 0001:0003e78b       ?fin$0@?0???$?RV<lambda_0ae27a3a962d80f24befdcbee591983d>@@AEAV<lambda_8d0ee55de4b1038c4002e0adecdf1839>@@V<lambda_dc504788e8f1664fe9b84e20bfb512f2>@@@?$__crt_seh_guarded_call@X@@QEAAX$$QEAV<lambda_0ae27a3a962d80f24befdcbee591983d>@@AEAV<lambda_8d0ee55de4b1038c4002e0adecdf1839>@@$$QEAV<lambda_dc504788e8f1664fe9b84e20bfb512f2>@@@Z@4HA 000000018003f78b f   libucrt:per_thread_data.obj
 0001:0003e78b       ?fin$0@?0???$?RV<lambda_2d41944a1d46af3157314b8a01080d33>@@AEAV<lambda_8f455de75cd7d7f24b4096f044d8b9e6>@@V<lambda_aa500f224e6afead328df44964fe2772>@@@?$__crt_seh_guarded_call@X@@QEAAX$$QEAV<lambda_2d41944a1d46af3157314b8a01080d33>@@AEAV<lambda_8f455de75cd7d7f24b4096f044d8b9e6>@@$$QEAV<lambda_aa500f224e6afead328df44964fe2772>@@@Z@4HA 000000018003f78b f   libucrt:per_thread_data.obj
 0001:0003e78b       ?fin$0@?0???$?RV<lambda_aa87e3671a710a21b5dc78c0bdf72e11>@@AEAV<lambda_92619d2358a28f41a33ba319515a20b9>@@V<lambda_6992ecaafeb10aed2b74cb1fae11a551>@@@?$__crt_seh_guarded_call@X@@QEAAX$$QEAV<lambda_aa87e3671a710a21b5dc78c0bdf72e11>@@AEAV<lambda_92619d2358a28f41a33ba319515a20b9>@@$$QEAV<lambda_6992ecaafeb10aed2b74cb1fae11a551>@@@Z@4HA 000000018003f78b f   libucrt:per_thread_data.obj
 0001:0003e78b       ?fin$0@?0???$?RV<lambda_f2e299630e499de9f9a165e60fcd3db5>@@AEAV<lambda_2ae9d31cdba2644fcbeaf08da7c24588>@@V<lambda_40d01ff24d0e7b3814fdbdcee8eab3c7>@@@?$__crt_seh_guarded_call@X@@QEAAX$$QEAV<lambda_f2e299630e499de9f9a165e60fcd3db5>@@AEAV<lambda_2ae9d31cdba2644fcbeaf08da7c24588>@@$$QEAV<lambda_40d01ff24d0e7b3814fdbdcee8eab3c7>@@@Z@4HA 000000018003f78b f   libucrt:per_thread_data.obj
 0001:0003e78b       ?fin$0@?0???$?RV<lambda_efdfa57d1f175319df784efa44bb7b81>@@AEAV<lambda_5f0a4c1567f8adc6734073e5d1e1b35c>@@V<lambda_2e8a7d3640ea6ccb4c2413664c2db6fd>@@@?$__crt_seh_guarded_call@X@@QEAAX$$QEAV<lambda_efdfa57d1f175319df784efa44bb7b81>@@AEAV<lambda_5f0a4c1567f8adc6734073e5d1e1b35c>@@$$QEAV<lambda_2e8a7d3640ea6ccb4c2413664c2db6fd>@@@Z@4HA 000000018003f78b f   libucrt:mbctype.obj
 0001:0003e78b       ?fin$0@?0???$?RV<lambda_450d765d439847d4c735a33c368b5fc0>@@AEAV<lambda_44731a7d0e6d81c3e6aa82d741081786>@@V<lambda_601a2a7da3b7a96e9554ac7215c4b07c>@@@?$__crt_seh_guarded_call@P6AXH@Z@@QEAAP6AXH@Z$$QEAV<lambda_450d765d439847d4c735a33c368b5fc0>@@AEAV<lambda_44731a7d0e6d81c3e6aa82d741081786>@@$$QEAV<lambda_601a2a7da3b7a96e9554ac7215c4b07c>@@@Z@4HA 000000018003f78b f   libucrt:signal.obj
 0001:0003e78b       ?fin$0@?0???$?RV<lambda_d80eeec6fff315bfe5c115232f3240e3>@@AEAV<lambda_6e4b09c48022b2350581041d5f6b0c4c>@@V<lambda_2358e3775559c9db80273638284d5e45>@@@?$__crt_seh_guarded_call@X@@QEAAX$$QEAV<lambda_d80eeec6fff315bfe5c115232f3240e3>@@AEAV<lambda_6e4b09c48022b2350581041d5f6b0c4c>@@$$QEAV<lambda_2358e3775559c9db80273638284d5e45>@@@Z@4HA 000000018003f78b f   libucrt:exit.obj
 0001:0003e78b       ?fin$0@?0???$?RV<lambda_638799b9deba96c50f710eeac98168cd>@@AEAV<lambda_22ebabd17bc4fa466a2aca6d8deb888d>@@V<lambda_a6f7d7db0129f75315ebf26d50c089f1>@@@?$__crt_seh_guarded_call@H@@QEAAH$$QEAV<lambda_638799b9deba96c50f710eeac98168cd>@@AEAV<lambda_22ebabd17bc4fa466a2aca6d8deb888d>@@$$QEAV<lambda_a6f7d7db0129f75315ebf26d50c089f1>@@@Z@4HA 000000018003f78b f   libucrt:onexit.obj
 0001:0003e78b       ?fin$0@?0???$?RV<lambda_7777bce6b2f8c936911f934f8298dc43>@@AEAV<lambda_f03950bc5685219e0bcd2087efbe011e>@@V<lambda_3883c3dff614d5e0c5f61bb1ac94921c>@@@?$__crt_seh_guarded_call@H@@QEAAH$$QEAV<lambda_7777bce6b2f8c936911f934f8298dc43>@@AEAV<lambda_f03950bc5685219e0bcd2087efbe011e>@@$$QEAV<lambda_3883c3dff614d5e0c5f61bb1ac94921c>@@@Z@4HA 000000018003f78b f   libucrt:onexit.obj
 0001:0003e7a5       ?filt$0@?0???R<lambda_6e4b09c48022b2350581041d5f6b0c4c>@@QEBA@XZ@4HA 000000018003f7a5 f   libucrt:exit.obj
 0001:0003e7c0       ?fin$0@?0???$?RV<lambda_842d9ff0dc9ef11c61343bbaebe7f885>@@AEAV<lambda_c5860995281e5c4ce005b3de8f5874ee>@@V<lambda_d90129c13df834fdcbf8d2b88dafcf2d>@@@?$__crt_seh_guarded_call@X@@QEAAX$$QEAV<lambda_842d9ff0dc9ef11c61343bbaebe7f885>@@AEAV<lambda_c5860995281e5c4ce005b3de8f5874ee>@@$$QEAV<lambda_d90129c13df834fdcbf8d2b88dafcf2d>@@@Z@4HA 000000018003f7c0 f   libucrt:fflush.obj
 0001:0003e7c0       ?fin$0@?0???$?RV<lambda_c376a267cfb53b6959b3b692ec76b120>@@AEAV<lambda_9a32fed5bf61b6b509b2d3f6003082a1>@@V<lambda_572fbb9fa0ab338edf41edfd4b5fcc8d>@@@?$__crt_seh_guarded_call@H@@QEAAH$$QEAV<lambda_c376a267cfb53b6959b3b692ec76b120>@@AEAV<lambda_9a32fed5bf61b6b509b2d3f6003082a1>@@$$QEAV<lambda_572fbb9fa0ab338edf41edfd4b5fcc8d>@@@Z@4HA 000000018003f7c0 f   libucrt:fflush.obj
 0001:0003e7c0       ?fin$0@?0???$?RV<lambda_450d90ce9489cb83d667727298b1f467>@@AEAV<lambda_0bd0bd1e46f8138169959d81163ebf0c>@@V<lambda_e9ecde663af5bbd3dec5792d9ab5b194>@@@?$__crt_seh_guarded_call@H@@QEAAH$$QEAV<lambda_450d90ce9489cb83d667727298b1f467>@@AEAV<lambda_0bd0bd1e46f8138169959d81163ebf0c>@@$$QEAV<lambda_e9ecde663af5bbd3dec5792d9ab5b194>@@@Z@4HA 000000018003f7c0 f   libucrt:fputs.obj
 0001:0003e7c0       ?fin$0@?0???$?RV<lambda_fe5404e9642edbb7c8ae71e1dcfa4018>@@AEAV<lambda_36eeb330e99a4f0bf8a7da86d0894cb9>@@V<lambda_2fa474834de80dc12f7a3c6eddd7a366>@@@?$__crt_seh_guarded_call@H@@QEAAH$$QEAV<lambda_fe5404e9642edbb7c8ae71e1dcfa4018>@@AEAV<lambda_36eeb330e99a4f0bf8a7da86d0894cb9>@@$$QEAV<lambda_2fa474834de80dc12f7a3c6eddd7a366>@@@Z@4HA 000000018003f7c0 f   libucrt:output.obj
 0001:0003e7db       ?fin$0@?0???$?RV<lambda_886d6c58226a84441f68b9f2b8217b83>@@AEAV<lambda_ab61a845afdef5b7c387490eaf3616ee>@@V<lambda_f7f22ab5edc0698d5f6905b0d3f44752>@@@?$__crt_seh_guarded_call@X@@QEAAX$$QEAV<lambda_886d6c58226a84441f68b9f2b8217b83>@@AEAV<lambda_ab61a845afdef5b7c387490eaf3616ee>@@$$QEAV<lambda_f7f22ab5edc0698d5f6905b0d3f44752>@@@Z@4HA 000000018003f7db f   libucrt:fflush.obj
 0001:0003e7f8       ?fin$0@?0???$common_getenv@D@@YAPEADQEBD@Z@4HA 000000018003f7f8 f   libucrt:getenv.obj
 0001:0003e811       _query_new_handler$fin$0   000000018003f811 f   libucrt:new_handler.obj
 0001:0003e827       _fcloseall$fin$0           000000018003f827 f   libucrt:closeall.obj
 0001:0003e840       __acrt_initialize_lowio$fin$0 000000018003f840 f   libucrt:ioinit.obj
 0001:0003e840       __acrt_lowio_ensure_fh_exists$fin$0 000000018003f840 f   libucrt:osfinfo.obj
 0001:0003e859       ?fin$0@?0???$?RV<lambda_410d79af7f07d98d83a3f525b3859a53>@@AEAV<lambda_3e16ef9562a7dcce91392c22ab16ea36>@@V<lambda_38119f0e861e05405d8a144b9b982f0a>@@@?$__crt_seh_guarded_call@X@@QEAAX$$QEAV<lambda_410d79af7f07d98d83a3f525b3859a53>@@AEAV<lambda_3e16ef9562a7dcce91392c22ab16ea36>@@$$QEAV<lambda_38119f0e861e05405d8a144b9b982f0a>@@@Z@4HA 000000018003f859 f   libucrt:wsetlocale.obj
 0001:0003e873       raise$fin$0                000000018003f873 f   libucrt:signal.obj
 0001:0003e894       ?fin$0@?0???$?RV<lambda_751a882b2c74d4b022dec766aa51a29a>@@AEAV<lambda_628dfdc04ba53c8bfc02c9951375f3f5>@@V<lambda_f6c7be5f7998530c34de24c7437d6b54>@@@?$__crt_seh_guarded_call@H@@QEAAH$$QEAV<lambda_751a882b2c74d4b022dec766aa51a29a>@@AEAV<lambda_628dfdc04ba53c8bfc02c9951375f3f5>@@$$QEAV<lambda_f6c7be5f7998530c34de24c7437d6b54>@@@Z@4HA 000000018003f894 f   libucrt:close.obj
 0001:0003e894       ?fin$0@?0???$?RV<lambda_a37b2b86f63e897a80ea819b0eb08c01>@@AEAV<lambda_38ce7e780aa69e748d6df282ebc68efe>@@V<lambda_99fb1378e971ab6e7edea83e3a7a83a2>@@@?$__crt_seh_guarded_call@H@@QEAAH$$QEAV<lambda_a37b2b86f63e897a80ea819b0eb08c01>@@AEAV<lambda_38ce7e780aa69e748d6df282ebc68efe>@@$$QEAV<lambda_99fb1378e971ab6e7edea83e3a7a83a2>@@@Z@4HA 000000018003f894 f   libucrt:commit.obj
 0001:0003e8ae       ?fin$0@?0???$common_lseek@_J@@YA_JH_JH@Z@4HA 000000018003f8ae f   libucrt:lseek.obj
 0001:0003e8ae       _write$fin$0               000000018003f8ae f   libucrt:write.obj
 0001:0003e8c5       ?fin$0@?0??update_thread_multibyte_data_internal@@YAPEAU__crt_multibyte_data@@QEAU__acrt_ptd@@QEAPEAU1@@Z@4HA 000000018003f8c5 f   libucrt:mbctype.obj
 0001:0003e8de       __acrt_update_thread_locale_data$fin$0 000000018003f8de f   libucrt:locale_refcounting.obj
 0001:0003e8f7       fclose$fin$0               000000018003f8f7 f   libucrt:fclose.obj
 0001:0003e90f       _ctrlfp$filt$0             000000018003f90f f   libucrt:fpctrl.obj
 0001:0003e90f       common_control87$filt$0    000000018003f90f f   libucrt:ieee.obj
 0001:0003e940       ??__Fthe_dummy_context@internal@tbb@@YAXXZ 000000018003f940 f   scheduler.obj
 0002:00000350       ?static_init_dl_data$initializer$@internal@tbb@@3P6AXXZEA 0000000180040350     dynamic_link.obj
 0002:00000358       ?the_dummy_context$initializer$@internal@tbb@@3P6AXXZEA 0000000180040358     scheduler.obj
 0002:00000370       ?pinit@@3P6AHXZEA          0000000180040370     libcpmt:winapisupp.obj
 0002:00000378       ?__scrt_initialize_tss_var@@3P6AHXZEA 0000000180040378     LIBCMT:thread_safe_statics.obj
 0002:00000450       ??_7_ExceptionPtr_normal@?A0x13fc80ab@@6B@ 0000000180040450     libcpmt:excptptr.obj
 0002:00000478       ??_7?$_ExceptionPtr_static@Vbad_alloc@std@@@?A0x13fc80ab@@6B@ 0000000180040478     libcpmt:excptptr.obj
 0002:000004a0       ??_7?$_ExceptionPtr_static@Vbad_exception@std@@@?A0x13fc80ab@@6B@ 00000001800404a0     libcpmt:excptptr.obj
 0002:000008f0       ?_Whitespace_bitmap@?A0x372bf432@@3U_Whitespace_bitmap_t@1@B 00000001800408f0     libcpmt:syserror_import_lib.obj
 0002:000009f0       ?_Win_errtab@std@@3QBU_Win_errtab_t@1@B 00000001800409f0     libcpmt:syserror.obj
 0002:00000c60       ?_Sys_errtab@std@@3QBU_Sys_errtab_t@1@B 0000000180040c60     libcpmt:syserror.obj
 0002:00001800       GS_ExceptionPointers       0000000180041800     LIBCMT:gs_report.obj
 0002:00001880       ?ExceptionTemplate@?1??UnwindNestedFrames@__FrameHandler4@@SAXPEA_KPEAUEHExceptionRecord@@PEAU_CONTEXT@@0PEAXPEAUFuncInfo4@FH4@@HHPEAUHandlerType4@6@PEAU_xDISPATCHER_CONTEXT@@E@Z@4U_EXCEPTION_RECORD@@B 0000000180041880     libvcruntime:risctrnsctrl.obj
 0002:00001a00       ?tokenTable@@3QBUStringLiteral@@B 0000000180041a00     libvcruntime:undname.obj
 0002:00001b00       ?nameTable@@3QBUStringLiteral@@B 0000000180041b00     libvcruntime:undname.obj
 0002:00002030       ?rttiTable@@3QBUStringLiteral@@B 0000000180042030     libvcruntime:undname.obj
 0002:00002080       ?IndirectionName@@3QBUStringLiteral@@B 0000000180042080     libvcruntime:undname.obj
 0002:000020e0       ?PrefixName@@3QBUStringLiteral@@B 00000001800420e0     libvcruntime:undname.obj
 0002:00002d00       ?result@?1??IsValidIdentChar@@YA_ND@Z@4U<unnamed-type-result>@?1??InitValidIdentChar@@YA?AU2@XZ@B 0000000180042d00     libvcruntime:undname.obj
 0002:00002e50       ?module_names@?A0x5302d918@@3QBQEB_WB 0000000180042e50     libvcruntime:winapi_downlevel.obj
 0002:00002f10       ?candidate_modules@?1??try_get_FlsAlloc@@YAP6AKP6AXPEAX@Z@ZXZ@4QBW4module_id@?A0x5302d918@@B 0000000180042f10     libvcruntime:winapi_downlevel.obj
 0002:00002f18       ?candidate_modules@?1??try_get_FlsFree@@YAP6AHK@ZXZ@4QBW4module_id@?A0x5302d918@@B 0000000180042f18     libvcruntime:winapi_downlevel.obj
 0002:00002f20       ?candidate_modules@?1??try_get_FlsGetValue@@YAP6APEAXK@ZXZ@4QBW4module_id@?A0x5302d918@@B 0000000180042f20     libvcruntime:winapi_downlevel.obj
 0002:00002f28       ?candidate_modules@?1??try_get_FlsSetValue@@YAP6AHKPEAX@ZXZ@4QBW4module_id@?A0x5302d918@@B 0000000180042f28     libvcruntime:winapi_downlevel.obj
 0002:00002f30       ?candidate_modules@?1??try_get_InitializeCriticalSectionEx@@YAP6AHPEAU_RTL_CRITICAL_SECTION@@KK@ZXZ@4QBW4module_id@?A0x5302d918@@B 0000000180042f30     libvcruntime:winapi_downlevel.obj
 0002:00002f40       ?errtable@@3QBUerrentry@?A0x31fdb9ec@@B 0000000180042f40     libucrt:errno.obj
 0002:00003a10       __acrt_initializers        0000000180043a10     libucrt:initialization.obj
 0002:00003b10       ?module_names@?A0x391cf84c@@3QBQEB_WB 0000000180043b10     libucrt:winapi_thunks.obj
 0002:00004018       ?candidate_modules@?1??try_get_AreFileApisANSI@@YAP6AHXZXZ@4QBW4module_id@?A0x391cf84c@@B 0000000180044018     libucrt:winapi_thunks.obj
 0002:00004030       ?candidate_modules@?1??try_get_CompareStringEx@@YAP6AHPEB_WK0H0HPEAU_nlsversioninfo@@PEAX_J@ZXZ@4QBW4module_id@?A0x391cf84c@@B 0000000180044030     libucrt:winapi_thunks.obj
 0002:00004038       ?candidate_modules@?1??try_get_FlsAlloc@@YAP6AKP6AXPEAX@Z@ZXZ@4QBW4module_id@?A0x391cf84c@@B 0000000180044038     libucrt:winapi_thunks.obj
 0002:00004040       ?candidate_modules@?1??try_get_FlsFree@@YAP6AHK@ZXZ@4QBW4module_id@?A0x391cf84c@@B 0000000180044040     libucrt:winapi_thunks.obj
 0002:00004048       ?candidate_modules@?1??try_get_FlsGetValue@@YAP6APEAXK@ZXZ@4QBW4module_id@?A0x391cf84c@@B 0000000180044048     libucrt:winapi_thunks.obj
 0002:00004050       ?candidate_modules@?1??try_get_FlsSetValue@@YAP6AHKPEAX@ZXZ@4QBW4module_id@?A0x391cf84c@@B 0000000180044050     libucrt:winapi_thunks.obj
 0002:00004058       ?candidate_modules@?1??try_get_InitializeCriticalSectionEx@@YAP6AHPEAU_RTL_CRITICAL_SECTION@@KK@ZXZ@4QBW4module_id@?A0x391cf84c@@B 0000000180044058     libucrt:winapi_thunks.obj
 0002:00004060       ?candidate_modules@?1??try_get_LCMapStringEx@@YAP6AHPEB_WK0HPEA_WHPEAU_nlsversioninfo@@PEAX_J@ZXZ@4QBW4module_id@?A0x391cf84c@@B 0000000180044060     libucrt:winapi_thunks.obj
 0002:00004068       ?candidate_modules@?1??try_get_LocaleNameToLCID@@YAP6AKPEB_WK@ZXZ@4QBW4module_id@?A0x391cf84c@@B 0000000180044068     libucrt:winapi_thunks.obj
 0002:00004084       ?candidate_modules@?1??try_get_RoInitialize@@YAP6AJW4RO_INIT_TYPE@@@ZXZ@4QBW4module_id@?A0x391cf84c@@B 0000000180044084     libucrt:winapi_thunks.obj
 0002:00004098       ?candidate_modules@?1??try_get_RoUninitialize@@YAP6AXXZXZ@4QBW4module_id@?A0x391cf84c@@B 0000000180044098     libucrt:winapi_thunks.obj
 0002:000040b0       ?candidate_modules@?1??try_get_AppPolicyGetProcessTerminationMethod@@YAP6AJPEAXPEAW4AppPolicyProcessTerminationMethod@@@ZXZ@4QBW4module_id@?A0x391cf84c@@B 00000001800440b0     libucrt:winapi_thunks.obj
 0002:000040e0       ?candidate_modules@?1??try_get_AppPolicyGetThreadInitializationType@@YAP6AJPEAXPEAW4AppPolicyThreadInitializationType@@@ZXZ@4QBW4module_id@?A0x391cf84c@@B 00000001800440e0     libucrt:winapi_thunks.obj
 0002:00004110       ?strings@?1??fp_format_nan_or_infinity@@YAHW4__acrt_fp_class@@_NPEAD_K1@Z@4QAY03QEBDA 0000000180044110     libucrt:cvt.obj
 0002:00004eb8       ?_mb_locale_names@@3QBQEB_WB 0000000180044eb8     libucrt:mbctype.obj
 0002:00005520       ?LcidToLocaleNameTable@?A0x881e4c05@@3QBULcidToLocaleName@1@B 0000000180045520     libucrt:lcidtoname_downlevel.obj
 0002:00006f80       ?LocaleNameToIndexTable@?A0x881e4c05@@3QBULocaleNameIndex@1@B 0000000180046f80     libucrt:lcidtoname_downlevel.obj
 0002:00009210       __real_ninf                0000000180049210     libucrt:log10.obj
 0002:00009220       __real_inf                 0000000180049220     libucrt:log10.obj
 0002:00009230       __real_neg_qnan            0000000180049230     libucrt:log10.obj
 0002:00009240       __real_qnanbit             0000000180049240     libucrt:log10.obj
 0002:00009250       __int_1023                 0000000180049250     libucrt:log10.obj
 0002:00009260       __mask_001                 0000000180049260     libucrt:log10.obj
 0002:00009270       __mask_mant                0000000180049270     libucrt:log10.obj
 0002:00009280       __mask_mant_top8           0000000180049280     libucrt:log10.obj
 0002:00009290       __mask_mant9               0000000180049290     libucrt:log10.obj
 0002:000092a0       __real_log10_e             00000001800492a0     libucrt:log10.obj
 0002:000092b0       __real_log10_e_lead        00000001800492b0     libucrt:log10.obj
 0002:000092c0       __real_log10_e_tail        00000001800492c0     libucrt:log10.obj
 0002:000092d0       __real_log10_2_lead        00000001800492d0     libucrt:log10.obj
 0002:000092e0       __real_log10_2_tail        00000001800492e0     libucrt:log10.obj
 0002:000092f0       __real_two                 00000001800492f0     libucrt:log10.obj
 0002:00009300       __real_one                 0000000180049300     libucrt:log10.obj
 0002:00009310       __real_half                0000000180049310     libucrt:log10.obj
 0002:00009320       __mask_100                 0000000180049320     libucrt:log10.obj
 0002:00009330       __real_1_over_512          0000000180049330     libucrt:log10.obj
 0002:00009340       __real_1_over_2            0000000180049340     libucrt:log10.obj
 0002:00009350       __real_1_over_3            0000000180049350     libucrt:log10.obj
 0002:00009360       __real_1_over_4            0000000180049360     libucrt:log10.obj
 0002:00009370       __real_1_over_5            0000000180049370     libucrt:log10.obj
 0002:00009380       __real_1_over_6            0000000180049380     libucrt:log10.obj
 0002:00009390       __real_neg_1023            0000000180049390     libucrt:log10.obj
 0002:000093a0       __mask_2045                00000001800493a0     libucrt:log10.obj
 0002:000093b0       __real_threshold           00000001800493b0     libucrt:log10.obj
 0002:000093c0       __real_near_one_lt         00000001800493c0     libucrt:log10.obj
 0002:000093d0       __real_near_one_gt         00000001800493d0     libucrt:log10.obj
 0002:000093e0       __real_min_norm            00000001800493e0     libucrt:log10.obj
 0002:000093f0       __real_notsign             00000001800493f0     libucrt:log10.obj
 0002:00009400       __real_ca1                 0000000180049400     libucrt:log10.obj
 0002:00009410       __real_ca2                 0000000180049410     libucrt:log10.obj
 0002:00009420       __real_ca3                 0000000180049420     libucrt:log10.obj
 0002:00009430       __real_ca4                 0000000180049430     libucrt:log10.obj
 0002:00009440       __mask_lower               0000000180049440     libucrt:log10.obj
 0002:00009450       __flag_x_zero              0000000180049450     libucrt:log10.obj
 0002:00009454       __flag_x_neg               0000000180049454     libucrt:log10.obj
 0002:00009458       __flag_x_nan               0000000180049458     libucrt:log10.obj
 0002:0000acb0       __real@433fffffffffffff    000000018004acb0     libucrt:fpsr.obj
 0002:0000acb8       __real@c33fffffffffffff    000000018004acb8     libucrt:fpsr.obj
 0002:0000bf60       ?ittnotify_lib_name@@3PEBDEB 000000018004bf60     itt_notify.obj
 0002:0000bf68       ?__itt_fini_ittlib_ptr@@3P6AXXZEA 000000018004bf68     itt_notify.obj
 0002:0000bf70       ?api_version@@3QBDB        000000018004bf70     itt_notify.obj
 0002:0000c000       ?dll_path@@3QBDB           000000018004c000     itt_notify.obj
 0002:0000c200       ?NFS_LineSize@internal@tbb@@3_KA 000000018004c200     cache_aligned_allocator.obj
 0002:0000c208       ?SyncType_RML@internal@rml@@3PEB_WEB 000000018004c208     private_server.obj
 0002:0000c210       ?MallocLinkTable@internal@tbb@@3QBUdynamic_link_descriptor@12@B 000000018004c210     cache_aligned_allocator.obj
 0002:0000c250       ?CondVarLinkTable@internal@tbb@@3QBUdynamic_link_descriptor@12@B 000000018004c250     condition_variable.obj
 0002:0000c290       ?SyncObj_ThreadMonitor@internal@rml@@3PEB_WEB 000000018004c290     private_server.obj
 0002:0000c298       ?itt_null_id@internal@tbb@@3U___itt_id@@B 000000018004c298     tbb_main.obj
 0002:0000c2b0       ?VersionString@internal@tbb@@3QBDB 000000018004c2b0     tbb_misc.obj
 0002:0000c350       ?ProcessorGroupsApiLinkTable@internal@tbb@@3QBUdynamic_link_descriptor@12@B 000000018004c350     tbb_misc_ex.obj
 0002:0000c390       ?priority_from_normalized_rep@internal@tbb@@3QBW4priority_t@2@B 000000018004c390     task_group_context.obj
 0002:0000c3a0       ?TbbBindLinkTable@internal@tbb@@3QBUdynamic_link_descriptor@12@B 000000018004c3a0     governor.obj
 0002:0000c3f0       ?CilkLinkTable@internal@tbb@@3QBUdynamic_link_descriptor@12@B 000000018004c3f0     governor.obj
 0002:0000c400       ?controls@internal@tbb@@3PAPEAVcontrol_storage@12@A 000000018004c400     tbb_main.obj
 0002:0000c410       ?_pad@internal@tbb@@3QBDB  000000018004c410     tbb_main.obj
 0002:0000c490       __itt_null                 000000018004c490     tbb_main.obj
 0002:0000de60       ??_R4_ExceptionPtr_normal@?A0x13fc80ab@@6B@ 000000018004de60     libcpmt:excptptr.obj
 0002:0000de88       ??_R3_ExceptionPtr_normal@?A0x13fc80ab@@8 000000018004de88     libcpmt:excptptr.obj
 0002:0000dea0       ??_R2_ExceptionPtr_normal@?A0x13fc80ab@@8 000000018004dea0     libcpmt:excptptr.obj
 0002:0000deb8       ??_R1A@?0A@EA@_ExceptionPtr_normal@?A0x13fc80ab@@8 000000018004deb8     libcpmt:excptptr.obj
 0002:0000dee0       ??_R4?$_ExceptionPtr_static@Vbad_alloc@std@@@?A0x13fc80ab@@6B@ 000000018004dee0     libcpmt:excptptr.obj
 0002:0000df08       ??_R3?$_ExceptionPtr_static@Vbad_alloc@std@@@?A0x13fc80ab@@8 000000018004df08     libcpmt:excptptr.obj
 0002:0000df20       ??_R2?$_ExceptionPtr_static@Vbad_alloc@std@@@?A0x13fc80ab@@8 000000018004df20     libcpmt:excptptr.obj
 0002:0000df38       ??_R1A@?0A@EA@?$_ExceptionPtr_static@Vbad_alloc@std@@@?A0x13fc80ab@@8 000000018004df38     libcpmt:excptptr.obj
 0002:0000df60       ??_R4?$_ExceptionPtr_static@Vbad_exception@std@@@?A0x13fc80ab@@6B@ 000000018004df60     libcpmt:excptptr.obj
 0002:0000df88       ??_R3?$_ExceptionPtr_static@Vbad_exception@std@@@?A0x13fc80ab@@8 000000018004df88     libcpmt:excptptr.obj
 0002:0000dfa0       ??_R2?$_ExceptionPtr_static@Vbad_exception@std@@@?A0x13fc80ab@@8 000000018004dfa0     libcpmt:excptptr.obj
 0002:0000dfb8       ??_R1A@?0A@EA@?$_ExceptionPtr_static@Vbad_exception@std@@@?A0x13fc80ab@@8 000000018004dfb8     libcpmt:excptptr.obj
 0002:00010540       $unwind$??$advertise_new_work@$01@arena@internal@tbb@@QEAAXXZ 0000000180050540     arena.obj
 0002:00010540       $unwind$??1?$padded@Uarena_base@internal@tbb@@$0IA@@internal@tbb@@QEAA@XZ 0000000180050540     arena.obj
 0002:00010540       $unwind$??_G?$function_task@Vspawn_functor@graph@interface10@flow@tbb@@@internal@tbb@@UEAAPEAXI@Z 0000000180050540     arena.obj
 0002:00010540       $unwind$??_Gempty_task@tbb@@UEAAPEAXI@Z 0000000180050540     arena.obj
 0002:00010540       $unwind$??_Gwait_task@internal@interface7@tbb@@UEAAPEAXI@Z 0000000180050540     arena.obj
 0002:00010540       $unwind$?internal_attach@task_arena_base@internal@interface7@tbb@@IEAAXXZ 0000000180050540     arena.obj
 0002:00010540       $unwind$?on_scheduler_entry@numa_binding_observer@internal@tbb@@UEAAX_N@Z 0000000180050540     arena.obj
 0002:00010540       $unwind$?on_scheduler_exit@numa_binding_observer@internal@tbb@@UEAAX_N@Z 0000000180050540     arena.obj
 0002:00010540       $unwind$?DummyFree@internal@tbb@@YAXPEAX@Z 0000000180050540     cache_aligned_allocator.obj
 0002:00010540       $unwind$?DummyMalloc@internal@tbb@@YAPEAX_K@Z 0000000180050540     cache_aligned_allocator.obj
 0002:00010540       $unwind$?allocate_via_handler_v3@internal@tbb@@YAPEAX_K@Z 0000000180050540     cache_aligned_allocator.obj
 0002:00010540       $unwind$?dummy_padded_free@internal@tbb@@YAXPEAX@Z 0000000180050540     cache_aligned_allocator.obj
 0002:00010540       $unwind$?padded_allocate@internal@tbb@@YAPEAX_K0@Z 0000000180050540     cache_aligned_allocator.obj
 0002:00010540       $unwind$?init@thread_context@concurrent_monitor@internal@tbb@@AEAAXXZ 0000000180050540     concurrent_monitor.obj
 0002:00010540       $unwind$??0concurrent_queue_iterator_base_v3@internal@tbb@@IEAA@AEBVconcurrent_queue_base_v3@12@@Z 0000000180050540     concurrent_queue.obj
 0002:00010540       $unwind$??0concurrent_queue_iterator_base_v3@internal@tbb@@IEAA@AEBVconcurrent_queue_base_v3@12@_K@Z 0000000180050540     concurrent_queue.obj
 0002:00010540       $unwind$??1thread_context@concurrent_monitor@internal@tbb@@QEAA@XZ 0000000180050540     concurrent_queue.obj
 0002:00010540       $unwind$?internal_abort@concurrent_queue_base_v3@internal@tbb@@IEAAXXZ 0000000180050540     concurrent_queue.obj
 0002:00010540       $unwind$??1concurrent_queue_iterator_base@internal@tbb@@IEAA@XZ 0000000180050540     concurrent_queue_v2.obj
 0002:00010540       $unwind$?init_condvar_using_event@internal@tbb@@YAXPEAUcondition_variable_using_event@1interface5@2@@Z 0000000180050540     condition_variable.obj
 0002:00010540       $unwind$?init_dl_data@internal@tbb@@YAXXZ 0000000180050540     dynamic_link.obj
 0002:00010540       $unwind$?auto_terminate@governor@internal@tbb@@CAXPEAX@Z 0000000180050540     governor.obj
 0002:00010540       $unwind$?default_concurrency@numa_topology@internal@tbb@@YAHH@Z 0000000180050540     governor.obj
 0002:00010540       $unwind$?fill@numa_topology@internal@tbb@@YAXPEAH@Z 0000000180050540     governor.obj
 0002:00010540       $unwind$?__itt_counter_dec_init_3_0@@YAXPEAU___itt_counter@@@Z 0000000180050540     itt_notify.obj
 0002:00010540       $unwind$?__itt_counter_destroy_init_3_0@@YAXPEAU___itt_counter@@@Z 0000000180050540     itt_notify.obj
 0002:00010540       $unwind$?__itt_counter_inc_init_3_0@@YAXPEAU___itt_counter@@@Z 0000000180050540     itt_notify.obj
 0002:00010540       $unwind$?__itt_event_end_init_3_0@@YAHH@Z 0000000180050540     itt_notify.obj
 0002:00010540       $unwind$?__itt_event_start_init_3_0@@YAHH@Z 0000000180050540     itt_notify.obj
 0002:00010540       $unwind$?__itt_frame_begin_init_3_0@@YAXPEAU__itt_frame_t@@@Z 0000000180050540     itt_notify.obj
 0002:00010540       $unwind$?__itt_frame_createA_init_3_0@@YAPEAU__itt_frame_t@@PEBD@Z 0000000180050540     itt_notify.obj
 0002:00010540       $unwind$?__itt_frame_createW_init_3_0@@YAPEAU__itt_frame_t@@PEB_W@Z 0000000180050540     itt_notify.obj
 0002:00010540       $unwind$?__itt_frame_end_init_3_0@@YAXPEAU__itt_frame_t@@@Z 0000000180050540     itt_notify.obj
 0002:00010540       $unwind$?__itt_fsync_acquired_init_3_0@@YAXPEAX@Z 0000000180050540     itt_notify.obj
 0002:00010540       $unwind$?__itt_fsync_cancel_init_3_0@@YAXPEAX@Z 0000000180050540     itt_notify.obj
 0002:00010540       $unwind$?__itt_fsync_prepare_init_3_0@@YAXPEAX@Z 0000000180050540     itt_notify.obj
 0002:00010540       $unwind$?__itt_fsync_releasing_init_3_0@@YAXPEAX@Z 0000000180050540     itt_notify.obj
 0002:00010540       $unwind$?__itt_heap_record_init_3_0@@YAXI@Z 0000000180050540     itt_notify.obj
 0002:00010540       $unwind$?__itt_heap_reset_detection_init_3_0@@YAXI@Z 0000000180050540     itt_notify.obj
 0002:00010540       $unwind$?__itt_mark_createA_init_3_0@@YAHPEBD@Z 0000000180050540     itt_notify.obj
 0002:00010540       $unwind$?__itt_mark_createW_init_3_0@@YAHPEB_W@Z 0000000180050540     itt_notify.obj
 0002:00010540       $unwind$?__itt_mark_global_off_init_3_0@@YAHH@Z 0000000180050540     itt_notify.obj
 0002:00010540       $unwind$?__itt_mark_off_init_3_0@@YAHH@Z 0000000180050540     itt_notify.obj
 0002:00010540       $unwind$?__itt_model_aggregate_task_init_3_0@@YAX_K@Z 0000000180050540     itt_notify.obj
 0002:00010540       $unwind$?__itt_model_clear_uses_init_3_0@@YAXPEAX@Z 0000000180050540     itt_notify.obj
 0002:00010540       $unwind$?__itt_model_disable_push_init_3_0@@YAXW4__itt_model_disable@@@Z 0000000180050540     itt_notify.obj
 0002:00010540       $unwind$?__itt_model_iteration_taskA_init_3_0@@YAXPEBD@Z 0000000180050540     itt_notify.obj
 0002:00010540       $unwind$?__itt_model_iteration_taskW_init_3_0@@YAXPEB_W@Z 0000000180050540     itt_notify.obj
 0002:00010540       $unwind$?__itt_model_lock_acquire_2_init_3_0@@YAXPEAX@Z 0000000180050540     itt_notify.obj
 0002:00010540       $unwind$?__itt_model_lock_acquire_init_3_0@@YAXPEAX@Z 0000000180050540     itt_notify.obj
 0002:00010540       $unwind$?__itt_model_lock_release_2_init_3_0@@YAXPEAX@Z 0000000180050540     itt_notify.obj
 0002:00010540       $unwind$?__itt_model_lock_release_init_3_0@@YAXPEAX@Z 0000000180050540     itt_notify.obj
 0002:00010540       $unwind$?__itt_model_record_deallocation_init_3_0@@YAXPEAX@Z 0000000180050540     itt_notify.obj
 0002:00010540       $unwind$?__itt_model_site_beginA_init_3_0@@YAXPEBD@Z 0000000180050540     itt_notify.obj
 0002:00010540       $unwind$?__itt_model_site_beginW_init_3_0@@YAXPEB_W@Z 0000000180050540     itt_notify.obj
 0002:00010540       $unwind$?__itt_model_task_beginA_init_3_0@@YAXPEBD@Z 0000000180050540     itt_notify.obj
 0002:00010540       $unwind$?__itt_model_task_beginW_init_3_0@@YAXPEB_W@Z 0000000180050540     itt_notify.obj
 0002:00010540       $unwind$?__itt_notify_sync_acquired_init_3_0@@YAXPEAX@Z 0000000180050540     itt_notify.obj
 0002:00010540       $unwind$?__itt_notify_sync_cancel_init_3_0@@YAXPEAX@Z 0000000180050540     itt_notify.obj
 0002:00010540       $unwind$?__itt_notify_sync_prepare_init_3_0@@YAXPEAX@Z 0000000180050540     itt_notify.obj
 0002:00010540       $unwind$?__itt_notify_sync_releasing_init_3_0@@YAXPEAX@Z 0000000180050540     itt_notify.obj
 0002:00010540       $unwind$?__itt_pt_region_createA_init_3_0@@YAEPEBD@Z 0000000180050540     itt_notify.obj
 0002:00010540       $unwind$?__itt_pt_region_createW_init_3_0@@YAEPEB_W@Z 0000000180050540     itt_notify.obj
 0002:00010540       $unwind$?__itt_set_track_init_3_0@@YAXPEAU___itt_track@@@Z 0000000180050540     itt_notify.obj
 0002:00010540       $unwind$?__itt_stack_callee_enter_init_3_0@@YAXPEAU___itt_caller@@@Z 0000000180050540     itt_notify.obj
 0002:00010540       $unwind$?__itt_stack_callee_leave_init_3_0@@YAXPEAU___itt_caller@@@Z 0000000180050540     itt_notify.obj
 0002:00010540       $unwind$?__itt_stack_caller_destroy_init_3_0@@YAXPEAU___itt_caller@@@Z 0000000180050540     itt_notify.obj
 0002:00010540       $unwind$?__itt_state_set_init_3_0@@YAHH@Z 0000000180050540     itt_notify.obj
 0002:00010540       $unwind$?__itt_suppress_push_init_3_0@@YAXI@Z 0000000180050540     itt_notify.obj
 0002:00010540       $unwind$?__itt_sync_acquired_init_3_0@@YAXPEAX@Z 0000000180050540     itt_notify.obj
 0002:00010540       $unwind$?__itt_sync_cancel_init_3_0@@YAXPEAX@Z 0000000180050540     itt_notify.obj
 0002:00010540       $unwind$?__itt_sync_destroy_init_3_0@@YAXPEAX@Z 0000000180050540     itt_notify.obj
 0002:00010540       $unwind$?__itt_sync_prepare_init_3_0@@YAXPEAX@Z 0000000180050540     itt_notify.obj
 0002:00010540       $unwind$?__itt_sync_releasing_init_3_0@@YAXPEAX@Z 0000000180050540     itt_notify.obj
 0002:00010540       $unwind$?__itt_task_end_init_3_0@@YAXPEBU___itt_domain@@@Z 0000000180050540     itt_notify.obj
 0002:00010540       $unwind$?__itt_thr_name_setA_init_3_0@@YAHPEBDH@Z 0000000180050540     itt_notify.obj
 0002:00010540       $unwind$?__itt_thr_name_setW_init_3_0@@YAHPEB_WH@Z 0000000180050540     itt_notify.obj
 0002:00010540       $unwind$?__itt_thread_set_nameA_init_3_0@@YAXPEBD@Z 0000000180050540     itt_notify.obj
 0002:00010540       $unwind$?__itt_thread_set_nameW_init_3_0@@YAXPEB_W@Z 0000000180050540     itt_notify.obj
 0002:00010540       $unwind$?internal_construct@mutex@tbb@@AEAAXXZ 0000000180050540     mutex.obj
 0002:00010540       $unwind$?internal_destroy@mutex@tbb@@AEAAXXZ 0000000180050540     mutex.obj
 0002:00010540       $unwind$?internal_release@scoped_lock@mutex@tbb@@AEAAXXZ 0000000180050540     mutex.obj
 0002:00010540       $unwind$??_Gpipeline_root_task@internal@tbb@@UEAAPEAXI@Z 0000000180050540     pipeline.obj
 0002:00010540       $unwind$??_Gtask@tbb@@UEAAPEAXI@Z 0000000180050540     pipeline.obj
 0002:00010540       $unwind$?internal_destroy@scoped_lock@reader_writer_lock@interface5@tbb@@AEAAXXZ 0000000180050540     reader_writer_lock.obj
 0002:00010540       $unwind$?try_lock_read@reader_writer_lock@interface5@tbb@@QEAA_NXZ 0000000180050540     reader_writer_lock.obj
 0002:00010540       $unwind$?internal_construct@recursive_mutex@tbb@@AEAAXXZ 0000000180050540     recursive_mutex.obj
 0002:00010540       $unwind$?internal_destroy@recursive_mutex@tbb@@AEAAXXZ 0000000180050540     recursive_mutex.obj
 0002:00010540       $unwind$?internal_release@scoped_lock@recursive_mutex@tbb@@AEAAXXZ 0000000180050540     recursive_mutex.obj
 0002:00010540       $unwind$??$advertise_new_work@$0A@@arena@internal@tbb@@QEAAXXZ 0000000180050540     scheduler.obj
 0002:00010540       $unwind$??_G?$custom_scheduler@UDefaultSchedulerTraits@internal@tbb@@@internal@tbb@@UEAAPEAXI@Z 0000000180050540     scheduler.obj
 0002:00010540       $unwind$??_G?$custom_scheduler@UIntelSchedulerTraits@internal@tbb@@@internal@tbb@@UEAAPEAXI@Z 0000000180050540     scheduler.obj
 0002:00010540       $unwind$??_Ggeneric_scheduler@internal@tbb@@UEAAPEAXI@Z 0000000180050540     scheduler.obj
 0002:00010540       $unwind$?internal_release@scoped_lock@spin_mutex@tbb@@AEAAXXZ 0000000180050540     spin_mutex.obj
 0002:00010540       $unwind$?internal_try_acquire@scoped_lock@spin_mutex@tbb@@AEAA_NAEAV23@@Z 0000000180050540     spin_mutex.obj
 0002:00010540       $unwind$?internal_downgrade@spin_rw_mutex_v3@tbb@@AEAAXXZ 0000000180050540     spin_rw_mutex.obj
 0002:00010540       $unwind$?internal_release_reader@spin_rw_mutex_v3@tbb@@AEAAXXZ 0000000180050540     spin_rw_mutex.obj
 0002:00010540       $unwind$?internal_release_writer@spin_rw_mutex_v3@tbb@@AEAAXXZ 0000000180050540     spin_rw_mutex.obj
 0002:00010540       $unwind$?internal_downgrade@spin_rw_mutex@tbb@@CAXPEAV12@@Z 0000000180050540     spin_rw_mutex_v2.obj
 0002:00010540       $unwind$?internal_release_reader@spin_rw_mutex@tbb@@CAXPEAV12@@Z 0000000180050540     spin_rw_mutex_v2.obj
 0002:00010540       $unwind$?internal_release_writer@spin_rw_mutex@tbb@@CAXPEAV12@@Z 0000000180050540     spin_rw_mutex_v2.obj
 0002:00010540       $unwind$?free@allocate_child_proxy@internal@tbb@@QEBAXAEAVtask@3@@Z 0000000180050540     task.obj
 0002:00010540       $unwind$?free@allocate_continuation_proxy@internal@tbb@@QEBAXAEAVtask@3@@Z 0000000180050540     task.obj
 0002:00010540       $unwind$?free@allocate_root_proxy@internal@tbb@@SAXAEAVtask@3@@Z 0000000180050540     task.obj
 0002:00010540       $unwind$?free@allocate_root_with_context_proxy@internal@tbb@@QEBAXAEAVtask@3@@Z 0000000180050540     task.obj
 0002:00010540       $unwind$??0exception_ptr@std@@QEAA@AEBV01@@Z 0000000180050540     task_group_context.obj
 0002:00010540       $unwind$??0tbb_exception@tbb@@QEAA@AEBV01@@Z 0000000180050540     task_group_context.obj
 0002:00010540       $unwind$??1captured_exception@tbb@@UEAA@XZ 0000000180050540     task_group_context.obj
 0002:00010540       $unwind$?capture_fp_settings@task_group_context@tbb@@QEAAXXZ 0000000180050540     task_group_context.obj
 0002:00010540       $unwind$?clear@captured_exception@tbb@@QEAAXXZ 0000000180050540     task_group_context.obj
 0002:00010540       $unwind$?destroy@captured_exception@tbb@@UEAAXXZ 0000000180050540     task_group_context.obj
 0002:00010540       $unwind$?itt_load_pointer_with_acquire_v3@internal@tbb@@YAPEAXPEBX@Z 0000000180050540     tbb_main.obj
 0002:00010540       $unwind$?itt_task_end_v7@internal@tbb@@YAXW4itt_domain_enum@12@@Z 0000000180050540     tbb_main.obj
 0002:00010540       $unwind$?terminate_auto_initialized_scheduler@governor@internal@tbb@@SAXXZ 0000000180050540     tbb_main.obj
 0002:00010540       $unwind$??0bad_alloc@std@@QEAA@AEBV01@@Z 0000000180050540     tbb_misc.obj
 0002:00010540       $unwind$??0bad_last_alloc@tbb@@QEAA@AEBV01@@Z 0000000180050540     tbb_misc.obj
 0002:00010540       $unwind$??0exception@std@@QEAA@AEBV01@@Z 0000000180050540     tbb_misc.obj
 0002:00010540       $unwind$??0improper_lock@tbb@@QEAA@AEBV01@@Z 0000000180050540     tbb_misc.obj
 0002:00010540       $unwind$??0invalid_argument@std@@QEAA@AEBV01@@Z 0000000180050540     tbb_misc.obj
 0002:00010540       $unwind$??0invalid_multiple_scheduling@tbb@@QEAA@AEBV01@@Z 0000000180050540     tbb_misc.obj
 0002:00010540       $unwind$??0length_error@std@@QEAA@AEBV01@@Z 0000000180050540     tbb_misc.obj
 0002:00010540       $unwind$??0logic_error@std@@QEAA@AEBV01@@Z 0000000180050540     tbb_misc.obj
 0002:00010540       $unwind$??0missing_wait@tbb@@QEAA@AEBV01@@Z 0000000180050540     tbb_misc.obj
 0002:00010540       $unwind$??0out_of_range@std@@QEAA@AEBV01@@Z 0000000180050540     tbb_misc.obj
 0002:00010540       $unwind$??0range_error@std@@QEAA@AEBV01@@Z 0000000180050540     tbb_misc.obj
 0002:00010540       $unwind$??0runtime_error@std@@QEAA@AEBV01@@Z 0000000180050540     tbb_misc.obj
 0002:00010540       $unwind$??0user_abort@tbb@@QEAA@AEBV01@@Z 0000000180050540     tbb_misc.obj
 0002:00010540       $unwind$?allocate_closure_v3@internal@tbb@@YAPEAX_K@Z 0000000180050540     tbb_thread.obj
 0002:00010540       $unwind$?detach@tbb_thread_v3@internal@tbb@@QEAAXXZ 0000000180050540     tbb_thread.obj
 0002:00010540       $unwind$?thread_get_id_v3@internal@tbb@@YA?AVid@tbb_thread_v3@12@XZ 0000000180050540     tbb_thread.obj
 0002:00010540       $unwind$__raise_securityfailure 0000000180050540     LIBCMT:gs_report.obj
 0002:00010540       $unwind$??2@YAPEAX_K@Z     0000000180050540     LIBCMT:new_scalar.obj
 0002:00010540       $unwind$??_Gtype_info@@UEAAPEAXI@Z 0000000180050540     LIBCMT:std_type_info_static.obj
 0002:00010540       $unwind$_Init_thread_abort 0000000180050540     LIBCMT:thread_safe_statics.obj
 0002:00010540       $unwind$_Init_thread_footer 0000000180050540     LIBCMT:thread_safe_statics.obj
 0002:00010540       $unwind$_Init_thread_header 0000000180050540     LIBCMT:thread_safe_statics.obj
 0002:00010540       $unwind$_Init_thread_wait  0000000180050540     LIBCMT:thread_safe_statics.obj
 0002:00010540       $unwind$__scrt_initialize_crt 0000000180050540     LIBCMT:utility.obj
 0002:00010540       $unwind$__scrt_initialize_onexit_tables 0000000180050540     LIBCMT:utility.obj
 0002:00010540       $unwind$__scrt_release_startup_lock 0000000180050540     LIBCMT:utility.obj
 0002:00010540       $unwind$__scrt_uninitialize_crt 0000000180050540     LIBCMT:utility.obj
 0002:00010540       $unwind$_onexit            0000000180050540     LIBCMT:utility.obj
 0002:00010540       $unwind$??1?$shared_ptr@$$CBU_EXCEPTION_RECORD@@@std@@QEAA@XZ 0000000180050540     libcpmt:excptptr.obj
 0002:00010540       $unwind$??_G_ExceptionPtr_normal@?A0x13fc80ab@@UEAAPEAXI@Z 0000000180050540     libcpmt:excptptr.obj
 0002:00010540       $unwind$?initialize_pointers@@YAHXZ 0000000180050540     libcpmt:winapisupp.obj
 0002:00010540       $unwind$??0bad_array_new_length@std@@QEAA@AEBV01@@Z 0000000180050540     libcpmt:xonce.obj
 0002:00010540       $unwind$_IsExceptionObjectToBeDestroyed 0000000180050540     libvcruntime:ehhelpers.obj
 0002:00010540       $unwind$??0HandlerMap4@FH4@@QEAA@PEBUTryBlockMapEntry4@1@_KH@Z 0000000180050540     libvcruntime:frame.obj
 0002:00010540       $unwind$?ExFilterRethrow@@YAHPEAU_EXCEPTION_POINTERS@@PEAUEHExceptionRecord@@PEAH@Z 0000000180050540     libvcruntime:frame.obj
 0002:00010540       $unwind$__vcrt_uninitialize_locks 0000000180050540     libvcruntime:locks.obj
 0002:00010540       $unwind$__vcrt_freeptd     0000000180050540     libvcruntime:per_thread_data.obj
 0002:00010540       $unwind$_CreateFrameInfo   0000000180050540     libvcruntime:risctrnsctrl.obj
 0002:00010540       $unwind$_SetImageBase      0000000180050540     libvcruntime:risctrnsctrl.obj
 0002:00010540       $unwind$_SetThrowImageBase 0000000180050540     libvcruntime:risctrnsctrl.obj
 0002:00010540       $unwind$??0__non_rtti_object@std@@QEAA@AEBV01@@Z 0000000180050540     libvcruntime:rtti.obj
 0002:00010540       $unwind$??0bad_cast@std@@QEAA@AEBV01@@Z 0000000180050540     libvcruntime:rtti.obj
 0002:00010540       $unwind$??0bad_typeid@std@@QEAA@AEBV01@@Z 0000000180050540     libvcruntime:rtti.obj
 0002:00010540       $unwind$__std_exception_destroy 0000000180050540     libvcruntime:std_exception.obj
 0002:00010540       $unwind$__std_type_info_destroy_list 0000000180050540     libvcruntime:std_type_info.obj
 0002:00010540       $unwind$??$?0$00@DName@@QEAA@PEBDU?$StringLifeSelector@$00@@@Z 0000000180050540     libvcruntime:undname.obj
 0002:00010540       $unwind$??$?0$01@DName@@QEAA@PEBDU?$StringLifeSelector@$01@@@Z 0000000180050540     libvcruntime:undname.obj
 0002:00010540       $unwind$??$?0$0A@@DName@@QEAA@PEBDU?$StringLifeSelector@$0A@@@@Z 0000000180050540     libvcruntime:undname.obj
 0002:00010540       $unwind$??0DName@@QEAA@AEBUStringLiteral@@@Z 0000000180050540     libvcruntime:undname.obj
 0002:00010540       $unwind$??HDName@@QEBA?AV0@AEBUStringLiteral@@@Z 0000000180050540     libvcruntime:undname.obj
 0002:00010540       $unwind$??HDName@@QEBA?AV0@AEBV0@@Z 0000000180050540     libvcruntime:undname.obj
 0002:00010540       $unwind$??HDName@@QEBA?AV0@D@Z 0000000180050540     libvcruntime:undname.obj
 0002:00010540       $unwind$??HDName@@QEBA?AV0@W4DNameStatus@@@Z 0000000180050540     libvcruntime:undname.obj
 0002:00010540       $unwind$??YDName@@QEAAAEAV0@AEBV0@@Z 0000000180050540     libvcruntime:undname.obj
 0002:00010540       $unwind$??YDName@@QEAAAEAV0@W4DNameStatus@@@Z 0000000180050540     libvcruntime:undname.obj
 0002:00010540       $unwind$?getLastChar@pairNode@@UEBADXZ 0000000180050540     libvcruntime:undname.obj
 0002:00010540       $unwind$?getReturnType@UnDecorator@@CA?AVDName@@PEAV2@@Z 0000000180050540     libvcruntime:undname.obj
 0002:00010540       $unwind$?getStringObject@UnDecorator@@CA?AVDName@@XZ 0000000180050540     libvcruntime:undname.obj
 0002:00010540       $unwind$?getSymbolName@UnDecorator@@CA?AVDName@@XZ 0000000180050540     libvcruntime:undname.obj
 0002:00010540       $unwind$?getValue@UnDecorator@@CA?AV?$optional@_K@std@@XZ 0000000180050540     libvcruntime:undname.obj
 0002:00010540       $unwind$__vcrt_FlsAlloc    0000000180050540     libvcruntime:winapi_downlevel.obj
 0002:00010540       $unwind$__vcrt_FlsFree     0000000180050540     libvcruntime:winapi_downlevel.obj
 0002:00010540       $unwind$__vcrt_FlsGetValue 0000000180050540     libvcruntime:winapi_downlevel.obj
 0002:00010540       $unwind$_calloc_base       0000000180050540     libucrt:calloc_base.obj
 0002:00010540       $unwind$_malloc_base       0000000180050540     libucrt:malloc_base.obj
 0002:00010540       $unwind$_callnewh          0000000180050540     libucrt:new_handler.obj
 0002:00010540       $unwind$initialize_pointers 0000000180050540     libucrt:initialization.obj
 0002:00010540       $unwind$uninitialize_allocated_memory 0000000180050540     libucrt:initialization.obj
 0002:00010540       $unwind$__acrt_initialize_locks 0000000180050540     libucrt:locks.obj
 0002:00010540       $unwind$__acrt_uninitialize_locks 0000000180050540     libucrt:locks.obj
 0002:00010540       $unwind$__acrt_freeptd     0000000180050540     libucrt:per_thread_data.obj
 0002:00010540       $unwind$__acrt_getptd_head 0000000180050540     libucrt:per_thread_data.obj
 0002:00010540       $unwind$__acrt_get_begin_thread_init_policy 0000000180050540     libucrt:win_policies.obj
 0002:00010540       $unwind$__acrt_get_process_end_policy 0000000180050540     libucrt:win_policies.obj
 0002:00010540       $unwind$__acrt_AppPolicyGetProcessTerminationMethodInternal 0000000180050540     libucrt:winapi_thunks.obj
 0002:00010540       $unwind$__acrt_AppPolicyGetThreadInitializationTypeInternal 0000000180050540     libucrt:winapi_thunks.obj
 0002:00010540       $unwind$__acrt_FlsAlloc    0000000180050540     libucrt:winapi_thunks.obj
 0002:00010540       $unwind$__acrt_FlsFree     0000000180050540     libucrt:winapi_thunks.obj
 0002:00010540       $unwind$__acrt_FlsGetValue 0000000180050540     libucrt:winapi_thunks.obj
 0002:00010540       $unwind$__acrt_RoInitialize 0000000180050540     libucrt:winapi_thunks.obj
 0002:00010540       $unwind$__acrt_uninitialize_winapi_thunks 0000000180050540     libucrt:winapi_thunks.obj
 0002:00010540       $unwind$__acrt_update_locale_info 0000000180050540     libucrt:locale_update.obj
 0002:00010540       $unwind$__acrt_update_multibyte_info 0000000180050540     libucrt:locale_update.obj
 0002:00010540       $unwind$__acrt_allocate_buffer_for_argv 0000000180050540     libucrt:argv_parsing.obj
 0002:00010540       $unwind$?exit_or_terminate_process@@YAXI@Z 0000000180050540     libucrt:exit.obj
 0002:00010540       $unwind$?try_cor_exit_process@@YAXI@Z 0000000180050540     libucrt:exit.obj
 0002:00010540       $unwind$__acrt_uninitialize_stdio 0000000180050540     libucrt:_file.obj
 0002:00010540       $unwind$?stream_is_at_end_of_file_nolock@@YA_NV__crt_stdio_stream@@@Z 0000000180050540     libucrt:_flsbuf.obj
 0002:00010540       $unwind$__acrt_stdio_free_buffer_nolock 0000000180050540     libucrt:_freebuf.obj
 0002:00010540       $unwind$__acrt_should_use_temporary_buffer 0000000180050540     libucrt:_sftbuf.obj
 0002:00010540       $unwind$_fflush_nolock     0000000180050540     libucrt:fflush.obj
 0002:00010540       $unwind$?state_case_normal@?$output_processor@DV?$stream_output_adapter@D@__crt_stdio_output@@V?$standard_base@DV?$stream_output_adapter@D@__crt_stdio_output@@@2@@__crt_stdio_output@@AEAA_NXZ 0000000180050540     libucrt:output.obj
 0002:00010540       $unwind$?state_case_normal@?$output_processor@DV?$string_output_adapter@D@__crt_stdio_output@@V?$format_validation_base@DV?$string_output_adapter@D@__crt_stdio_output@@@2@@__crt_stdio_output@@AEAA_NXZ 0000000180050540     libucrt:output.obj
 0002:00010540       $unwind$?state_case_normal@?$output_processor@DV?$string_output_adapter@D@__crt_stdio_output@@V?$standard_base@DV?$string_output_adapter@D@__crt_stdio_output@@@2@@__crt_stdio_output@@AEAA_NXZ 0000000180050540     libucrt:output.obj
 0002:00010540       $unwind$?state_case_normal_tchar@?$output_processor@DV?$stream_output_adapter@D@__crt_stdio_output@@V?$standard_base@DV?$stream_output_adapter@D@__crt_stdio_output@@@2@@__crt_stdio_output@@AEAA_ND@Z 0000000180050540     libucrt:output.obj
 0002:00010540       $unwind$?type_case_s@?$output_processor@DV?$stream_output_adapter@D@__crt_stdio_output@@V?$standard_base@DV?$stream_output_adapter@D@__crt_stdio_output@@@2@@__crt_stdio_output@@AEAA_NXZ 0000000180050540     libucrt:output.obj
 0002:00010540       $unwind$?type_case_s@?$output_processor@DV?$string_output_adapter@D@__crt_stdio_output@@V?$format_validation_base@DV?$string_output_adapter@D@__crt_stdio_output@@@2@@__crt_stdio_output@@AEAA_NXZ 0000000180050540     libucrt:output.obj
 0002:00010540       $unwind$?type_case_s@?$output_processor@DV?$string_output_adapter@D@__crt_stdio_output@@V?$standard_base@DV?$string_output_adapter@D@__crt_stdio_output@@@2@@__crt_stdio_output@@AEAA_NXZ 0000000180050540     libucrt:output.obj
 0002:00010540       $unwind$strcpy_s           0000000180050540     libucrt:strcpy_s.obj
 0002:00010540       $unwind$wcscpy_s           0000000180050540     libucrt:wcscpy_s.obj
 0002:00010540       $unwind$_clrfp             0000000180050540     libucrt:fpctrl.obj
 0002:00010540       $unwind$_set_statfp        0000000180050540     libucrt:fpctrl.obj
 0002:00010540       $unwind$_clearfp           0000000180050540     libucrt:ieee.obj
 0002:00010540       $unwind$_controlfp_s       0000000180050540     libucrt:contrlfp.obj
 0002:00010540       $unwind$fegetenv           0000000180050540     libucrt:fegetenv.obj
 0002:00010540       $unwind$feholdexcept       0000000180050540     libucrt:feholdexcept.obj
 0002:00010540       $unwind$fesetenv           0000000180050540     libucrt:fesetenv.obj
 0002:00010548       $unwind$?commit_wait@concurrent_monitor@internal@tbb@@QEAA_NAEAVthread_context@123@@Z 0000000180050548     concurrent_queue.obj
 0002:00010558       $chain$1$?commit_wait@concurrent_monitor@internal@tbb@@QEAA_NAEAVthread_context@123@@Z 0000000180050558     concurrent_queue.obj
 0002:00010570       $chain$2$?commit_wait@concurrent_monitor@internal@tbb@@QEAA_NAEAVthread_context@123@@Z 0000000180050570     concurrent_queue.obj
 0002:00010580       $unwind$?abort_all@concurrent_monitor@internal@tbb@@QEAAXXZ 0000000180050580     concurrent_queue.obj
 0002:00010588       $chain$0$?abort_all@concurrent_monitor@internal@tbb@@QEAAXXZ 0000000180050588     concurrent_queue.obj
 0002:0001059c       $chain$1$?abort_all@concurrent_monitor@internal@tbb@@QEAAXXZ 000000018005059c     concurrent_queue.obj
 0002:000105b0       $chain$2$?abort_all@concurrent_monitor@internal@tbb@@QEAAXXZ 00000001800505b0     concurrent_queue.obj
 0002:000105c0       $chain$3$?abort_all@concurrent_monitor@internal@tbb@@QEAAXXZ 00000001800505c0     concurrent_queue.obj
 0002:000105d0       $unwind$??1micro_queue_pop_finalizer@internal@tbb@@QEAA@XZ 00000001800505d0     concurrent_queue.obj
 0002:000105f0       $cppxdata$??1micro_queue_pop_finalizer@internal@tbb@@QEAA@XZ 00000001800505f0     concurrent_queue.obj
 0002:000105f5       $ip2state$??1micro_queue_pop_finalizer@internal@tbb@@QEAA@XZ 00000001800505f5     concurrent_queue.obj
 0002:000105fc       $unwind$?push@micro_queue@internal@tbb@@QEAAXPEBX_KAEAVconcurrent_queue_base_v3@23@W4copy_specifics@423@@Z 00000001800505fc     concurrent_queue.obj
 0002:00010618       $cppxdata$?push@micro_queue@internal@tbb@@QEAAXPEBX_KAEAVconcurrent_queue_base_v3@23@W4copy_specifics@423@@Z 0000000180050618     concurrent_queue.obj
 0002:00010625       $stateUnwindMap$?push@micro_queue@internal@tbb@@QEAAXPEBX_KAEAVconcurrent_queue_base_v3@23@W4copy_specifics@423@@Z 0000000180050625     concurrent_queue.obj
 0002:0001062a       $tryMap$?push@micro_queue@internal@tbb@@QEAAXPEBX_KAEAVconcurrent_queue_base_v3@23@W4copy_specifics@423@@Z 000000018005062a     concurrent_queue.obj
 0002:00010639       $handlerMap$?push@micro_queue@internal@tbb@@QEAAXPEBX_KAEAVconcurrent_queue_base_v3@23@W4copy_specifics@423@@Z 0000000180050639     concurrent_queue.obj
 0002:00010640       $handlerMap$0$?push@micro_queue@internal@tbb@@QEAAXPEBX_KAEAVconcurrent_queue_base_v3@23@W4copy_specifics@423@@Z 0000000180050640     concurrent_queue.obj
 0002:00010647       $ip2state$?push@micro_queue@internal@tbb@@QEAAXPEBX_KAEAVconcurrent_queue_base_v3@23@W4copy_specifics@423@@Z 0000000180050647     concurrent_queue.obj
 0002:00010654       $unwind$?catch$1@?0??internal_pop@concurrent_queue_base_v3@internal@tbb@@IEAAXPEAX@Z@4HA 0000000180050654     concurrent_queue.obj
 0002:00010654       $unwind$?catch$1@?0??push@micro_queue@internal@tbb@@QEAAXPEBX_KAEAVconcurrent_queue_base_v3@23@W4copy_specifics@423@@Z@4HA 0000000180050654     concurrent_queue.obj
 0002:00010654       $unwind$?catch$2@?0??internal_pop@concurrent_queue_base_v3@internal@tbb@@IEAAXPEAX@Z@4HA 0000000180050654     concurrent_queue.obj
 0002:00010654       $unwind$?catch$2@?0??push@micro_queue@internal@tbb@@QEAAXPEBX_KAEAVconcurrent_queue_base_v3@23@W4copy_specifics@423@@Z@4HA 0000000180050654     concurrent_queue.obj
 0002:0001065c       $unwind$?throw_self@tbb_exception_ptr@internal@tbb@@QEAAXXZ 000000018005065c     arena.obj
 0002:0001065c       $unwind$?abort_push@micro_queue@internal@tbb@@QEAAX_KAEAVconcurrent_queue_base_v3@23@@Z 000000018005065c     concurrent_queue.obj
 0002:0001065c       $unwind$?internal_grow_to_at_least@concurrent_vector_base@internal@tbb@@IEAAX_K0P6AXPEAX0@Z@Z 000000018005065c     concurrent_vector_v2.obj
 0002:0001065c       $unwind$?initialize_cilk_interop@internal@tbb@@YA_NXZ 000000018005065c     governor.obj
 0002:0001065c       $unwind$?update_arena_priority@market@internal@tbb@@QEAA_NAEAVarena@23@_J@Z 000000018005065c     market.obj
 0002:0001065c       $unwind$?add_ref@__TBB_InitOnce@internal@tbb@@SAXXZ 000000018005065c     tbb_main.obj
 0002:0001065c       $unwind$atol               000000018005065c     libucrt:atox.obj
 0002:0001065c       $unwind$strtol             000000018005065c     libucrt:strtox.obj
 0002:0001065c       $unwind$_invalid_parameter_noinfo 000000018005065c     libucrt:invalid_parameter.obj
 0002:0001065c       $unwind$fflush             000000018005065c     libucrt:fflush.obj
 0002:0001065c       $unwind$_log10_special     000000018005065c     libucrt:log_special.obj
 0002:00010664       $unwind$?pop@micro_queue@internal@tbb@@QEAA_NPEAX_KAEAVconcurrent_queue_base_v3@23@@Z 0000000180050664     concurrent_queue.obj
 0002:00010688       $cppxdata$?pop@micro_queue@internal@tbb@@QEAA_NPEAX_KAEAVconcurrent_queue_base_v3@23@@Z 0000000180050688     concurrent_queue.obj
 0002:00010691       $stateUnwindMap$?pop@micro_queue@internal@tbb@@QEAA_NPEAX_KAEAVconcurrent_queue_base_v3@23@@Z 0000000180050691     concurrent_queue.obj
 0002:0001069d       $ip2state$?pop@micro_queue@internal@tbb@@QEAA_NPEAX_KAEAVconcurrent_queue_base_v3@23@@Z 000000018005069d     concurrent_queue.obj
 0002:000106a8       $unwind$?assign@micro_queue@internal@tbb@@QEAAAEAU123@AEBU123@AEAVconcurrent_queue_base_v3@23@W4copy_specifics@423@@Z 00000001800506a8     concurrent_queue.obj
 0002:000106c4       $cppxdata$?assign@micro_queue@internal@tbb@@QEAAAEAU123@AEBU123@AEAVconcurrent_queue_base_v3@23@W4copy_specifics@423@@Z 00000001800506c4     concurrent_queue.obj
 0002:000106d1       $stateUnwindMap$?assign@micro_queue@internal@tbb@@QEAAAEAU123@AEBU123@AEAVconcurrent_queue_base_v3@23@W4copy_specifics@423@@Z 00000001800506d1     concurrent_queue.obj
 0002:000106d1       $stateUnwindMap$?internal_compact@concurrent_vector_base_v3@internal@tbb@@IEAAPEAX_KPEAXP6AX10@ZP6AX1PEBX0@Z@Z 00000001800506d1     concurrent_vector.obj
 0002:000106d4       $tryMap$?assign@micro_queue@internal@tbb@@QEAAAEAU123@AEBU123@AEAVconcurrent_queue_base_v3@23@W4copy_specifics@423@@Z 00000001800506d4     concurrent_queue.obj
 0002:000106dc       $handlerMap$?assign@micro_queue@internal@tbb@@QEAAAEAU123@AEBU123@AEAVconcurrent_queue_base_v3@23@W4copy_specifics@423@@Z 00000001800506dc     concurrent_queue.obj
 0002:000106e3       $ip2state$?assign@micro_queue@internal@tbb@@QEAAAEAU123@AEBU123@AEAVconcurrent_queue_base_v3@23@W4copy_specifics@423@@Z 00000001800506e3     concurrent_queue.obj
 0002:000106ec       $unwind$?catch$0@?0??assign@micro_queue@internal@tbb@@QEAAAEAU123@AEBU123@AEAVconcurrent_queue_base_v3@23@W4copy_specifics@423@@Z@4HA 00000001800506ec     concurrent_queue.obj
 0002:000106ec       $unwind$?catch$1@?0??internal_insert_item@concurrent_queue_base_v3@internal@tbb@@IEAAXPEBXW4copy_specifics@123@@Z@4HA 00000001800506ec     concurrent_queue.obj
 0002:000106ec       $unwind$?catch$2@?0??internal_insert_item@concurrent_queue_base_v3@internal@tbb@@IEAAXPEBXW4copy_specifics@123@@Z@4HA 00000001800506ec     concurrent_queue.obj
 0002:000106f4       $unwind$??0auto_empty_task@internal@tbb@@QEAA@PEAVgeneric_scheduler@12@PEAVtask_group_context@2@@Z 00000001800506f4     arena.obj
 0002:000106f4       $unwind$?enqueue_task@arena@internal@tbb@@QEAAXAEAVtask@3@_JAEAVFastRandom@23@@Z 00000001800506f4     arena.obj
 0002:000106f4       $unwind$?make_invalid@micro_queue@internal@tbb@@QEAAX_K@Z 00000001800506f4     concurrent_queue.obj
 0002:000106f4       $unwind$?internal_push@concurrent_queue_base@internal@tbb@@IEAAXPEBX@Z 00000001800506f4     concurrent_queue_v2.obj
 0002:000106f4       $unwind$?internal_push_back@concurrent_vector_base_v3@internal@tbb@@IEAAPEAX_KAEA_K@Z 00000001800506f4     concurrent_vector.obj
 0002:000106f4       $unwind$?tally_completion_of_predecessor@?$custom_scheduler@UDefaultSchedulerTraits@internal@tbb@@@internal@tbb@@AEAAXAEAVtask@3@AEAPEAV43@_J@Z 00000001800506f4     scheduler.obj
 0002:000106f4       $unwind$??$propagate_task_group_state@_K@generic_scheduler@internal@tbb@@QEAAXPEQtask_group_context@2@_KAEAV32@_K@Z 00000001800506f4     task_group_context.obj
 0002:000106f4       $unwind$?internal_acquire_writer@x86_rtm_rw_mutex@internal@interface8@tbb@@AEAAXAEAVscoped_lock@1234@_N@Z 00000001800506f4     x86_rtm_rw_mutex.obj
 0002:0001070c       $unwind$?prepare_wait@concurrent_monitor@internal@tbb@@QEAAXAEAVthread_context@123@_K@Z 000000018005070c     concurrent_monitor.obj
 0002:0001070c       $unwind$??0concurrent_queue_base_v3@internal@tbb@@IEAA@_K@Z 000000018005070c     concurrent_queue.obj
 0002:0001070c       $unwind$?initialize@concurrent_queue_iterator_base_v3@internal@tbb@@AEAAXAEBVconcurrent_queue_base_v3@23@_K@Z 000000018005070c     concurrent_queue.obj
 0002:0001070c       $unwind$?internal_assign@concurrent_queue_base_v3@internal@tbb@@IEAAXAEBV123@W4copy_specifics@123@@Z 000000018005070c     concurrent_queue.obj
 0002:0001070c       $unwind$?__itt_counter_set_value_ex_init_3_0@@YAXPEAU___itt_counter@@PEAU___itt_clock_domain@@_KPEAX@Z 000000018005070c     itt_notify.obj
 0002:0001070c       $unwind$?__itt_frame_submit_v3_init_3_0@@YAXPEBU___itt_domain@@PEAU___itt_id@@_K2@Z 000000018005070c     itt_notify.obj
 0002:0001070c       $unwind$?__itt_heap_allocate_end_init_3_0@@YAXPEAXPEAPEAX_KH@Z 000000018005070c     itt_notify.obj
 0002:0001070c       $unwind$?__itt_heap_reallocate_begin_init_3_0@@YAXPEAX0_KH@Z 000000018005070c     itt_notify.obj
 0002:0001070c       $unwind$?__itt_suppress_clear_range_init_3_0@@YAXW4__itt_suppress_mode@@IPEAX_K@Z 000000018005070c     itt_notify.obj
 0002:0001070c       $unwind$?__itt_suppress_mark_range_init_3_0@@YAXW4__itt_suppress_mode@@IPEAX_K@Z 000000018005070c     itt_notify.obj
 0002:0001070c       $unwind$?__itt_sync_createA_init_3_0@@YAXPEAXPEBD1H@Z 000000018005070c     itt_notify.obj
 0002:0001070c       $unwind$?__itt_sync_createW_init_3_0@@YAXPEAXPEB_W1H@Z 000000018005070c     itt_notify.obj
 0002:0001070c       $unwind$?__itt_sync_set_nameA_init_3_0@@YAXPEAXPEBD1H@Z 000000018005070c     itt_notify.obj
 0002:0001070c       $unwind$?__itt_sync_set_nameW_init_3_0@@YAXPEAXPEB_W1H@Z 000000018005070c     itt_notify.obj
 0002:0001070c       $unwind$?process@market@internal@tbb@@EEAAXAEAVjob@rml@@@Z 000000018005070c     market.obj
 0002:0001070c       $unwind$?try_destroy_arena@market@internal@tbb@@QEAAXPEAVarena@23@_K@Z 000000018005070c     market.obj
 0002:0001070c       $unwind$??2@YAPEAX_KAEBVallocate_root_with_context_proxy@internal@tbb@@@Z 000000018005070c     pipeline.obj
 0002:0001070c       $unwind$?internal_acquire@scoped_lock@spin_mutex@tbb@@AEAAXAEAV23@@Z 000000018005070c     spin_mutex.obj
 0002:0001070c       $unwind$?allocate@allocate_root_with_context_proxy@internal@tbb@@QEBAAEAVtask@3@_K@Z 000000018005070c     task.obj
 0002:0001070c       $unwind$?spawn_and_wait_for_all@task@tbb@@QEAAXAEAVtask_list@2@@Z 000000018005070c     task.obj
 0002:0001070c       $unwind$__scrt_dllmain_exception_filter 000000018005070c     LIBCMT:utility.obj
 0002:0001070c       $unwind$?_CopyExceptionObject@?A0x13fc80ab@@YAXPEAXPEBXQEBU_s_CatchableType@@_K@Z 000000018005070c     libcpmt:excptptr.obj
 0002:0001070c       $unwind$?Is_bad_exception_allowed@@YAEPEBU_s_ESTypeList@@@Z 000000018005070c     libvcruntime:frame.obj
 0002:0001070c       $unwind$_ischartype_l      000000018005070c     libucrt:atox.obj
 0002:0001070c       $unwind$_recalloc_base     000000018005070c     libucrt:recalloc.obj
 0002:0001070c       $unwind$__acrt_free_locale 000000018005070c     libucrt:locale_refcounting.obj
 0002:0001070c       $unwind$__acrt_lowio_create_handle_array 000000018005070c     libucrt:osfinfo.obj
 0002:0001070c       $unwind$?setSBCS@@YAXPEAU__crt_multibyte_data@@@Z 000000018005070c     libucrt:mbctype.obj
 0002:0001070c       $unwind$_seh_filter_exe    000000018005070c     libucrt:exception_filter.obj
 0002:0001070c       $unwind$_initterm          000000018005070c     libucrt:initterm.obj
 0002:0001070c       $unwind$??$ensure_buffer_is_big_enough@D@formatting_buffer@__crt_stdio_output@@QEAA_N_K@Z 000000018005070c     libucrt:output.obj
 0002:00010720       $unwind$??_Gconcurrent_queue_base_v3@internal@tbb@@MEAAPEAXI@Z 0000000180050720     concurrent_queue.obj
 0002:00010734       $cppxdata$??_Gconcurrent_queue_base_v3@internal@tbb@@MEAAPEAXI@Z 0000000180050734     concurrent_queue.obj
 0002:0001073d       $stateUnwindMap$??1?$deque@PEAVtask@tbb@@V?$tbb_allocator@PEAVtask@tbb@@@2@@std@@QEAA@XZ 000000018005073d     arena.obj
 0002:0001073d       $stateUnwindMap$??1?$task_stream@$02@internal@tbb@@QEAA@XZ 000000018005073d     arena.obj
 0002:0001073d       $stateUnwindMap$??1task_scheduler_observer@interface6@tbb@@UEAA@XZ 000000018005073d     arena.obj
 0002:0001073d       $stateUnwindMap$??_Gtask_scheduler_observer_v3@internal@tbb@@UEAAPEAXI@Z 000000018005073d     arena.obj
 0002:0001073d       $stateUnwindMap$??_Gconcurrent_queue_base_v3@internal@tbb@@MEAAPEAXI@Z 000000018005073d     concurrent_queue.obj
 0002:0001073d       $stateUnwindMap$??_Gconcurrent_queue_base@internal@tbb@@MEAAPEAXI@Z 000000018005073d     concurrent_queue_v2.obj
 0002:0001073d       $stateUnwindMap$??1filter@tbb@@UEAA@XZ 000000018005073d     pipeline.obj
 0002:0001073d       $stateUnwindMap$??1pipeline@tbb@@UEAA@XZ 000000018005073d     pipeline.obj
 0002:0001073d       $stateUnwindMap$??_Gfilter@tbb@@UEAAPEAXI@Z 000000018005073d     pipeline.obj
 0002:0001073d       $stateUnwindMap$??_Gpipeline@tbb@@UEAAPEAXI@Z 000000018005073d     pipeline.obj
 0002:0001073d       $stateUnwindMap$??_Gstage_task@internal@tbb@@UEAAPEAXI@Z 000000018005073d     pipeline.obj
 0002:0001073d       $stateUnwindMap$?clear@pipeline@tbb@@QEAAXXZ 000000018005073d     pipeline.obj
 0002:0001073d       $stateUnwindMap$??_Gprivate_server@rml@internal@tbb@@EEAAPEAXI@Z 000000018005073d     private_server.obj
 0002:0001073d       $stateUnwindMap$?start_write@reader_writer_lock@interface5@tbb@@AEAA_NPEAVscoped_lock@123@@Z 000000018005073d     reader_writer_lock.obj
 0002:0001073d       $stateUnwindMap$?unlock@reader_writer_lock@interface5@tbb@@QEAAXXZ 000000018005073d     reader_writer_lock.obj
 0002:0001073d       $stateUnwindMap$??_Gcaptured_exception@tbb@@UEAAPEAXI@Z 000000018005073d     task_group_context.obj
 0002:0001073d       $stateUnwindMap$??_Gtbb_exception@tbb@@UEAAPEAXI@Z 000000018005073d     task_group_context.obj
 0002:00010743       $ip2state$??_Gconcurrent_queue_base_v3@internal@tbb@@MEAAPEAXI@Z 0000000180050743     concurrent_queue.obj
 0002:00010743       $ip2state$?register_pending_exception@task_group_context@tbb@@QEAAXXZ 0000000180050743     task_group_context.obj
 0002:00010748       $unwind$??1concurrent_queue_base_v3@internal@tbb@@MEAA@XZ 0000000180050748     concurrent_queue.obj
 0002:00010758       $cppxdata$??1concurrent_queue_base_v3@internal@tbb@@MEAA@XZ 0000000180050758     concurrent_queue.obj
 0002:0001075d       $ip2state$??1concurrent_queue_base_v3@internal@tbb@@MEAA@XZ 000000018005075d     concurrent_queue.obj
 0002:00010760       $unwind$?internal_insert_item@concurrent_queue_base_v3@internal@tbb@@IEAAXPEBXW4copy_specifics@123@@Z 0000000180050760     concurrent_queue.obj
 0002:00010788       $cppxdata$?internal_insert_item@concurrent_queue_base_v3@internal@tbb@@IEAAXPEBXW4copy_specifics@123@@Z 0000000180050788     concurrent_queue.obj
 0002:00010795       $stateUnwindMap$?internal_insert_item@concurrent_queue_base_v3@internal@tbb@@IEAAXPEBXW4copy_specifics@123@@Z 0000000180050795     concurrent_queue.obj
 0002:0001079e       $tryMap$?internal_insert_item@concurrent_queue_base_v3@internal@tbb@@IEAAXPEBXW4copy_specifics@123@@Z 000000018005079e     concurrent_queue.obj
 0002:000107a6       $handlerMap$?internal_insert_item@concurrent_queue_base_v3@internal@tbb@@IEAAXPEBXW4copy_specifics@123@@Z 00000001800507a6     concurrent_queue.obj
 0002:000107b7       $ip2state$?internal_insert_item@concurrent_queue_base_v3@internal@tbb@@IEAAXPEBXW4copy_specifics@123@@Z 00000001800507b7     concurrent_queue.obj
 0002:000107c4       $unwind$?internal_pop@concurrent_queue_base_v3@internal@tbb@@IEAAXPEAX@Z 00000001800507c4     concurrent_queue.obj
 0002:000107e8       $cppxdata$?internal_pop@concurrent_queue_base_v3@internal@tbb@@IEAAXPEAX@Z 00000001800507e8     concurrent_queue.obj
 0002:000107f5       $stateUnwindMap$?internal_pop@concurrent_queue_base_v3@internal@tbb@@IEAAXPEAX@Z 00000001800507f5     concurrent_queue.obj
 0002:000107fe       $tryMap$?internal_pop@concurrent_queue_base_v3@internal@tbb@@IEAAXPEAX@Z 00000001800507fe     concurrent_queue.obj
 0002:00010806       $handlerMap$?internal_pop@concurrent_queue_base_v3@internal@tbb@@IEAAXPEAX@Z 0000000180050806     concurrent_queue.obj
 0002:00010817       $ip2state$?internal_pop@concurrent_queue_base_v3@internal@tbb@@IEAAXPEAX@Z 0000000180050817     concurrent_queue.obj
